
AVRASM ver. 2.1.30  E:\!PROJECTS\C++\2023\GreenhouseNewFont\Debug\List\Greenhouse.asm Mon Oct 10 08:38:52 2022

E:\!PROJECTS\C++\2023\GreenhouseNewFont\Debug\List\Greenhouse.asm(1088): warning: Register r5 already defined by the .DEF directive
E:\!PROJECTS\C++\2023\GreenhouseNewFont\Debug\List\Greenhouse.asm(1089): warning: Register r4 already defined by the .DEF directive
E:\!PROJECTS\C++\2023\GreenhouseNewFont\Debug\List\Greenhouse.asm(1090): warning: Register r7 already defined by the .DEF directive
E:\!PROJECTS\C++\2023\GreenhouseNewFont\Debug\List\Greenhouse.asm(1091): warning: Register r6 already defined by the .DEF directive
E:\!PROJECTS\C++\2023\GreenhouseNewFont\Debug\List\Greenhouse.asm(1092): warning: Register r9 already defined by the .DEF directive
E:\!PROJECTS\C++\2023\GreenhouseNewFont\Debug\List\Greenhouse.asm(1093): warning: Register r8 already defined by the .DEF directive
E:\!PROJECTS\C++\2023\GreenhouseNewFont\Debug\List\Greenhouse.asm(1094): warning: Register r11 already defined by the .DEF directive
E:\!PROJECTS\C++\2023\GreenhouseNewFont\Debug\List\Greenhouse.asm(1095): warning: Register r10 already defined by the .DEF directive
E:\!PROJECTS\C++\2023\GreenhouseNewFont\Debug\List\Greenhouse.asm(1096): warning: Register r13 already defined by the .DEF directive
E:\!PROJECTS\C++\2023\GreenhouseNewFont\Debug\List\Greenhouse.asm(1097): warning: Register r12 already defined by the .DEF directive
                 
                 
                 ;CodeVisionAVR C Compiler V3.12 Advanced
                 ;(C) Copyright 1998-2014 Pavel Haiduc, HP InfoTech s.r.l.
                 ;http://www.hpinfotech.com
                 
                 ;Build configuration    : Debug
                 ;Chip type              : ATmega32
                 ;Program type           : Application
                 ;Clock frequency        : 16,000000 MHz
                 ;Memory model           : Small
                 ;Optimize for           : Size
                 ;(s)printf features     : int, width
                 ;(s)scanf features      : int, width
                 ;External RAM size      : 0
                 ;Data Stack size        : 512 byte(s)
                 ;Heap size              : 0 byte(s)
                 ;Promote 'char' to 'int': Yes
                 ;'char' is unsigned     : Yes
                 ;8 bit enums            : Yes
                 ;Global 'const' stored in FLASH: Yes
                 ;Enhanced function parameter passing: Yes
                 ;Enhanced core instructions: On
                 ;Automatic register allocation for global variables: On
                 ;Smart register allocation: On
                 
                 	#define _MODEL_SMALL_
                 
                 	#pragma AVRPART ADMIN PART_NAME ATmega32
                 	#pragma AVRPART MEMORY PROG_FLASH 32768
                 	#pragma AVRPART MEMORY EEPROM 1024
                 	#pragma AVRPART MEMORY INT_SRAM SIZE 2048
                 	#pragma AVRPART MEMORY INT_SRAM START_ADDR 0x60
                 
                 	#define CALL_SUPPORTED 1
                 
                 	.LISTMAC
                 	.EQU UDRE=0x5
                 	.EQU RXC=0x7
                 	.EQU USR=0xB
                 	.EQU UDR=0xC
                 	.EQU SPSR=0xE
                 	.EQU SPDR=0xF
                 	.EQU EERE=0x0
                 	.EQU EEWE=0x1
                 	.EQU EEMWE=0x2
                 	.EQU EECR=0x1C
                 	.EQU EEDR=0x1D
                 	.EQU EEARL=0x1E
                 	.EQU EEARH=0x1F
                 	.EQU WDTCR=0x21
                 	.EQU MCUCR=0x35
                 	.EQU GICR=0x3B
                 	.EQU SPL=0x3D
                 	.EQU SPH=0x3E
                 	.EQU SREG=0x3F
                 
                 	.DEF R0X0=R0
                 	.DEF R0X1=R1
                 	.DEF R0X2=R2
                 	.DEF R0X3=R3
                 	.DEF R0X4=R4
                 	.DEF R0X5=R5
                 	.DEF R0X6=R6
                 	.DEF R0X7=R7
                 	.DEF R0X8=R8
                 	.DEF R0X9=R9
                 	.DEF R0XA=R10
                 	.DEF R0XB=R11
                 	.DEF R0XC=R12
                 	.DEF R0XD=R13
                 	.DEF R0XE=R14
                 	.DEF R0XF=R15
                 	.DEF R0X10=R16
                 	.DEF R0X11=R17
                 	.DEF R0X12=R18
                 	.DEF R0X13=R19
                 	.DEF R0X14=R20
                 	.DEF R0X15=R21
                 	.DEF R0X16=R22
                 	.DEF R0X17=R23
                 	.DEF R0X18=R24
                 	.DEF R0X19=R25
                 	.DEF R0X1A=R26
                 	.DEF R0X1B=R27
                 	.DEF R0X1C=R28
                 	.DEF R0X1D=R29
                 	.DEF R0X1E=R30
                 	.DEF R0X1F=R31
                 
                 	.EQU __SRAM_START=0x0060
                 	.EQU __SRAM_END=0x085F
                 	.EQU __DSTACK_SIZE=0x0200
                 	.EQU __HEAP_SIZE=0x0000
                 	.EQU __CLEAR_SRAM_SIZE=__SRAM_END-__SRAM_START+1
                 
                 	.MACRO __CPD1N
                 	CPI  R30,LOW(@0)
                 	LDI  R26,HIGH(@0)
                 	CPC  R31,R26
                 	LDI  R26,BYTE3(@0)
                 	CPC  R22,R26
                 	LDI  R26,BYTE4(@0)
                 	CPC  R23,R26
                 	.ENDM
                 
                 	.MACRO __CPD2N
                 	CPI  R26,LOW(@0)
                 	LDI  R30,HIGH(@0)
                 	CPC  R27,R30
                 	LDI  R30,BYTE3(@0)
                 	CPC  R24,R30
                 	LDI  R30,BYTE4(@0)
                 	CPC  R25,R30
                 	.ENDM
                 
                 	.MACRO __CPWRR
                 	CP   R@0,R@2
                 	CPC  R@1,R@3
                 	.ENDM
                 
                 	.MACRO __CPWRN
                 	CPI  R@0,LOW(@2)
                 	LDI  R30,HIGH(@2)
                 	CPC  R@1,R30
                 	.ENDM
                 
                 	.MACRO __ADDB1MN
                 	SUBI R30,LOW(-@0-(@1))
                 	.ENDM
                 
                 	.MACRO __ADDB2MN
                 	SUBI R26,LOW(-@0-(@1))
                 	.ENDM
                 
                 	.MACRO __ADDW1MN
                 	SUBI R30,LOW(-@0-(@1))
                 	SBCI R31,HIGH(-@0-(@1))
                 	.ENDM
                 
                 	.MACRO __ADDW2MN
                 	SUBI R26,LOW(-@0-(@1))
                 	SBCI R27,HIGH(-@0-(@1))
                 	.ENDM
                 
                 	.MACRO __ADDW1FN
                 	SUBI R30,LOW(-2*@0-(@1))
                 	SBCI R31,HIGH(-2*@0-(@1))
                 	.ENDM
                 
                 	.MACRO __ADDD1FN
                 	SUBI R30,LOW(-2*@0-(@1))
                 	SBCI R31,HIGH(-2*@0-(@1))
                 	SBCI R22,BYTE3(-2*@0-(@1))
                 	.ENDM
                 
                 	.MACRO __ADDD1N
                 	SUBI R30,LOW(-@0)
                 	SBCI R31,HIGH(-@0)
                 	SBCI R22,BYTE3(-@0)
                 	SBCI R23,BYTE4(-@0)
                 	.ENDM
                 
                 	.MACRO __ADDD2N
                 	SUBI R26,LOW(-@0)
                 	SBCI R27,HIGH(-@0)
                 	SBCI R24,BYTE3(-@0)
                 	SBCI R25,BYTE4(-@0)
                 	.ENDM
                 
                 	.MACRO __SUBD1N
                 	SUBI R30,LOW(@0)
                 	SBCI R31,HIGH(@0)
                 	SBCI R22,BYTE3(@0)
                 	SBCI R23,BYTE4(@0)
                 	.ENDM
                 
                 	.MACRO __SUBD2N
                 	SUBI R26,LOW(@0)
                 	SBCI R27,HIGH(@0)
                 	SBCI R24,BYTE3(@0)
                 	SBCI R25,BYTE4(@0)
                 	.ENDM
                 
                 	.MACRO __ANDBMNN
                 	LDS  R30,@0+(@1)
                 	ANDI R30,LOW(@2)
                 	STS  @0+(@1),R30
                 	.ENDM
                 
                 	.MACRO __ANDWMNN
                 	LDS  R30,@0+(@1)
                 	ANDI R30,LOW(@2)
                 	STS  @0+(@1),R30
                 	LDS  R30,@0+(@1)+1
                 	ANDI R30,HIGH(@2)
                 	STS  @0+(@1)+1,R30
                 	.ENDM
                 
                 	.MACRO __ANDD1N
                 	ANDI R30,LOW(@0)
                 	ANDI R31,HIGH(@0)
                 	ANDI R22,BYTE3(@0)
                 	ANDI R23,BYTE4(@0)
                 	.ENDM
                 
                 	.MACRO __ANDD2N
                 	ANDI R26,LOW(@0)
                 	ANDI R27,HIGH(@0)
                 	ANDI R24,BYTE3(@0)
                 	ANDI R25,BYTE4(@0)
                 	.ENDM
                 
                 	.MACRO __ORBMNN
                 	LDS  R30,@0+(@1)
                 	ORI  R30,LOW(@2)
                 	STS  @0+(@1),R30
                 	.ENDM
                 
                 	.MACRO __ORWMNN
                 	LDS  R30,@0+(@1)
                 	ORI  R30,LOW(@2)
                 	STS  @0+(@1),R30
                 	LDS  R30,@0+(@1)+1
                 	ORI  R30,HIGH(@2)
                 	STS  @0+(@1)+1,R30
                 	.ENDM
                 
                 	.MACRO __ORD1N
                 	ORI  R30,LOW(@0)
                 	ORI  R31,HIGH(@0)
                 	ORI  R22,BYTE3(@0)
                 	ORI  R23,BYTE4(@0)
                 	.ENDM
                 
                 	.MACRO __ORD2N
                 	ORI  R26,LOW(@0)
                 	ORI  R27,HIGH(@0)
                 	ORI  R24,BYTE3(@0)
                 	ORI  R25,BYTE4(@0)
                 	.ENDM
                 
                 	.MACRO __DELAY_USB
                 	LDI  R24,LOW(@0)
                 __DELAY_USB_LOOP:
                 	DEC  R24
                 	BRNE __DELAY_USB_LOOP
                 	.ENDM
                 
                 	.MACRO __DELAY_USW
                 	LDI  R24,LOW(@0)
                 	LDI  R25,HIGH(@0)
                 __DELAY_USW_LOOP:
                 	SBIW R24,1
                 	BRNE __DELAY_USW_LOOP
                 	.ENDM
                 
                 	.MACRO __GETD1S
                 	LDD  R30,Y+@0
                 	LDD  R31,Y+@0+1
                 	LDD  R22,Y+@0+2
                 	LDD  R23,Y+@0+3
                 	.ENDM
                 
                 	.MACRO __GETD2S
                 	LDD  R26,Y+@0
                 	LDD  R27,Y+@0+1
                 	LDD  R24,Y+@0+2
                 	LDD  R25,Y+@0+3
                 	.ENDM
                 
                 	.MACRO __PUTD1S
                 	STD  Y+@0,R30
                 	STD  Y+@0+1,R31
                 	STD  Y+@0+2,R22
                 	STD  Y+@0+3,R23
                 	.ENDM
                 
                 	.MACRO __PUTD2S
                 	STD  Y+@0,R26
                 	STD  Y+@0+1,R27
                 	STD  Y+@0+2,R24
                 	STD  Y+@0+3,R25
                 	.ENDM
                 
                 	.MACRO __PUTDZ2
                 	STD  Z+@0,R26
                 	STD  Z+@0+1,R27
                 	STD  Z+@0+2,R24
                 	STD  Z+@0+3,R25
                 	.ENDM
                 
                 	.MACRO __CLRD1S
                 	STD  Y+@0,R30
                 	STD  Y+@0+1,R30
                 	STD  Y+@0+2,R30
                 	STD  Y+@0+3,R30
                 	.ENDM
                 
                 	.MACRO __POINTB1MN
                 	LDI  R30,LOW(@0+(@1))
                 	.ENDM
                 
                 	.MACRO __POINTW1MN
                 	LDI  R30,LOW(@0+(@1))
                 	LDI  R31,HIGH(@0+(@1))
                 	.ENDM
                 
                 	.MACRO __POINTD1M
                 	LDI  R30,LOW(@0)
                 	LDI  R31,HIGH(@0)
                 	LDI  R22,BYTE3(@0)
                 	LDI  R23,BYTE4(@0)
                 	.ENDM
                 
                 	.MACRO __POINTW1FN
                 	LDI  R30,LOW(2*@0+(@1))
                 	LDI  R31,HIGH(2*@0+(@1))
                 	.ENDM
                 
                 	.MACRO __POINTD1FN
                 	LDI  R30,LOW(2*@0+(@1))
                 	LDI  R31,HIGH(2*@0+(@1))
                 	LDI  R22,BYTE3(2*@0+(@1))
                 	LDI  R23,BYTE4(2*@0+(@1))
                 	.ENDM
                 
                 	.MACRO __POINTB2MN
                 	LDI  R26,LOW(@0+(@1))
                 	.ENDM
                 
                 	.MACRO __POINTW2MN
                 	LDI  R26,LOW(@0+(@1))
                 	LDI  R27,HIGH(@0+(@1))
                 	.ENDM
                 
                 	.MACRO __POINTW2FN
                 	LDI  R26,LOW(2*@0+(@1))
                 	LDI  R27,HIGH(2*@0+(@1))
                 	.ENDM
                 
                 	.MACRO __POINTD2FN
                 	LDI  R26,LOW(2*@0+(@1))
                 	LDI  R27,HIGH(2*@0+(@1))
                 	LDI  R24,BYTE3(2*@0+(@1))
                 	LDI  R25,BYTE4(2*@0+(@1))
                 	.ENDM
                 
                 	.MACRO __POINTBRM
                 	LDI  R@0,LOW(@1)
                 	.ENDM
                 
                 	.MACRO __POINTWRM
                 	LDI  R@0,LOW(@2)
                 	LDI  R@1,HIGH(@2)
                 	.ENDM
                 
                 	.MACRO __POINTBRMN
                 	LDI  R@0,LOW(@1+(@2))
                 	.ENDM
                 
                 	.MACRO __POINTWRMN
                 	LDI  R@0,LOW(@2+(@3))
                 	LDI  R@1,HIGH(@2+(@3))
                 	.ENDM
                 
                 	.MACRO __POINTWRFN
                 	LDI  R@0,LOW(@2*2+(@3))
                 	LDI  R@1,HIGH(@2*2+(@3))
                 	.ENDM
                 
                 	.MACRO __GETD1N
                 	LDI  R30,LOW(@0)
                 	LDI  R31,HIGH(@0)
                 	LDI  R22,BYTE3(@0)
                 	LDI  R23,BYTE4(@0)
                 	.ENDM
                 
                 	.MACRO __GETD2N
                 	LDI  R26,LOW(@0)
                 	LDI  R27,HIGH(@0)
                 	LDI  R24,BYTE3(@0)
                 	LDI  R25,BYTE4(@0)
                 	.ENDM
                 
                 	.MACRO __GETB1MN
                 	LDS  R30,@0+(@1)
                 	.ENDM
                 
                 	.MACRO __GETB1HMN
                 	LDS  R31,@0+(@1)
                 	.ENDM
                 
                 	.MACRO __GETW1MN
                 	LDS  R30,@0+(@1)
                 	LDS  R31,@0+(@1)+1
                 	.ENDM
                 
                 	.MACRO __GETD1MN
                 	LDS  R30,@0+(@1)
                 	LDS  R31,@0+(@1)+1
                 	LDS  R22,@0+(@1)+2
                 	LDS  R23,@0+(@1)+3
                 	.ENDM
                 
                 	.MACRO __GETBRMN
                 	LDS  R@0,@1+(@2)
                 	.ENDM
                 
                 	.MACRO __GETWRMN
                 	LDS  R@0,@2+(@3)
                 	LDS  R@1,@2+(@3)+1
                 	.ENDM
                 
                 	.MACRO __GETWRZ
                 	LDD  R@0,Z+@2
                 	LDD  R@1,Z+@2+1
                 	.ENDM
                 
                 	.MACRO __GETD2Z
                 	LDD  R26,Z+@0
                 	LDD  R27,Z+@0+1
                 	LDD  R24,Z+@0+2
                 	LDD  R25,Z+@0+3
                 	.ENDM
                 
                 	.MACRO __GETB2MN
                 	LDS  R26,@0+(@1)
                 	.ENDM
                 
                 	.MACRO __GETW2MN
                 	LDS  R26,@0+(@1)
                 	LDS  R27,@0+(@1)+1
                 	.ENDM
                 
                 	.MACRO __GETD2MN
                 	LDS  R26,@0+(@1)
                 	LDS  R27,@0+(@1)+1
                 	LDS  R24,@0+(@1)+2
                 	LDS  R25,@0+(@1)+3
                 	.ENDM
                 
                 	.MACRO __PUTB1MN
                 	STS  @0+(@1),R30
                 	.ENDM
                 
                 	.MACRO __PUTW1MN
                 	STS  @0+(@1),R30
                 	STS  @0+(@1)+1,R31
                 	.ENDM
                 
                 	.MACRO __PUTD1MN
                 	STS  @0+(@1),R30
                 	STS  @0+(@1)+1,R31
                 	STS  @0+(@1)+2,R22
                 	STS  @0+(@1)+3,R23
                 	.ENDM
                 
                 	.MACRO __PUTB1EN
                 	LDI  R26,LOW(@0+(@1))
                 	LDI  R27,HIGH(@0+(@1))
                 	CALL __EEPROMWRB
                 	.ENDM
                 
                 	.MACRO __PUTW1EN
                 	LDI  R26,LOW(@0+(@1))
                 	LDI  R27,HIGH(@0+(@1))
                 	CALL __EEPROMWRW
                 	.ENDM
                 
                 	.MACRO __PUTD1EN
                 	LDI  R26,LOW(@0+(@1))
                 	LDI  R27,HIGH(@0+(@1))
                 	CALL __EEPROMWRD
                 	.ENDM
                 
                 	.MACRO __PUTBR0MN
                 	STS  @0+(@1),R0
                 	.ENDM
                 
                 	.MACRO __PUTBMRN
                 	STS  @0+(@1),R@2
                 	.ENDM
                 
                 	.MACRO __PUTWMRN
                 	STS  @0+(@1),R@2
                 	STS  @0+(@1)+1,R@3
                 	.ENDM
                 
                 	.MACRO __PUTBZR
                 	STD  Z+@1,R@0
                 	.ENDM
                 
                 	.MACRO __PUTWZR
                 	STD  Z+@2,R@0
                 	STD  Z+@2+1,R@1
                 	.ENDM
                 
                 	.MACRO __GETW1R
                 	MOV  R30,R@0
                 	MOV  R31,R@1
                 	.ENDM
                 
                 	.MACRO __GETW2R
                 	MOV  R26,R@0
                 	MOV  R27,R@1
                 	.ENDM
                 
                 	.MACRO __GETWRN
                 	LDI  R@0,LOW(@2)
                 	LDI  R@1,HIGH(@2)
                 	.ENDM
                 
                 	.MACRO __PUTW1R
                 	MOV  R@0,R30
                 	MOV  R@1,R31
                 	.ENDM
                 
                 	.MACRO __PUTW2R
                 	MOV  R@0,R26
                 	MOV  R@1,R27
                 	.ENDM
                 
                 	.MACRO __ADDWRN
                 	SUBI R@0,LOW(-@2)
                 	SBCI R@1,HIGH(-@2)
                 	.ENDM
                 
                 	.MACRO __ADDWRR
                 	ADD  R@0,R@2
                 	ADC  R@1,R@3
                 	.ENDM
                 
                 	.MACRO __SUBWRN
                 	SUBI R@0,LOW(@2)
                 	SBCI R@1,HIGH(@2)
                 	.ENDM
                 
                 	.MACRO __SUBWRR
                 	SUB  R@0,R@2
                 	SBC  R@1,R@3
                 	.ENDM
                 
                 	.MACRO __ANDWRN
                 	ANDI R@0,LOW(@2)
                 	ANDI R@1,HIGH(@2)
                 	.ENDM
                 
                 	.MACRO __ANDWRR
                 	AND  R@0,R@2
                 	AND  R@1,R@3
                 	.ENDM
                 
                 	.MACRO __ORWRN
                 	ORI  R@0,LOW(@2)
                 	ORI  R@1,HIGH(@2)
                 	.ENDM
                 
                 	.MACRO __ORWRR
                 	OR   R@0,R@2
                 	OR   R@1,R@3
                 	.ENDM
                 
                 	.MACRO __EORWRR
                 	EOR  R@0,R@2
                 	EOR  R@1,R@3
                 	.ENDM
                 
                 	.MACRO __GETWRS
                 	LDD  R@0,Y+@2
                 	LDD  R@1,Y+@2+1
                 	.ENDM
                 
                 	.MACRO __PUTBSR
                 	STD  Y+@1,R@0
                 	.ENDM
                 
                 	.MACRO __PUTWSR
                 	STD  Y+@2,R@0
                 	STD  Y+@2+1,R@1
                 	.ENDM
                 
                 	.MACRO __MOVEWRR
                 	MOV  R@0,R@2
                 	MOV  R@1,R@3
                 	.ENDM
                 
                 	.MACRO __INWR
                 	IN   R@0,@2
                 	IN   R@1,@2+1
                 	.ENDM
                 
                 	.MACRO __OUTWR
                 	OUT  @2+1,R@1
                 	OUT  @2,R@0
                 	.ENDM
                 
                 	.MACRO __CALL1MN
                 	LDS  R30,@0+(@1)
                 	LDS  R31,@0+(@1)+1
                 	ICALL
                 	.ENDM
                 
                 	.MACRO __CALL1FN
                 	LDI  R30,LOW(2*@0+(@1))
                 	LDI  R31,HIGH(2*@0+(@1))
                 	CALL __GETW1PF
                 	ICALL
                 	.ENDM
                 
                 	.MACRO __CALL2EN
                 	PUSH R26
                 	PUSH R27
                 	LDI  R26,LOW(@0+(@1))
                 	LDI  R27,HIGH(@0+(@1))
                 	CALL __EEPROMRDW
                 	POP  R27
                 	POP  R26
                 	ICALL
                 	.ENDM
                 
                 	.MACRO __CALL2EX
                 	SUBI R26,LOW(-@0)
                 	SBCI R27,HIGH(-@0)
                 	CALL __EEPROMRDD
                 	ICALL
                 	.ENDM
                 
                 	.MACRO __GETW1STACK
                 	IN   R30,SPL
                 	IN   R31,SPH
                 	ADIW R30,@0+1
                 	LD   R0,Z+
                 	LD   R31,Z
                 	MOV  R30,R0
                 	.ENDM
                 
                 	.MACRO __GETD1STACK
                 	IN   R30,SPL
                 	IN   R31,SPH
                 	ADIW R30,@0+1
                 	LD   R0,Z+
                 	LD   R1,Z+
                 	LD   R22,Z
                 	MOVW R30,R0
                 	.ENDM
                 
                 	.MACRO __NBST
                 	BST  R@0,@1
                 	IN   R30,SREG
                 	LDI  R31,0x40
                 	EOR  R30,R31
                 	OUT  SREG,R30
                 	.ENDM
                 
                 
                 	.MACRO __PUTB1SN
                 	LDD  R26,Y+@0
                 	LDD  R27,Y+@0+1
                 	SUBI R26,LOW(-@1)
                 	SBCI R27,HIGH(-@1)
                 	ST   X,R30
                 	.ENDM
                 
                 	.MACRO __PUTW1SN
                 	LDD  R26,Y+@0
                 	LDD  R27,Y+@0+1
                 	SUBI R26,LOW(-@1)
                 	SBCI R27,HIGH(-@1)
                 	ST   X+,R30
                 	ST   X,R31
                 	.ENDM
                 
                 	.MACRO __PUTD1SN
                 	LDD  R26,Y+@0
                 	LDD  R27,Y+@0+1
                 	SUBI R26,LOW(-@1)
                 	SBCI R27,HIGH(-@1)
                 	CALL __PUTDP1
                 	.ENDM
                 
                 	.MACRO __PUTB1SNS
                 	LDD  R26,Y+@0
                 	LDD  R27,Y+@0+1
                 	ADIW R26,@1
                 	ST   X,R30
                 	.ENDM
                 
                 	.MACRO __PUTW1SNS
                 	LDD  R26,Y+@0
                 	LDD  R27,Y+@0+1
                 	ADIW R26,@1
                 	ST   X+,R30
                 	ST   X,R31
                 	.ENDM
                 
                 	.MACRO __PUTD1SNS
                 	LDD  R26,Y+@0
                 	LDD  R27,Y+@0+1
                 	ADIW R26,@1
                 	CALL __PUTDP1
                 	.ENDM
                 
                 	.MACRO __PUTB1PMN
                 	LDS  R26,@0
                 	LDS  R27,@0+1
                 	SUBI R26,LOW(-@1)
                 	SBCI R27,HIGH(-@1)
                 	ST   X,R30
                 	.ENDM
                 
                 	.MACRO __PUTW1PMN
                 	LDS  R26,@0
                 	LDS  R27,@0+1
                 	SUBI R26,LOW(-@1)
                 	SBCI R27,HIGH(-@1)
                 	ST   X+,R30
                 	ST   X,R31
                 	.ENDM
                 
                 	.MACRO __PUTD1PMN
                 	LDS  R26,@0
                 	LDS  R27,@0+1
                 	SUBI R26,LOW(-@1)
                 	SBCI R27,HIGH(-@1)
                 	CALL __PUTDP1
                 	.ENDM
                 
                 	.MACRO __PUTB1PMNS
                 	LDS  R26,@0
                 	LDS  R27,@0+1
                 	ADIW R26,@1
                 	ST   X,R30
                 	.ENDM
                 
                 	.MACRO __PUTW1PMNS
                 	LDS  R26,@0
                 	LDS  R27,@0+1
                 	ADIW R26,@1
                 	ST   X+,R30
                 	ST   X,R31
                 	.ENDM
                 
                 	.MACRO __PUTD1PMNS
                 	LDS  R26,@0
                 	LDS  R27,@0+1
                 	ADIW R26,@1
                 	CALL __PUTDP1
                 	.ENDM
                 
                 	.MACRO __PUTB1RN
                 	MOVW R26,R@0
                 	SUBI R26,LOW(-@1)
                 	SBCI R27,HIGH(-@1)
                 	ST   X,R30
                 	.ENDM
                 
                 	.MACRO __PUTW1RN
                 	MOVW R26,R@0
                 	SUBI R26,LOW(-@1)
                 	SBCI R27,HIGH(-@1)
                 	ST   X+,R30
                 	ST   X,R31
                 	.ENDM
                 
                 	.MACRO __PUTD1RN
                 	MOVW R26,R@0
                 	SUBI R26,LOW(-@1)
                 	SBCI R27,HIGH(-@1)
                 	CALL __PUTDP1
                 	.ENDM
                 
                 	.MACRO __PUTB1RNS
                 	MOVW R26,R@0
                 	ADIW R26,@1
                 	ST   X,R30
                 	.ENDM
                 
                 	.MACRO __PUTW1RNS
                 	MOVW R26,R@0
                 	ADIW R26,@1
                 	ST   X+,R30
                 	ST   X,R31
                 	.ENDM
                 
                 	.MACRO __PUTD1RNS
                 	MOVW R26,R@0
                 	ADIW R26,@1
                 	CALL __PUTDP1
                 	.ENDM
                 
                 	.MACRO __PUTB1RON
                 	MOV  R26,R@0
                 	MOV  R27,R@1
                 	SUBI R26,LOW(-@2)
                 	SBCI R27,HIGH(-@2)
                 	ST   X,R30
                 	.ENDM
                 
                 	.MACRO __PUTW1RON
                 	MOV  R26,R@0
                 	MOV  R27,R@1
                 	SUBI R26,LOW(-@2)
                 	SBCI R27,HIGH(-@2)
                 	ST   X+,R30
                 	ST   X,R31
                 	.ENDM
                 
                 	.MACRO __PUTD1RON
                 	MOV  R26,R@0
                 	MOV  R27,R@1
                 	SUBI R26,LOW(-@2)
                 	SBCI R27,HIGH(-@2)
                 	CALL __PUTDP1
                 	.ENDM
                 
                 	.MACRO __PUTB1RONS
                 	MOV  R26,R@0
                 	MOV  R27,R@1
                 	ADIW R26,@2
                 	ST   X,R30
                 	.ENDM
                 
                 	.MACRO __PUTW1RONS
                 	MOV  R26,R@0
                 	MOV  R27,R@1
                 	ADIW R26,@2
                 	ST   X+,R30
                 	ST   X,R31
                 	.ENDM
                 
                 	.MACRO __PUTD1RONS
                 	MOV  R26,R@0
                 	MOV  R27,R@1
                 	ADIW R26,@2
                 	CALL __PUTDP1
                 	.ENDM
                 
                 
                 	.MACRO __GETB1SX
                 	MOVW R30,R28
                 	SUBI R30,LOW(-@0)
                 	SBCI R31,HIGH(-@0)
                 	LD   R30,Z
                 	.ENDM
                 
                 	.MACRO __GETB1HSX
                 	MOVW R30,R28
                 	SUBI R30,LOW(-@0)
                 	SBCI R31,HIGH(-@0)
                 	LD   R31,Z
                 	.ENDM
                 
                 	.MACRO __GETW1SX
                 	MOVW R30,R28
                 	SUBI R30,LOW(-@0)
                 	SBCI R31,HIGH(-@0)
                 	LD   R0,Z+
                 	LD   R31,Z
                 	MOV  R30,R0
                 	.ENDM
                 
                 	.MACRO __GETD1SX
                 	MOVW R30,R28
                 	SUBI R30,LOW(-@0)
                 	SBCI R31,HIGH(-@0)
                 	LD   R0,Z+
                 	LD   R1,Z+
                 	LD   R22,Z+
                 	LD   R23,Z
                 	MOVW R30,R0
                 	.ENDM
                 
                 	.MACRO __GETB2SX
                 	MOVW R26,R28
                 	SUBI R26,LOW(-@0)
                 	SBCI R27,HIGH(-@0)
                 	LD   R26,X
                 	.ENDM
                 
                 	.MACRO __GETW2SX
                 	MOVW R26,R28
                 	SUBI R26,LOW(-@0)
                 	SBCI R27,HIGH(-@0)
                 	LD   R0,X+
                 	LD   R27,X
                 	MOV  R26,R0
                 	.ENDM
                 
                 	.MACRO __GETD2SX
                 	MOVW R26,R28
                 	SUBI R26,LOW(-@0)
                 	SBCI R27,HIGH(-@0)
                 	LD   R0,X+
                 	LD   R1,X+
                 	LD   R24,X+
                 	LD   R25,X
                 	MOVW R26,R0
                 	.ENDM
                 
                 	.MACRO __GETBRSX
                 	MOVW R30,R28
                 	SUBI R30,LOW(-@1)
                 	SBCI R31,HIGH(-@1)
                 	LD   R@0,Z
                 	.ENDM
                 
                 	.MACRO __GETWRSX
                 	MOVW R30,R28
                 	SUBI R30,LOW(-@2)
                 	SBCI R31,HIGH(-@2)
                 	LD   R@0,Z+
                 	LD   R@1,Z
                 	.ENDM
                 
                 	.MACRO __GETBRSX2
                 	MOVW R26,R28
                 	SUBI R26,LOW(-@1)
                 	SBCI R27,HIGH(-@1)
                 	LD   R@0,X
                 	.ENDM
                 
                 	.MACRO __GETWRSX2
                 	MOVW R26,R28
                 	SUBI R26,LOW(-@2)
                 	SBCI R27,HIGH(-@2)
                 	LD   R@0,X+
                 	LD   R@1,X
                 	.ENDM
                 
                 	.MACRO __LSLW8SX
                 	MOVW R30,R28
                 	SUBI R30,LOW(-@0)
                 	SBCI R31,HIGH(-@0)
                 	LD   R31,Z
                 	CLR  R30
                 	.ENDM
                 
                 	.MACRO __PUTB1SX
                 	MOVW R26,R28
                 	SUBI R26,LOW(-@0)
                 	SBCI R27,HIGH(-@0)
                 	ST   X,R30
                 	.ENDM
                 
                 	.MACRO __PUTW1SX
                 	MOVW R26,R28
                 	SUBI R26,LOW(-@0)
                 	SBCI R27,HIGH(-@0)
                 	ST   X+,R30
                 	ST   X,R31
                 	.ENDM
                 
                 	.MACRO __PUTD1SX
                 	MOVW R26,R28
                 	SUBI R26,LOW(-@0)
                 	SBCI R27,HIGH(-@0)
                 	ST   X+,R30
                 	ST   X+,R31
                 	ST   X+,R22
                 	ST   X,R23
                 	.ENDM
                 
                 	.MACRO __CLRW1SX
                 	MOVW R26,R28
                 	SUBI R26,LOW(-@0)
                 	SBCI R27,HIGH(-@0)
                 	ST   X+,R30
                 	ST   X,R30
                 	.ENDM
                 
                 	.MACRO __CLRD1SX
                 	MOVW R26,R28
                 	SUBI R26,LOW(-@0)
                 	SBCI R27,HIGH(-@0)
                 	ST   X+,R30
                 	ST   X+,R30
                 	ST   X+,R30
                 	ST   X,R30
                 	.ENDM
                 
                 	.MACRO __PUTB2SX
                 	MOVW R30,R28
                 	SUBI R30,LOW(-@0)
                 	SBCI R31,HIGH(-@0)
                 	ST   Z,R26
                 	.ENDM
                 
                 	.MACRO __PUTW2SX
                 	MOVW R30,R28
                 	SUBI R30,LOW(-@0)
                 	SBCI R31,HIGH(-@0)
                 	ST   Z+,R26
                 	ST   Z,R27
                 	.ENDM
                 
                 	.MACRO __PUTD2SX
                 	MOVW R30,R28
                 	SUBI R30,LOW(-@0)
                 	SBCI R31,HIGH(-@0)
                 	ST   Z+,R26
                 	ST   Z+,R27
                 	ST   Z+,R24
                 	ST   Z,R25
                 	.ENDM
                 
                 	.MACRO __PUTBSRX
                 	MOVW R30,R28
                 	SUBI R30,LOW(-@1)
                 	SBCI R31,HIGH(-@1)
                 	ST   Z,R@0
                 	.ENDM
                 
                 	.MACRO __PUTWSRX
                 	MOVW R30,R28
                 	SUBI R30,LOW(-@2)
                 	SBCI R31,HIGH(-@2)
                 	ST   Z+,R@0
                 	ST   Z,R@1
                 	.ENDM
                 
                 	.MACRO __PUTB1SNX
                 	MOVW R26,R28
                 	SUBI R26,LOW(-@0)
                 	SBCI R27,HIGH(-@0)
                 	LD   R0,X+
                 	LD   R27,X
                 	MOV  R26,R0
                 	SUBI R26,LOW(-@1)
                 	SBCI R27,HIGH(-@1)
                 	ST   X,R30
                 	.ENDM
                 
                 	.MACRO __PUTW1SNX
                 	MOVW R26,R28
                 	SUBI R26,LOW(-@0)
                 	SBCI R27,HIGH(-@0)
                 	LD   R0,X+
                 	LD   R27,X
                 	MOV  R26,R0
                 	SUBI R26,LOW(-@1)
                 	SBCI R27,HIGH(-@1)
                 	ST   X+,R30
                 	ST   X,R31
                 	.ENDM
                 
                 	.MACRO __PUTD1SNX
                 	MOVW R26,R28
                 	SUBI R26,LOW(-@0)
                 	SBCI R27,HIGH(-@0)
                 	LD   R0,X+
                 	LD   R27,X
                 	MOV  R26,R0
                 	SUBI R26,LOW(-@1)
                 	SBCI R27,HIGH(-@1)
                 	ST   X+,R30
                 	ST   X+,R31
                 	ST   X+,R22
                 	ST   X,R23
                 	.ENDM
                 
                 	.MACRO __MULBRR
                 	MULS R@0,R@1
                 	MOVW R30,R0
                 	.ENDM
                 
                 	.MACRO __MULBRRU
                 	MUL  R@0,R@1
                 	MOVW R30,R0
                 	.ENDM
                 
                 	.MACRO __MULBRR0
                 	MULS R@0,R@1
                 	.ENDM
                 
                 	.MACRO __MULBRRU0
                 	MUL  R@0,R@1
                 	.ENDM
                 
                 	.MACRO __MULBNWRU
                 	LDI  R26,@2
                 	MUL  R26,R@0
                 	MOVW R30,R0
                 	MUL  R26,R@1
                 	ADD  R31,R0
                 	.ENDM
                 
                 ;NAME DEFINITIONS FOR GLOBAL VARIABLES ALLOCATED TO REGISTERS
                 	.DEF _BeepT=R5
                 	.DEF _displ_num=R4
                 	.DEF _newSetButt=R7
                 	.DEF _ds18b20=R6
                 	.DEF _pointY=R9
                 	.DEF _DHTexist=R8
                 	.DEF _signchar=R11
                 	.DEF _intval=R10
                 	.DEF _frcval=R13
                 	.DEF _error=R12
                 
                 	.CSEG
                 	.ORG 0x00
                 
                 ;START OF CODE MARKER
                 __START_OF_CODE:
                 
                 ;INTERRUPT VECTORS
000000 940c 0d3f 	JMP  __RESET
000002 940c 1a1d 	JMP  _ext_int0_isr
000004 940c 0000 	JMP  0x00
000006 940c 0000 	JMP  0x00
000008 940c 0000 	JMP  0x00
00000a 940c 0000 	JMP  0x00
00000c 940c 0000 	JMP  0x00
00000e 940c 0000 	JMP  0x00
000010 940c 0000 	JMP  0x00
000012 940c 1a2e 	JMP  _timer_comp_isr
000014 940c 0000 	JMP  0x00
000016 940c 0000 	JMP  0x00
000018 940c 0000 	JMP  0x00
00001a 940c 0000 	JMP  0x00
00001c 940c 0000 	JMP  0x00
00001e 940c 0000 	JMP  0x00
000020 940c 0000 	JMP  0x00
000022 940c 0000 	JMP  0x00
000024 940c 0000 	JMP  0x00
000026 940c 1d21 	JMP  _twi_int_handler
000028 940c 0000 	JMP  0x00
                 
                 _Font11x18:
00002a 0000
00002b 0000
00002c 0000
00002d 0000      	.DB  0x0,0x0,0x0,0x0,0x0,0x0,0x0,0x0
00002e 0000
00002f 0000
000030 0000
000031 0000      	.DB  0x0,0x0,0x0,0x0,0x0,0x0,0x0,0x0
000032 0000
000033 0000
000034 0000
000035 0000      	.DB  0x0,0x0,0x0,0x0,0x0,0x0,0x0,0x0
000036 0000
000037 0000
000038 0000
000039 0000      	.DB  0x0,0x0,0x0,0x0,0x0,0x0,0x0,0x0
00003a 0000
00003b 0000
00003c 0000
00003d 0c00      	.DB  0x0,0x0,0x0,0x0,0x0,0x0,0x0,0xC
00003e 0c00
00003f 0c00
000040 0c00
000041 0c00      	.DB  0x0,0xC,0x0,0xC,0x0,0xC,0x0,0xC
000042 0c00
000043 0c00
000044 0c00
000045 0c00      	.DB  0x0,0xC,0x0,0xC,0x0,0xC,0x0,0xC
000046 0c00
000047 0c00
000048 0000
000049 0c00      	.DB  0x0,0xC,0x0,0xC,0x0,0x0,0x0,0xC
00004a 0c00
00004b 0000
00004c 0000
00004d 0000      	.DB  0x0,0xC,0x0,0x0,0x0,0x0,0x0,0x0
00004e 0000
00004f 1b00
000050 1b00
000051 1b00      	.DB  0x0,0x0,0x0,0x1B,0x0,0x1B,0x0,0x1B
000052 1b00
000053 1b00
000054 0000
000055 0000      	.DB  0x0,0x1B,0x0,0x1B,0x0,0x0,0x0,0x0
000056 0000
000057 0000
000058 0000
000059 0000      	.DB  0x0,0x0,0x0,0x0,0x0,0x0,0x0,0x0
00005a 0000
00005b 0000
00005c 0000
00005d 0000      	.DB  0x0,0x0,0x0,0x0,0x0,0x0,0x0,0x0
00005e 0000
00005f 0000
000060 0000
000061 1980      	.DB  0x0,0x0,0x0,0x0,0x0,0x0,0x80,0x19
000062 1980
000063 1980
000064 1980
000065 7fc0      	.DB  0x80,0x19,0x80,0x19,0x80,0x19,0xC0,0x7F
000066 7fc0
000067 1980
000068 3300
000069 7fc0      	.DB  0xC0,0x7F,0x80,0x19,0x0,0x33,0xC0,0x7F
00006a 7fc0
00006b 3300
00006c 3300
00006d 3300      	.DB  0xC0,0x7F,0x0,0x33,0x0,0x33,0x0,0x33
00006e 3300
00006f 0000
000070 0000
000071 0000      	.DB  0x0,0x33,0x0,0x0,0x0,0x0,0x0,0x0
000072 0000
000073 1e00
000074 3f00
000075 7580      	.DB  0x0,0x0,0x0,0x1E,0x0,0x3F,0x80,0x75
000076 6580
000077 7400
000078 3c00
000079 1e00      	.DB  0x80,0x65,0x0,0x74,0x0,0x3C,0x0,0x1E
00007a 0700
00007b 0580
00007c 6580
00007d 6580      	.DB  0x0,0x7,0x80,0x5,0x80,0x65,0x80,0x65
00007e 7580
00007f 3f00
000080 1e00
000081 0400      	.DB  0x80,0x75,0x0,0x3F,0x0,0x1E,0x0,0x4
000082 0400
000083 0000
000084 0000
000085 7000      	.DB  0x0,0x4,0x0,0x0,0x0,0x0,0x0,0x70
000086 d800
000087 d840
000088 d8c0
000089 d980      	.DB  0x0,0xD8,0x40,0xD8,0xC0,0xD8,0x80,0xD9
00008a 7300
00008b 0600
00008c 0c00
00008d 1b80      	.DB  0x0,0x73,0x0,0x6,0x0,0xC,0x80,0x1B
00008e 36c0
00008f 66c0
000090 46c0
000091 06c0      	.DB  0xC0,0x36,0xC0,0x66,0xC0,0x46,0xC0,0x6
000092 0380
000093 0000
000094 0000
000095 0000      	.DB  0x80,0x3,0x0,0x0,0x0,0x0,0x0,0x0
000096 0000
000097 1e00
000098 3f00
000099 3300      	.DB  0x0,0x0,0x0,0x1E,0x0,0x3F,0x0,0x33
00009a 3300
00009b 3300
00009c 1e00
00009d 0c00      	.DB  0x0,0x33,0x0,0x33,0x0,0x1E,0x0,0xC
00009e 3cc0
00009f 66c0
0000a0 6380
0000a1 6180      	.DB  0xC0,0x3C,0xC0,0x66,0x80,0x63,0x80,0x61
0000a2 6380
0000a3 3ec0
0000a4 1c80
0000a5 0000      	.DB  0x80,0x63,0xC0,0x3E,0x80,0x1C,0x0,0x0
0000a6 0000
0000a7 0000
0000a8 0000
0000a9 0c00      	.DB  0x0,0x0,0x0,0x0,0x0,0x0,0x0,0xC
0000aa 0c00
0000ab 0c00
0000ac 0c00
0000ad 0c00      	.DB  0x0,0xC,0x0,0xC,0x0,0xC,0x0,0xC
0000ae 0000
0000af 0000
0000b0 0000
0000b1 0000      	.DB  0x0,0x0,0x0,0x0,0x0,0x0,0x0,0x0
0000b2 0000
0000b3 0000
0000b4 0000
0000b5 0000      	.DB  0x0,0x0,0x0,0x0,0x0,0x0,0x0,0x0
0000b6 0000
0000b7 0000
0000b8 0000
0000b9 0000      	.DB  0x0,0x0,0x0,0x0,0x0,0x0,0x0,0x0
0000ba 0080
0000bb 0100
0000bc 0300
0000bd 0600      	.DB  0x80,0x0,0x0,0x1,0x0,0x3,0x0,0x6
0000be 0600
0000bf 0400
0000c0 0c00
0000c1 0c00      	.DB  0x0,0x6,0x0,0x4,0x0,0xC,0x0,0xC
0000c2 0c00
0000c3 0c00
0000c4 0c00
0000c5 0c00      	.DB  0x0,0xC,0x0,0xC,0x0,0xC,0x0,0xC
0000c6 0400
0000c7 0600
0000c8 0600
0000c9 0300      	.DB  0x0,0x4,0x0,0x6,0x0,0x6,0x0,0x3
0000ca 0100
0000cb 0080
0000cc 2000
0000cd 1000      	.DB  0x0,0x1,0x80,0x0,0x0,0x20,0x0,0x10
0000ce 1800
0000cf 0c00
0000d0 0c00
0000d1 0400      	.DB  0x0,0x18,0x0,0xC,0x0,0xC,0x0,0x4
0000d2 0600
0000d3 0600
0000d4 0600
0000d5 0600      	.DB  0x0,0x6,0x0,0x6,0x0,0x6,0x0,0x6
0000d6 0600
0000d7 0600
0000d8 0400
0000d9 0c00      	.DB  0x0,0x6,0x0,0x6,0x0,0x4,0x0,0xC
0000da 0c00
0000db 1800
0000dc 1000
0000dd 2000      	.DB  0x0,0xC,0x0,0x18,0x0,0x10,0x0,0x20
0000de 0000
0000df 0c00
0000e0 2d00
0000e1 3f00      	.DB  0x0,0x0,0x0,0xC,0x0,0x2D,0x0,0x3F
0000e2 1e00
0000e3 3300
0000e4 0000
0000e5 0000      	.DB  0x0,0x1E,0x0,0x33,0x0,0x0,0x0,0x0
0000e6 0000
0000e7 0000
0000e8 0000
0000e9 0000      	.DB  0x0,0x0,0x0,0x0,0x0,0x0,0x0,0x0
0000ea 0000
0000eb 0000
0000ec 0000
0000ed 0000      	.DB  0x0,0x0,0x0,0x0,0x0,0x0,0x0,0x0
0000ee 0000
0000ef 0000
0000f0 0000
0000f1 0000      	.DB  0x0,0x0,0x0,0x0,0x0,0x0,0x0,0x0
0000f2 0000
0000f3 0c00
0000f4 0c00
0000f5 0c00      	.DB  0x0,0x0,0x0,0xC,0x0,0xC,0x0,0xC
0000f6 0c00
0000f7 ffc0
0000f8 ffc0
0000f9 0c00      	.DB  0x0,0xC,0xC0,0xFF,0xC0,0xFF,0x0,0xC
0000fa 0c00
0000fb 0c00
0000fc 0c00
0000fd 0000      	.DB  0x0,0xC,0x0,0xC,0x0,0xC,0x0,0x0
0000fe 0000
0000ff 0000
000100 0000
000101 0000      	.DB  0x0,0x0,0x0,0x0,0x0,0x0,0x0,0x0
000102 0000
000103 0000
000104 0000
000105 0000      	.DB  0x0,0x0,0x0,0x0,0x0,0x0,0x0,0x0
000106 0000
000107 0000
000108 0000
000109 0000      	.DB  0x0,0x0,0x0,0x0,0x0,0x0,0x0,0x0
00010a 0000
00010b 0000
00010c 0000
00010d 0000      	.DB  0x0,0x0,0x0,0x0,0x0,0x0,0x0,0x0
00010e 0000
00010f 0c00
000110 0c00
000111 0400      	.DB  0x0,0x0,0x0,0xC,0x0,0xC,0x0,0x4
000112 0400
000113 0800
000114 0000
000115 0000      	.DB  0x0,0x4,0x0,0x8,0x0,0x0,0x0,0x0
000116 0000
000117 0000
000118 0000
000119 0000      	.DB  0x0,0x0,0x0,0x0,0x0,0x0,0x0,0x0
00011a 0000
00011b 0000
00011c 0000
00011d 1e00      	.DB  0x0,0x0,0x0,0x0,0x0,0x0,0x0,0x1E
00011e 1e00
00011f 0000
000120 0000
000121 0000      	.DB  0x0,0x1E,0x0,0x0,0x0,0x0,0x0,0x0
000122 0000
000123 0000
000124 0000
000125 0000      	.DB  0x0,0x0,0x0,0x0,0x0,0x0,0x0,0x0
000126 0000
000127 0000
000128 0000
000129 0000      	.DB  0x0,0x0,0x0,0x0,0x0,0x0,0x0,0x0
00012a 0000
00012b 0000
00012c 0000
00012d 0000      	.DB  0x0,0x0,0x0,0x0,0x0,0x0,0x0,0x0
00012e 0000
00012f 0000
000130 0000
000131 0000      	.DB  0x0,0x0,0x0,0x0,0x0,0x0,0x0,0x0
000132 0000
000133 0c00
000134 0c00
000135 0000      	.DB  0x0,0x0,0x0,0xC,0x0,0xC,0x0,0x0
000136 0000
000137 0000
000138 0000
000139 0300      	.DB  0x0,0x0,0x0,0x0,0x0,0x0,0x0,0x3
00013a 0300
00013b 0300
00013c 0600
00013d 0600      	.DB  0x0,0x3,0x0,0x3,0x0,0x6,0x0,0x6
00013e 0600
00013f 0600
000140 0c00
000141 0c00      	.DB  0x0,0x6,0x0,0x6,0x0,0xC,0x0,0xC
000142 0c00
000143 0c00
000144 1800
000145 1800      	.DB  0x0,0xC,0x0,0xC,0x0,0x18,0x0,0x18
000146 1800
000147 0000
000148 0000
000149 0000      	.DB  0x0,0x18,0x0,0x0,0x0,0x0,0x0,0x0
00014a 0000
00014b 1e00
00014c 3f00
00014d 3300      	.DB  0x0,0x0,0x0,0x1E,0x0,0x3F,0x0,0x33
00014e 6180
00014f 6180
000150 6180
000151 6d80      	.DB  0x80,0x61,0x80,0x61,0x80,0x61,0x80,0x6D
000152 6d80
000153 6180
000154 6180
000155 6180      	.DB  0x80,0x6D,0x80,0x61,0x80,0x61,0x80,0x61
000156 3300
000157 3f00
000158 1e00
000159 0000      	.DB  0x0,0x33,0x0,0x3F,0x0,0x1E,0x0,0x0
00015a 0000
00015b 0000
00015c 0000
00015d 0600      	.DB  0x0,0x0,0x0,0x0,0x0,0x0,0x0,0x6
00015e 0e00
00015f 1e00
000160 3600
000161 2600      	.DB  0x0,0xE,0x0,0x1E,0x0,0x36,0x0,0x26
000162 0600
000163 0600
000164 0600
000165 0600      	.DB  0x0,0x6,0x0,0x6,0x0,0x6,0x0,0x6
000166 0600
000167 0600
000168 0600
000169 0600      	.DB  0x0,0x6,0x0,0x6,0x0,0x6,0x0,0x6
00016a 0600
00016b 0000
00016c 0000
00016d 0000      	.DB  0x0,0x6,0x0,0x0,0x0,0x0,0x0,0x0
00016e 0000
00016f 1e00
000170 3f00
000171 7380      	.DB  0x0,0x0,0x0,0x1E,0x0,0x3F,0x80,0x73
000172 6180
000173 6180
000174 0180
000175 0300      	.DB  0x80,0x61,0x80,0x61,0x80,0x1,0x0,0x3
000176 0600
000177 0c00
000178 1800
000179 3000      	.DB  0x0,0x6,0x0,0xC,0x0,0x18,0x0,0x30
00017a 6000
00017b 7f80
00017c 7f80
00017d 0000      	.DB  0x0,0x60,0x80,0x7F,0x80,0x7F,0x0,0x0
00017e 0000
00017f 0000
000180 0000
000181 1c00      	.DB  0x0,0x0,0x0,0x0,0x0,0x0,0x0,0x1C
000182 3e00
000183 6300
000184 6300
000185 0300      	.DB  0x0,0x3E,0x0,0x63,0x0,0x63,0x0,0x3
000186 0e00
000187 0e00
000188 0300
000189 0180      	.DB  0x0,0xE,0x0,0xE,0x0,0x3,0x80,0x1
00018a 0180
00018b 6180
00018c 7380
00018d 3f00      	.DB  0x80,0x1,0x80,0x61,0x80,0x73,0x0,0x3F
00018e 1e00
00018f 0000
000190 0000
000191 0000      	.DB  0x0,0x1E,0x0,0x0,0x0,0x0,0x0,0x0
000192 0000
000193 0600
000194 0e00
000195 0e00      	.DB  0x0,0x0,0x0,0x6,0x0,0xE,0x0,0xE
000196 1e00
000197 1e00
000198 1600
000199 3600      	.DB  0x0,0x1E,0x0,0x1E,0x0,0x16,0x0,0x36
00019a 3600
00019b 6600
00019c 7f80
00019d 7f80      	.DB  0x0,0x36,0x0,0x66,0x80,0x7F,0x80,0x7F
00019e 0600
00019f 0600
0001a0 0600
0001a1 0000      	.DB  0x0,0x6,0x0,0x6,0x0,0x6,0x0,0x0
0001a2 0000
0001a3 0000
0001a4 0000
0001a5 7f00      	.DB  0x0,0x0,0x0,0x0,0x0,0x0,0x0,0x7F
0001a6 7f00
0001a7 6000
0001a8 6000
0001a9 6000      	.DB  0x0,0x7F,0x0,0x60,0x0,0x60,0x0,0x60
0001aa 6e00
0001ab 7f00
0001ac 6380
0001ad 0180      	.DB  0x0,0x6E,0x0,0x7F,0x80,0x63,0x80,0x1
0001ae 0180
0001af 6180
0001b0 7380
0001b1 3f00      	.DB  0x80,0x1,0x80,0x61,0x80,0x73,0x0,0x3F
0001b2 1e00
0001b3 0000
0001b4 0000
0001b5 0000      	.DB  0x0,0x1E,0x0,0x0,0x0,0x0,0x0,0x0
0001b6 0000
0001b7 1e00
0001b8 3f00
0001b9 3380      	.DB  0x0,0x0,0x0,0x1E,0x0,0x3F,0x80,0x33
0001ba 6180
0001bb 6000
0001bc 6e00
0001bd 7f00      	.DB  0x80,0x61,0x0,0x60,0x0,0x6E,0x0,0x7F
0001be 7380
0001bf 6180
0001c0 6180
0001c1 6180      	.DB  0x80,0x73,0x80,0x61,0x80,0x61,0x80,0x61
0001c2 3380
0001c3 3f00
0001c4 1e00
0001c5 0000      	.DB  0x80,0x33,0x0,0x3F,0x0,0x1E,0x0,0x0
0001c6 0000
0001c7 0000
0001c8 0000
0001c9 7f80      	.DB  0x0,0x0,0x0,0x0,0x0,0x0,0x80,0x7F
0001ca 7f80
0001cb 0180
0001cc 0300
0001cd 0300      	.DB  0x80,0x7F,0x80,0x1,0x0,0x3,0x0,0x3
0001ce 0600
0001cf 0600
0001d0 0c00
0001d1 0c00      	.DB  0x0,0x6,0x0,0x6,0x0,0xC,0x0,0xC
0001d2 0c00
0001d3 0800
0001d4 1800
0001d5 1800      	.DB  0x0,0xC,0x0,0x8,0x0,0x18,0x0,0x18
0001d6 1800
0001d7 0000
0001d8 0000
0001d9 0000      	.DB  0x0,0x18,0x0,0x0,0x0,0x0,0x0,0x0
0001da 0000
0001db 1e00
0001dc 3f00
0001dd 6380      	.DB  0x0,0x0,0x0,0x1E,0x0,0x3F,0x80,0x63
0001de 6180
0001df 6180
0001e0 2100
0001e1 1e00      	.DB  0x80,0x61,0x80,0x61,0x0,0x21,0x0,0x1E
0001e2 3f00
0001e3 6180
0001e4 6180
0001e5 6180      	.DB  0x0,0x3F,0x80,0x61,0x80,0x61,0x80,0x61
0001e6 6180
0001e7 3f00
0001e8 1e00
0001e9 0000      	.DB  0x80,0x61,0x0,0x3F,0x0,0x1E,0x0,0x0
0001ea 0000
0001eb 0000
0001ec 0000
0001ed 1e00      	.DB  0x0,0x0,0x0,0x0,0x0,0x0,0x0,0x1E
0001ee 3f00
0001ef 7300
0001f0 6180
0001f1 6180      	.DB  0x0,0x3F,0x0,0x73,0x80,0x61,0x80,0x61
0001f2 6180
0001f3 7380
0001f4 3f80
0001f5 1d80      	.DB  0x80,0x61,0x80,0x73,0x80,0x3F,0x80,0x1D
0001f6 0180
0001f7 6180
0001f8 7300
0001f9 3f00      	.DB  0x80,0x1,0x80,0x61,0x0,0x73,0x0,0x3F
0001fa 1e00
0001fb 0000
0001fc 0000
0001fd 0000      	.DB  0x0,0x1E,0x0,0x0,0x0,0x0,0x0,0x0
0001fe 0000
0001ff 0000
000200 0000
000201 0000      	.DB  0x0,0x0,0x0,0x0,0x0,0x0,0x0,0x0
000202 0000
000203 0c00
000204 0c00
000205 0000      	.DB  0x0,0x0,0x0,0xC,0x0,0xC,0x0,0x0
000206 0000
000207 0000
000208 0000
000209 0000      	.DB  0x0,0x0,0x0,0x0,0x0,0x0,0x0,0x0
00020a 0000
00020b 0c00
00020c 0c00
00020d 0000      	.DB  0x0,0x0,0x0,0xC,0x0,0xC,0x0,0x0
00020e 0000
00020f 0000
000210 0000
000211 0000      	.DB  0x0,0x0,0x0,0x0,0x0,0x0,0x0,0x0
000212 0000
000213 0000
000214 0000
000215 0000      	.DB  0x0,0x0,0x0,0x0,0x0,0x0,0x0,0x0
000216 0c00
000217 0c00
000218 0000
000219 0000      	.DB  0x0,0xC,0x0,0xC,0x0,0x0,0x0,0x0
00021a 0000
00021b 0000
00021c 0000
00021d 0c00      	.DB  0x0,0x0,0x0,0x0,0x0,0x0,0x0,0xC
00021e 0c00
00021f 0400
000220 0400
000221 0800      	.DB  0x0,0xC,0x0,0x4,0x0,0x4,0x0,0x8
000222 0000
000223 0000
000224 0000
000225 0000      	.DB  0x0,0x0,0x0,0x0,0x0,0x0,0x0,0x0
000226 0080
000227 0380
000228 0e00
000229 3800      	.DB  0x80,0x0,0x80,0x3,0x0,0xE,0x0,0x38
00022a 6000
00022b 3800
00022c 0e00
00022d 0380      	.DB  0x0,0x60,0x0,0x38,0x0,0xE,0x80,0x3
00022e 0080
00022f 0000
000230 0000
000231 0000      	.DB  0x80,0x0,0x0,0x0,0x0,0x0,0x0,0x0
000232 0000
000233 0000
000234 0000
000235 0000      	.DB  0x0,0x0,0x0,0x0,0x0,0x0,0x0,0x0
000236 0000
000237 0000
000238 0000
000239 7f80      	.DB  0x0,0x0,0x0,0x0,0x0,0x0,0x80,0x7F
00023a 7f80
00023b 0000
00023c 0000
00023d 7f80      	.DB  0x80,0x7F,0x0,0x0,0x0,0x0,0x80,0x7F
00023e 7f80
00023f 0000
000240 0000
000241 0000      	.DB  0x80,0x7F,0x0,0x0,0x0,0x0,0x0,0x0
000242 0000
000243 0000
000244 0000
000245 0000      	.DB  0x0,0x0,0x0,0x0,0x0,0x0,0x0,0x0
000246 0000
000247 0000
000248 0000
000249 0000      	.DB  0x0,0x0,0x0,0x0,0x0,0x0,0x0,0x0
00024a 4000
00024b 7000
00024c 1c00
00024d 0700      	.DB  0x0,0x40,0x0,0x70,0x0,0x1C,0x0,0x7
00024e 0180
00024f 0700
000250 1c00
000251 7000      	.DB  0x80,0x1,0x0,0x7,0x0,0x1C,0x0,0x70
000252 4000
000253 0000
000254 0000
000255 0000      	.DB  0x0,0x40,0x0,0x0,0x0,0x0,0x0,0x0
000256 0000
000257 0000
000258 0000
000259 1f00      	.DB  0x0,0x0,0x0,0x0,0x0,0x0,0x0,0x1F
00025a 3f80
00025b 71c0
00025c 60c0
00025d 00c0      	.DB  0x80,0x3F,0xC0,0x71,0xC0,0x60,0xC0,0x0
00025e 01c0
00025f 0380
000260 0700
000261 0e00      	.DB  0xC0,0x1,0x80,0x3,0x0,0x7,0x0,0xE
000262 0c00
000263 0c00
000264 0000
000265 0c00      	.DB  0x0,0xC,0x0,0xC,0x0,0x0,0x0,0xC
000266 0c00
000267 0000
000268 0000
000269 0000      	.DB  0x0,0xC,0x0,0x0,0x0,0x0,0x0,0x0
00026a 0000
00026b 1e00
00026c 3f00
00026d 3180      	.DB  0x0,0x0,0x0,0x1E,0x0,0x3F,0x80,0x31
00026e 7180
00026f 6380
000270 6f80
000271 6d80      	.DB  0x80,0x71,0x80,0x63,0x80,0x6F,0x80,0x6D
000272 6d80
000273 6f80
000274 6780
000275 6000      	.DB  0x80,0x6D,0x80,0x6F,0x80,0x67,0x0,0x60
000276 3200
000277 3e00
000278 1c00
000279 0000      	.DB  0x0,0x32,0x0,0x3E,0x0,0x1C,0x0,0x0
00027a 0000
00027b 0000
00027c 0000
00027d 0e00      	.DB  0x0,0x0,0x0,0x0,0x0,0x0,0x0,0xE
00027e 0e00
00027f 1b00
000280 1b00
000281 1b00      	.DB  0x0,0xE,0x0,0x1B,0x0,0x1B,0x0,0x1B
000282 1b00
000283 3180
000284 3180
000285 3f80      	.DB  0x0,0x1B,0x80,0x31,0x80,0x31,0x80,0x3F
000286 3f80
000287 3180
000288 60c0
000289 60c0      	.DB  0x80,0x3F,0x80,0x31,0xC0,0x60,0xC0,0x60
00028a 60c0
00028b 0000
00028c 0000
00028d 0000      	.DB  0xC0,0x60,0x0,0x0,0x0,0x0,0x0,0x0
00028e 0000
00028f 7c00
000290 7e00
000291 6300      	.DB  0x0,0x0,0x0,0x7C,0x0,0x7E,0x0,0x63
000292 6300
000293 6300
000294 6300
000295 7e00      	.DB  0x0,0x63,0x0,0x63,0x0,0x63,0x0,0x7E
000296 7e00
000297 6300
000298 6180
000299 6180      	.DB  0x0,0x7E,0x0,0x63,0x80,0x61,0x80,0x61
00029a 6380
00029b 7f00
00029c 7e00
00029d 0000      	.DB  0x80,0x63,0x0,0x7F,0x0,0x7E,0x0,0x0
00029e 0000
00029f 0000
0002a0 0000
0002a1 1e00      	.DB  0x0,0x0,0x0,0x0,0x0,0x0,0x0,0x1E
0002a2 3f00
0002a3 3180
0002a4 6180
0002a5 6000      	.DB  0x0,0x3F,0x80,0x31,0x80,0x61,0x0,0x60
0002a6 6000
0002a7 6000
0002a8 6000
0002a9 6000      	.DB  0x0,0x60,0x0,0x60,0x0,0x60,0x0,0x60
0002aa 6000
0002ab 6180
0002ac 3180
0002ad 3f00      	.DB  0x0,0x60,0x80,0x61,0x80,0x31,0x0,0x3F
0002ae 1e00
0002af 0000
0002b0 0000
0002b1 0000      	.DB  0x0,0x1E,0x0,0x0,0x0,0x0,0x0,0x0
0002b2 0000
0002b3 7c00
0002b4 7f00
0002b5 6300      	.DB  0x0,0x0,0x0,0x7C,0x0,0x7F,0x0,0x63
0002b6 6380
0002b7 6180
0002b8 6180
0002b9 6180      	.DB  0x80,0x63,0x80,0x61,0x80,0x61,0x80,0x61
0002ba 6180
0002bb 6180
0002bc 6180
0002bd 6300      	.DB  0x80,0x61,0x80,0x61,0x80,0x61,0x0,0x63
0002be 6300
0002bf 7e00
0002c0 7c00
0002c1 0000      	.DB  0x0,0x63,0x0,0x7E,0x0,0x7C,0x0,0x0
0002c2 0000
0002c3 0000
0002c4 0000
0002c5 7f80      	.DB  0x0,0x0,0x0,0x0,0x0,0x0,0x80,0x7F
0002c6 7f80
0002c7 6000
0002c8 6000
0002c9 6000      	.DB  0x80,0x7F,0x0,0x60,0x0,0x60,0x0,0x60
0002ca 6000
0002cb 7f00
0002cc 7f00
0002cd 6000      	.DB  0x0,0x60,0x0,0x7F,0x0,0x7F,0x0,0x60
0002ce 6000
0002cf 6000
0002d0 6000
0002d1 7f80      	.DB  0x0,0x60,0x0,0x60,0x0,0x60,0x80,0x7F
0002d2 7f80
0002d3 0000
0002d4 0000
0002d5 0000      	.DB  0x80,0x7F,0x0,0x0,0x0,0x0,0x0,0x0
0002d6 0000
0002d7 7f80
0002d8 7f80
0002d9 6000      	.DB  0x0,0x0,0x80,0x7F,0x80,0x7F,0x0,0x60
0002da 6000
0002db 6000
0002dc 6000
0002dd 7f00      	.DB  0x0,0x60,0x0,0x60,0x0,0x60,0x0,0x7F
0002de 7f00
0002df 6000
0002e0 6000
0002e1 6000      	.DB  0x0,0x7F,0x0,0x60,0x0,0x60,0x0,0x60
0002e2 6000
0002e3 6000
0002e4 6000
0002e5 0000      	.DB  0x0,0x60,0x0,0x60,0x0,0x60,0x0,0x0
0002e6 0000
0002e7 0000
0002e8 0000
0002e9 1e00      	.DB  0x0,0x0,0x0,0x0,0x0,0x0,0x0,0x1E
0002ea 3f00
0002eb 3180
0002ec 6180
0002ed 6000      	.DB  0x0,0x3F,0x80,0x31,0x80,0x61,0x0,0x60
0002ee 6000
0002ef 6000
0002f0 6380
0002f1 6380      	.DB  0x0,0x60,0x0,0x60,0x80,0x63,0x80,0x63
0002f2 6180
0002f3 6180
0002f4 3180
0002f5 3f80      	.DB  0x80,0x61,0x80,0x61,0x80,0x31,0x80,0x3F
0002f6 1e00
0002f7 0000
0002f8 0000
0002f9 0000      	.DB  0x0,0x1E,0x0,0x0,0x0,0x0,0x0,0x0
0002fa 0000
0002fb 6180
0002fc 6180
0002fd 6180      	.DB  0x0,0x0,0x80,0x61,0x80,0x61,0x80,0x61
0002fe 6180
0002ff 6180
000300 6180
000301 7f80      	.DB  0x80,0x61,0x80,0x61,0x80,0x61,0x80,0x7F
000302 7f80
000303 6180
000304 6180
000305 6180      	.DB  0x80,0x7F,0x80,0x61,0x80,0x61,0x80,0x61
000306 6180
000307 6180
000308 6180
000309 0000      	.DB  0x80,0x61,0x80,0x61,0x80,0x61,0x0,0x0
00030a 0000
00030b 0000
00030c 0000
00030d 3f00      	.DB  0x0,0x0,0x0,0x0,0x0,0x0,0x0,0x3F
00030e 3f00
00030f 0c00
000310 0c00
000311 0c00      	.DB  0x0,0x3F,0x0,0xC,0x0,0xC,0x0,0xC
000312 0c00
000313 0c00
000314 0c00
000315 0c00      	.DB  0x0,0xC,0x0,0xC,0x0,0xC,0x0,0xC
000316 0c00
000317 0c00
000318 0c00
000319 3f00      	.DB  0x0,0xC,0x0,0xC,0x0,0xC,0x0,0x3F
00031a 3f00
00031b 0000
00031c 0000
00031d 0000      	.DB  0x0,0x3F,0x0,0x0,0x0,0x0,0x0,0x0
00031e 0000
00031f 0180
000320 0180
000321 0180      	.DB  0x0,0x0,0x80,0x1,0x80,0x1,0x80,0x1
000322 0180
000323 0180
000324 0180
000325 0180      	.DB  0x80,0x1,0x80,0x1,0x80,0x1,0x80,0x1
000326 0180
000327 0180
000328 6180
000329 6180      	.DB  0x80,0x1,0x80,0x1,0x80,0x61,0x80,0x61
00032a 7380
00032b 3f00
00032c 1e00
00032d 0000      	.DB  0x80,0x73,0x0,0x3F,0x0,0x1E,0x0,0x0
00032e 0000
00032f 0000
000330 0000
000331 60c0      	.DB  0x0,0x0,0x0,0x0,0x0,0x0,0xC0,0x60
000332 6180
000333 6300
000334 6600
000335 6600      	.DB  0x80,0x61,0x0,0x63,0x0,0x66,0x0,0x66
000336 6c00
000337 7800
000338 7c00
000339 6600      	.DB  0x0,0x6C,0x0,0x78,0x0,0x7C,0x0,0x66
00033a 6600
00033b 6300
00033c 6180
00033d 6180      	.DB  0x0,0x66,0x0,0x63,0x80,0x61,0x80,0x61
00033e 60c0
00033f 0000
000340 0000
000341 0000      	.DB  0xC0,0x60,0x0,0x0,0x0,0x0,0x0,0x0
000342 0000
000343 6000
000344 6000
000345 6000      	.DB  0x0,0x0,0x0,0x60,0x0,0x60,0x0,0x60
000346 6000
000347 6000
000348 6000
000349 6000      	.DB  0x0,0x60,0x0,0x60,0x0,0x60,0x0,0x60
00034a 6000
00034b 6000
00034c 6000
00034d 6000      	.DB  0x0,0x60,0x0,0x60,0x0,0x60,0x0,0x60
00034e 6000
00034f 7f80
000350 7f80
000351 0000      	.DB  0x0,0x60,0x80,0x7F,0x80,0x7F,0x0,0x0
000352 0000
000353 0000
000354 0000
000355 71c0      	.DB  0x0,0x0,0x0,0x0,0x0,0x0,0xC0,0x71
000356 71c0
000357 7bc0
000358 7ac0
000359 6ac0      	.DB  0xC0,0x71,0xC0,0x7B,0xC0,0x7A,0xC0,0x6A
00035a 6ac0
00035b 6ec0
00035c 64c0
00035d 60c0      	.DB  0xC0,0x6A,0xC0,0x6E,0xC0,0x64,0xC0,0x60
00035e 60c0
00035f 60c0
000360 60c0
000361 60c0      	.DB  0xC0,0x60,0xC0,0x60,0xC0,0x60,0xC0,0x60
000362 60c0
000363 0000
000364 0000
000365 0000      	.DB  0xC0,0x60,0x0,0x0,0x0,0x0,0x0,0x0
000366 0000
000367 7180
000368 7180
000369 7980      	.DB  0x0,0x0,0x80,0x71,0x80,0x71,0x80,0x79
00036a 7980
00036b 7980
00036c 6d80
00036d 6d80      	.DB  0x80,0x79,0x80,0x79,0x80,0x6D,0x80,0x6D
00036e 6d80
00036f 6580
000370 6780
000371 6780      	.DB  0x80,0x6D,0x80,0x65,0x80,0x67,0x80,0x67
000372 6780
000373 6380
000374 6380
000375 0000      	.DB  0x80,0x67,0x80,0x63,0x80,0x63,0x0,0x0
000376 0000
000377 0000
000378 0000
000379 1e00      	.DB  0x0,0x0,0x0,0x0,0x0,0x0,0x0,0x1E
00037a 3f00
00037b 3300
00037c 6180
00037d 6180      	.DB  0x0,0x3F,0x0,0x33,0x80,0x61,0x80,0x61
00037e 6180
00037f 6180
000380 6180
000381 6180      	.DB  0x80,0x61,0x80,0x61,0x80,0x61,0x80,0x61
000382 6180
000383 6180
000384 3300
000385 3f00      	.DB  0x80,0x61,0x80,0x61,0x0,0x33,0x0,0x3F
000386 1e00
000387 0000
000388 0000
000389 0000      	.DB  0x0,0x1E,0x0,0x0,0x0,0x0,0x0,0x0
00038a 0000
00038b 7e00
00038c 7f00
00038d 6380      	.DB  0x0,0x0,0x0,0x7E,0x0,0x7F,0x80,0x63
00038e 6180
00038f 6180
000390 6180
000391 6380      	.DB  0x80,0x61,0x80,0x61,0x80,0x61,0x80,0x63
000392 7f00
000393 7e00
000394 6000
000395 6000      	.DB  0x0,0x7F,0x0,0x7E,0x0,0x60,0x0,0x60
000396 6000
000397 6000
000398 6000
000399 0000      	.DB  0x0,0x60,0x0,0x60,0x0,0x60,0x0,0x0
00039a 0000
00039b 0000
00039c 0000
00039d 1e00      	.DB  0x0,0x0,0x0,0x0,0x0,0x0,0x0,0x1E
00039e 3f00
00039f 3300
0003a0 6180
0003a1 6180      	.DB  0x0,0x3F,0x0,0x33,0x80,0x61,0x80,0x61
0003a2 6180
0003a3 6180
0003a4 6180
0003a5 6180      	.DB  0x80,0x61,0x80,0x61,0x80,0x61,0x80,0x61
0003a6 6580
0003a7 6780
0003a8 3300
0003a9 3f80      	.DB  0x80,0x65,0x80,0x67,0x0,0x33,0x80,0x3F
0003aa 1e40
0003ab 0000
0003ac 0000
0003ad 0000      	.DB  0x40,0x1E,0x0,0x0,0x0,0x0,0x0,0x0
0003ae 0000
0003af 7e00
0003b0 7f00
0003b1 6380      	.DB  0x0,0x0,0x0,0x7E,0x0,0x7F,0x80,0x63
0003b2 6180
0003b3 6180
0003b4 6380
0003b5 7f00      	.DB  0x80,0x61,0x80,0x61,0x80,0x63,0x0,0x7F
0003b6 7e00
0003b7 6600
0003b8 6300
0003b9 6300      	.DB  0x0,0x7E,0x0,0x66,0x0,0x63,0x0,0x63
0003ba 6180
0003bb 6180
0003bc 60c0
0003bd 0000      	.DB  0x80,0x61,0x80,0x61,0xC0,0x60,0x0,0x0
0003be 0000
0003bf 0000
0003c0 0000
0003c1 0e00      	.DB  0x0,0x0,0x0,0x0,0x0,0x0,0x0,0xE
0003c2 1f00
0003c3 3180
0003c4 3180
0003c5 3000      	.DB  0x0,0x1F,0x80,0x31,0x80,0x31,0x0,0x30
0003c6 3800
0003c7 1e00
0003c8 0700
0003c9 0380      	.DB  0x0,0x38,0x0,0x1E,0x0,0x7,0x80,0x3
0003ca 6180
0003cb 6180
0003cc 3180
0003cd 3f00      	.DB  0x80,0x61,0x80,0x61,0x80,0x31,0x0,0x3F
0003ce 1e00
0003cf 0000
0003d0 0000
0003d1 0000      	.DB  0x0,0x1E,0x0,0x0,0x0,0x0,0x0,0x0
0003d2 0000
0003d3 ffc0
0003d4 ffc0
0003d5 0c00      	.DB  0x0,0x0,0xC0,0xFF,0xC0,0xFF,0x0,0xC
0003d6 0c00
0003d7 0c00
0003d8 0c00
0003d9 0c00      	.DB  0x0,0xC,0x0,0xC,0x0,0xC,0x0,0xC
0003da 0c00
0003db 0c00
0003dc 0c00
0003dd 0c00      	.DB  0x0,0xC,0x0,0xC,0x0,0xC,0x0,0xC
0003de 0c00
0003df 0c00
0003e0 0c00
0003e1 0000      	.DB  0x0,0xC,0x0,0xC,0x0,0xC,0x0,0x0
0003e2 0000
0003e3 0000
0003e4 0000
0003e5 6180      	.DB  0x0,0x0,0x0,0x0,0x0,0x0,0x80,0x61
0003e6 6180
0003e7 6180
0003e8 6180
0003e9 6180      	.DB  0x80,0x61,0x80,0x61,0x80,0x61,0x80,0x61
0003ea 6180
0003eb 6180
0003ec 6180
0003ed 6180      	.DB  0x80,0x61,0x80,0x61,0x80,0x61,0x80,0x61
0003ee 6180
0003ef 6180
0003f0 7380
0003f1 3f00      	.DB  0x80,0x61,0x80,0x61,0x80,0x73,0x0,0x3F
0003f2 1e00
0003f3 0000
0003f4 0000
0003f5 0000      	.DB  0x0,0x1E,0x0,0x0,0x0,0x0,0x0,0x0
0003f6 0000
0003f7 60c0
0003f8 60c0
0003f9 60c0      	.DB  0x0,0x0,0xC0,0x60,0xC0,0x60,0xC0,0x60
0003fa 3180
0003fb 3180
0003fc 3180
0003fd 1b00      	.DB  0x80,0x31,0x80,0x31,0x80,0x31,0x0,0x1B
0003fe 1b00
0003ff 1b00
000400 1b00
000401 0e00      	.DB  0x0,0x1B,0x0,0x1B,0x0,0x1B,0x0,0xE
000402 0e00
000403 0e00
000404 0400
000405 0000      	.DB  0x0,0xE,0x0,0xE,0x0,0x4,0x0,0x0
000406 0000
000407 0000
000408 0000
000409 c0c0      	.DB  0x0,0x0,0x0,0x0,0x0,0x0,0xC0,0xC0
00040a c0c0
00040b c0c0
00040c c0c0
00040d c0c0      	.DB  0xC0,0xC0,0xC0,0xC0,0xC0,0xC0,0xC0,0xC0
00040e ccc0
00040f 4c80
000410 4c80
000411 5e80      	.DB  0xC0,0xCC,0x80,0x4C,0x80,0x4C,0x80,0x5E
000412 5280
000413 5280
000414 7380
000415 6180      	.DB  0x80,0x52,0x80,0x52,0x80,0x73,0x80,0x61
000416 6180
000417 0000
000418 0000
000419 0000      	.DB  0x80,0x61,0x0,0x0,0x0,0x0,0x0,0x0
00041a 0000
00041b c0c0
00041c 6080
00041d 6180      	.DB  0x0,0x0,0xC0,0xC0,0x80,0x60,0x80,0x61
00041e 3300
00041f 3b00
000420 1e00
000421 0c00      	.DB  0x0,0x33,0x0,0x3B,0x0,0x1E,0x0,0xC
000422 0c00
000423 1e00
000424 1f00
000425 3b00      	.DB  0x0,0xC,0x0,0x1E,0x0,0x1F,0x0,0x3B
000426 7180
000427 6180
000428 c0c0
000429 0000      	.DB  0x80,0x71,0x80,0x61,0xC0,0xC0,0x0,0x0
00042a 0000
00042b 0000
00042c 0000
00042d c0c0      	.DB  0x0,0x0,0x0,0x0,0x0,0x0,0xC0,0xC0
00042e 6180
00042f 6180
000430 3300
000431 3300      	.DB  0x80,0x61,0x80,0x61,0x0,0x33,0x0,0x33
000432 1e00
000433 1e00
000434 0c00
000435 0c00      	.DB  0x0,0x1E,0x0,0x1E,0x0,0xC,0x0,0xC
000436 0c00
000437 0c00
000438 0c00
000439 0c00      	.DB  0x0,0xC,0x0,0xC,0x0,0xC,0x0,0xC
00043a 0c00
00043b 0000
00043c 0000
00043d 0000      	.DB  0x0,0xC,0x0,0x0,0x0,0x0,0x0,0x0
00043e 0000
00043f 3f80
000440 3f80
000441 0180      	.DB  0x0,0x0,0x80,0x3F,0x80,0x3F,0x80,0x1
000442 0300
000443 0300
000444 0600
000445 0c00      	.DB  0x0,0x3,0x0,0x3,0x0,0x6,0x0,0xC
000446 0c00
000447 1800
000448 1800
000449 3000      	.DB  0x0,0xC,0x0,0x18,0x0,0x18,0x0,0x30
00044a 6000
00044b 7f80
00044c 7f80
00044d 0000      	.DB  0x0,0x60,0x80,0x7F,0x80,0x7F,0x0,0x0
00044e 0000
00044f 0000
000450 0f00
000451 0f00      	.DB  0x0,0x0,0x0,0x0,0x0,0xF,0x0,0xF
000452 0c00
000453 0c00
000454 0c00
000455 0c00      	.DB  0x0,0xC,0x0,0xC,0x0,0xC,0x0,0xC
000456 0c00
000457 0c00
000458 0c00
000459 0c00      	.DB  0x0,0xC,0x0,0xC,0x0,0xC,0x0,0xC
00045a 0c00
00045b 0c00
00045c 0c00
00045d 0c00      	.DB  0x0,0xC,0x0,0xC,0x0,0xC,0x0,0xC
00045e 0c00
00045f 0c00
000460 0f00
000461 0f00      	.DB  0x0,0xC,0x0,0xC,0x0,0xF,0x0,0xF
000462 0000
000463 1800
000464 1800
000465 1800      	.DB  0x0,0x0,0x0,0x18,0x0,0x18,0x0,0x18
000466 0c00
000467 0c00
000468 0c00
000469 0c00      	.DB  0x0,0xC,0x0,0xC,0x0,0xC,0x0,0xC
00046a 0600
00046b 0600
00046c 0600
00046d 0600      	.DB  0x0,0x6,0x0,0x6,0x0,0x6,0x0,0x6
00046e 0300
00046f 0300
000470 0300
000471 0000      	.DB  0x0,0x3,0x0,0x3,0x0,0x3,0x0,0x0
000472 0000
000473 0000
000474 1e00
000475 1e00      	.DB  0x0,0x0,0x0,0x0,0x0,0x1E,0x0,0x1E
000476 0600
000477 0600
000478 0600
000479 0600      	.DB  0x0,0x6,0x0,0x6,0x0,0x6,0x0,0x6
00047a 0600
00047b 0600
00047c 0600
00047d 0600      	.DB  0x0,0x6,0x0,0x6,0x0,0x6,0x0,0x6
00047e 0600
00047f 0600
000480 0600
000481 0600      	.DB  0x0,0x6,0x0,0x6,0x0,0x6,0x0,0x6
000482 0600
000483 0600
000484 1e00
000485 1e00      	.DB  0x0,0x6,0x0,0x6,0x0,0x1E,0x0,0x1E
000486 0000
000487 0c00
000488 0c00
000489 1e00      	.DB  0x0,0x0,0x0,0xC,0x0,0xC,0x0,0x1E
00048a 1200
00048b 3300
00048c 3300
00048d 6180      	.DB  0x0,0x12,0x0,0x33,0x0,0x33,0x80,0x61
00048e 6180
00048f 0000
000490 0000
000491 0000      	.DB  0x80,0x61,0x0,0x0,0x0,0x0,0x0,0x0
000492 0000
000493 0000
000494 0000
000495 0000      	.DB  0x0,0x0,0x0,0x0,0x0,0x0,0x0,0x0
000496 0000
000497 0000
000498 0000
000499 0000      	.DB  0x0,0x0,0x0,0x0,0x0,0x0,0x0,0x0
00049a 0000
00049b 0000
00049c 0000
00049d 0000      	.DB  0x0,0x0,0x0,0x0,0x0,0x0,0x0,0x0
00049e 0000
00049f 0000
0004a0 0000
0004a1 0000      	.DB  0x0,0x0,0x0,0x0,0x0,0x0,0x0,0x0
0004a2 0000
0004a3 0000
0004a4 0000
0004a5 0000      	.DB  0x0,0x0,0x0,0x0,0x0,0x0,0x0,0x0
0004a6 0000
0004a7 0000
0004a8 ffe0
0004a9 0000      	.DB  0x0,0x0,0x0,0x0,0xE0,0xFF,0x0,0x0
0004aa 0000
0004ab 3800
0004ac 1800
0004ad 0c00      	.DB  0x0,0x0,0x0,0x38,0x0,0x18,0x0,0xC
0004ae 0000
0004af 0000
0004b0 0000
0004b1 0000      	.DB  0x0,0x0,0x0,0x0,0x0,0x0,0x0,0x0
0004b2 0000
0004b3 0000
0004b4 0000
0004b5 0000      	.DB  0x0,0x0,0x0,0x0,0x0,0x0,0x0,0x0
0004b6 0000
0004b7 0000
0004b8 0000
0004b9 0000      	.DB  0x0,0x0,0x0,0x0,0x0,0x0,0x0,0x0
0004ba 0000
0004bb 0000
0004bc 0000
0004bd 0000      	.DB  0x0,0x0,0x0,0x0,0x0,0x0,0x0,0x0
0004be 0000
0004bf 0000
0004c0 0000
0004c1 1f00      	.DB  0x0,0x0,0x0,0x0,0x0,0x0,0x0,0x1F
0004c2 3f80
0004c3 6180
0004c4 0180
0004c5 1f80      	.DB  0x80,0x3F,0x80,0x61,0x80,0x1,0x80,0x1F
0004c6 3f80
0004c7 6180
0004c8 6380
0004c9 7f80      	.DB  0x80,0x3F,0x80,0x61,0x80,0x63,0x80,0x7F
0004ca 38c0
0004cb 0000
0004cc 0000
0004cd 0000      	.DB  0xC0,0x38,0x0,0x0,0x0,0x0,0x0,0x0
0004ce 0000
0004cf 6000
0004d0 6000
0004d1 6000      	.DB  0x0,0x0,0x0,0x60,0x0,0x60,0x0,0x60
0004d2 6000
0004d3 6e00
0004d4 7f00
0004d5 7380      	.DB  0x0,0x60,0x0,0x6E,0x0,0x7F,0x80,0x73
0004d6 6180
0004d7 6180
0004d8 6180
0004d9 6180      	.DB  0x80,0x61,0x80,0x61,0x80,0x61,0x80,0x61
0004da 7380
0004db 7f00
0004dc 6e00
0004dd 0000      	.DB  0x80,0x73,0x0,0x7F,0x0,0x6E,0x0,0x0
0004de 0000
0004df 0000
0004e0 0000
0004e1 0000      	.DB  0x0,0x0,0x0,0x0,0x0,0x0,0x0,0x0
0004e2 0000
0004e3 0000
0004e4 0000
0004e5 1e00      	.DB  0x0,0x0,0x0,0x0,0x0,0x0,0x0,0x1E
0004e6 3f00
0004e7 7380
0004e8 6180
0004e9 6000      	.DB  0x0,0x3F,0x80,0x73,0x80,0x61,0x0,0x60
0004ea 6000
0004eb 6180
0004ec 7380
0004ed 3f00      	.DB  0x0,0x60,0x80,0x61,0x80,0x73,0x0,0x3F
0004ee 1e00
0004ef 0000
0004f0 0000
0004f1 0000      	.DB  0x0,0x1E,0x0,0x0,0x0,0x0,0x0,0x0
0004f2 0000
0004f3 0180
0004f4 0180
0004f5 0180      	.DB  0x0,0x0,0x80,0x1,0x80,0x1,0x80,0x1
0004f6 0180
0004f7 1d80
0004f8 3f80
0004f9 7380      	.DB  0x80,0x1,0x80,0x1D,0x80,0x3F,0x80,0x73
0004fa 6180
0004fb 6180
0004fc 6180
0004fd 6180      	.DB  0x80,0x61,0x80,0x61,0x80,0x61,0x80,0x61
0004fe 7380
0004ff 3f80
000500 1d80
000501 0000      	.DB  0x80,0x73,0x80,0x3F,0x80,0x1D,0x0,0x0
000502 0000
000503 0000
000504 0000
000505 0000      	.DB  0x0,0x0,0x0,0x0,0x0,0x0,0x0,0x0
000506 0000
000507 0000
000508 0000
000509 1e00      	.DB  0x0,0x0,0x0,0x0,0x0,0x0,0x0,0x1E
00050a 3f00
00050b 7300
00050c 6180
00050d 7f80      	.DB  0x0,0x3F,0x0,0x73,0x80,0x61,0x80,0x7F
00050e 7f80
00050f 6000
000510 7180
000511 3f00      	.DB  0x80,0x7F,0x0,0x60,0x80,0x71,0x0,0x3F
000512 1e00
000513 0000
000514 0000
000515 0000      	.DB  0x0,0x1E,0x0,0x0,0x0,0x0,0x0,0x0
000516 0000
000517 07c0
000518 0fc0
000519 0c00      	.DB  0x0,0x0,0xC0,0x7,0xC0,0xF,0x0,0xC
00051a 0c00
00051b 7f80
00051c 7f80
00051d 0c00      	.DB  0x0,0xC,0x80,0x7F,0x80,0x7F,0x0,0xC
00051e 0c00
00051f 0c00
000520 0c00
000521 0c00      	.DB  0x0,0xC,0x0,0xC,0x0,0xC,0x0,0xC
000522 0c00
000523 0c00
000524 0c00
000525 0000      	.DB  0x0,0xC,0x0,0xC,0x0,0xC,0x0,0x0
000526 0000
000527 0000
000528 0000
000529 0000      	.DB  0x0,0x0,0x0,0x0,0x0,0x0,0x0,0x0
00052a 0000
00052b 0000
00052c 1d80
00052d 3f80      	.DB  0x0,0x0,0x0,0x0,0x80,0x1D,0x80,0x3F
00052e 7380
00052f 6180
000530 6180
000531 6180      	.DB  0x80,0x73,0x80,0x61,0x80,0x61,0x80,0x61
000532 6180
000533 7380
000534 3f80
000535 1d80      	.DB  0x80,0x61,0x80,0x73,0x80,0x3F,0x80,0x1D
000536 0180
000537 6380
000538 7f00
000539 3e00      	.DB  0x80,0x1,0x80,0x63,0x0,0x7F,0x0,0x3E
00053a 0000
00053b 6000
00053c 6000
00053d 6000      	.DB  0x0,0x0,0x0,0x60,0x0,0x60,0x0,0x60
00053e 6000
00053f 6f00
000540 7f80
000541 7180      	.DB  0x0,0x60,0x0,0x6F,0x80,0x7F,0x80,0x71
000542 6180
000543 6180
000544 6180
000545 6180      	.DB  0x80,0x61,0x80,0x61,0x80,0x61,0x80,0x61
000546 6180
000547 6180
000548 6180
000549 0000      	.DB  0x80,0x61,0x80,0x61,0x80,0x61,0x0,0x0
00054a 0000
00054b 0000
00054c 0000
00054d 0600      	.DB  0x0,0x0,0x0,0x0,0x0,0x0,0x0,0x6
00054e 0600
00054f 0000
000550 0000
000551 3e00      	.DB  0x0,0x6,0x0,0x0,0x0,0x0,0x0,0x3E
000552 3e00
000553 0600
000554 0600
000555 0600      	.DB  0x0,0x3E,0x0,0x6,0x0,0x6,0x0,0x6
000556 0600
000557 0600
000558 0600
000559 0600      	.DB  0x0,0x6,0x0,0x6,0x0,0x6,0x0,0x6
00055a 0600
00055b 0000
00055c 0000
00055d 0000      	.DB  0x0,0x6,0x0,0x0,0x0,0x0,0x0,0x0
00055e 0600
00055f 0600
000560 0000
000561 0000      	.DB  0x0,0x6,0x0,0x6,0x0,0x0,0x0,0x0
000562 3e00
000563 3e00
000564 0600
000565 0600      	.DB  0x0,0x3E,0x0,0x3E,0x0,0x6,0x0,0x6
000566 0600
000567 0600
000568 0600
000569 0600      	.DB  0x0,0x6,0x0,0x6,0x0,0x6,0x0,0x6
00056a 0600
00056b 0600
00056c 0600
00056d 4600      	.DB  0x0,0x6,0x0,0x6,0x0,0x6,0x0,0x46
00056e 7e00
00056f 3c00
000570 0000
000571 6000      	.DB  0x0,0x7E,0x0,0x3C,0x0,0x0,0x0,0x60
000572 6000
000573 6000
000574 6000
000575 6180      	.DB  0x0,0x60,0x0,0x60,0x0,0x60,0x80,0x61
000576 6300
000577 6600
000578 6c00
000579 7c00      	.DB  0x0,0x63,0x0,0x66,0x0,0x6C,0x0,0x7C
00057a 7600
00057b 6300
00057c 6300
00057d 6180      	.DB  0x0,0x76,0x0,0x63,0x0,0x63,0x80,0x61
00057e 60c0
00057f 0000
000580 0000
000581 0000      	.DB  0xC0,0x60,0x0,0x0,0x0,0x0,0x0,0x0
000582 0000
000583 3e00
000584 3e00
000585 0600      	.DB  0x0,0x0,0x0,0x3E,0x0,0x3E,0x0,0x6
000586 0600
000587 0600
000588 0600
000589 0600      	.DB  0x0,0x6,0x0,0x6,0x0,0x6,0x0,0x6
00058a 0600
00058b 0600
00058c 0600
00058d 0600      	.DB  0x0,0x6,0x0,0x6,0x0,0x6,0x0,0x6
00058e 0600
00058f 0600
000590 0600
000591 0000      	.DB  0x0,0x6,0x0,0x6,0x0,0x6,0x0,0x0
000592 0000
000593 0000
000594 0000
000595 0000      	.DB  0x0,0x0,0x0,0x0,0x0,0x0,0x0,0x0
000596 0000
000597 0000
000598 0000
000599 dd80      	.DB  0x0,0x0,0x0,0x0,0x0,0x0,0x80,0xDD
00059a ffc0
00059b cec0
00059c ccc0
00059d ccc0      	.DB  0xC0,0xFF,0xC0,0xCE,0xC0,0xCC,0xC0,0xCC
00059e ccc0
00059f ccc0
0005a0 ccc0
0005a1 ccc0      	.DB  0xC0,0xCC,0xC0,0xCC,0xC0,0xCC,0xC0,0xCC
0005a2 ccc0
0005a3 0000
0005a4 0000
0005a5 0000      	.DB  0xC0,0xCC,0x0,0x0,0x0,0x0,0x0,0x0
0005a6 0000
0005a7 0000
0005a8 0000
0005a9 0000      	.DB  0x0,0x0,0x0,0x0,0x0,0x0,0x0,0x0
0005aa 0000
0005ab 6f00
0005ac 7f80
0005ad 7180      	.DB  0x0,0x0,0x0,0x6F,0x80,0x7F,0x80,0x71
0005ae 6180
0005af 6180
0005b0 6180
0005b1 6180      	.DB  0x80,0x61,0x80,0x61,0x80,0x61,0x80,0x61
0005b2 6180
0005b3 6180
0005b4 6180
0005b5 0000      	.DB  0x80,0x61,0x80,0x61,0x80,0x61,0x0,0x0
0005b6 0000
0005b7 0000
0005b8 0000
0005b9 0000      	.DB  0x0,0x0,0x0,0x0,0x0,0x0,0x0,0x0
0005ba 0000
0005bb 0000
0005bc 0000
0005bd 1e00      	.DB  0x0,0x0,0x0,0x0,0x0,0x0,0x0,0x1E
0005be 3f00
0005bf 7380
0005c0 6180
0005c1 6180      	.DB  0x0,0x3F,0x80,0x73,0x80,0x61,0x80,0x61
0005c2 6180
0005c3 6180
0005c4 7380
0005c5 3f00      	.DB  0x80,0x61,0x80,0x61,0x80,0x73,0x0,0x3F
0005c6 1e00
0005c7 0000
0005c8 0000
0005c9 0000      	.DB  0x0,0x1E,0x0,0x0,0x0,0x0,0x0,0x0
0005ca 0000
0005cb 0000
0005cc 0000
0005cd 0000      	.DB  0x0,0x0,0x0,0x0,0x0,0x0,0x0,0x0
0005ce 6e00
0005cf 7f00
0005d0 7380
0005d1 6180      	.DB  0x0,0x6E,0x0,0x7F,0x80,0x73,0x80,0x61
0005d2 6180
0005d3 6180
0005d4 6180
0005d5 7380      	.DB  0x80,0x61,0x80,0x61,0x80,0x61,0x80,0x73
0005d6 7f00
0005d7 6e00
0005d8 6000
0005d9 6000      	.DB  0x0,0x7F,0x0,0x6E,0x0,0x60,0x0,0x60
0005da 6000
0005db 6000
0005dc 0000
0005dd 0000      	.DB  0x0,0x60,0x0,0x60,0x0,0x0,0x0,0x0
0005de 0000
0005df 0000
0005e0 1d80
0005e1 3f80      	.DB  0x0,0x0,0x0,0x0,0x80,0x1D,0x80,0x3F
0005e2 7380
0005e3 6180
0005e4 6180
0005e5 6180      	.DB  0x80,0x73,0x80,0x61,0x80,0x61,0x80,0x61
0005e6 6180
0005e7 7380
0005e8 3f80
0005e9 1d80      	.DB  0x80,0x61,0x80,0x73,0x80,0x3F,0x80,0x1D
0005ea 0180
0005eb 0180
0005ec 0180
0005ed 0180      	.DB  0x80,0x1,0x80,0x1,0x80,0x1,0x80,0x1
0005ee 0000
0005ef 0000
0005f0 0000
0005f1 0000      	.DB  0x0,0x0,0x0,0x0,0x0,0x0,0x0,0x0
0005f2 0000
0005f3 6700
0005f4 3f80
0005f5 3900      	.DB  0x0,0x0,0x0,0x67,0x80,0x3F,0x0,0x39
0005f6 3000
0005f7 3000
0005f8 3000
0005f9 3000      	.DB  0x0,0x30,0x0,0x30,0x0,0x30,0x0,0x30
0005fa 3000
0005fb 3000
0005fc 3000
0005fd 0000      	.DB  0x0,0x30,0x0,0x30,0x0,0x30,0x0,0x0
0005fe 0000
0005ff 0000
000600 0000
000601 0000      	.DB  0x0,0x0,0x0,0x0,0x0,0x0,0x0,0x0
000602 0000
000603 0000
000604 0000
000605 1e00      	.DB  0x0,0x0,0x0,0x0,0x0,0x0,0x0,0x1E
000606 3f80
000607 6180
000608 6000
000609 7f00      	.DB  0x80,0x3F,0x80,0x61,0x0,0x60,0x0,0x7F
00060a 3f80
00060b 0180
00060c 6180
00060d 7f00      	.DB  0x80,0x3F,0x80,0x1,0x80,0x61,0x0,0x7F
00060e 1e00
00060f 0000
000610 0000
000611 0000      	.DB  0x0,0x1E,0x0,0x0,0x0,0x0,0x0,0x0
000612 0000
000613 0000
000614 0800
000615 1800      	.DB  0x0,0x0,0x0,0x0,0x0,0x8,0x0,0x18
000616 1800
000617 7f00
000618 7f00
000619 1800      	.DB  0x0,0x18,0x0,0x7F,0x0,0x7F,0x0,0x18
00061a 1800
00061b 1800
00061c 1800
00061d 1800      	.DB  0x0,0x18,0x0,0x18,0x0,0x18,0x0,0x18
00061e 1800
00061f 1f80
000620 0f80
000621 0000      	.DB  0x0,0x18,0x80,0x1F,0x80,0xF,0x0,0x0
000622 0000
000623 0000
000624 0000
000625 0000      	.DB  0x0,0x0,0x0,0x0,0x0,0x0,0x0,0x0
000626 0000
000627 0000
000628 0000
000629 6180      	.DB  0x0,0x0,0x0,0x0,0x0,0x0,0x80,0x61
00062a 6180
00062b 6180
00062c 6180
00062d 6180      	.DB  0x80,0x61,0x80,0x61,0x80,0x61,0x80,0x61
00062e 6180
00062f 6180
000630 6380
000631 7f80      	.DB  0x80,0x61,0x80,0x61,0x80,0x63,0x80,0x7F
000632 3d80
000633 0000
000634 0000
000635 0000      	.DB  0x80,0x3D,0x0,0x0,0x0,0x0,0x0,0x0
000636 0000
000637 0000
000638 0000
000639 0000      	.DB  0x0,0x0,0x0,0x0,0x0,0x0,0x0,0x0
00063a 0000
00063b 60c0
00063c 3180
00063d 3180      	.DB  0x0,0x0,0xC0,0x60,0x80,0x31,0x80,0x31
00063e 3180
00063f 1b00
000640 1b00
000641 1b00      	.DB  0x80,0x31,0x0,0x1B,0x0,0x1B,0x0,0x1B
000642 0e00
000643 0e00
000644 0600
000645 0000      	.DB  0x0,0xE,0x0,0xE,0x0,0x6,0x0,0x0
000646 0000
000647 0000
000648 0000
000649 0000      	.DB  0x0,0x0,0x0,0x0,0x0,0x0,0x0,0x0
00064a 0000
00064b 0000
00064c 0000
00064d dd80      	.DB  0x0,0x0,0x0,0x0,0x0,0x0,0x80,0xDD
00064e dd80
00064f dd80
000650 5500
000651 5500      	.DB  0x80,0xDD,0x80,0xDD,0x0,0x55,0x0,0x55
000652 5500
000653 7700
000654 7700
000655 2200      	.DB  0x0,0x55,0x0,0x77,0x0,0x77,0x0,0x22
000656 2200
000657 0000
000658 0000
000659 0000      	.DB  0x0,0x22,0x0,0x0,0x0,0x0,0x0,0x0
00065a 0000
00065b 0000
00065c 0000
00065d 0000      	.DB  0x0,0x0,0x0,0x0,0x0,0x0,0x0,0x0
00065e 0000
00065f 6180
000660 3300
000661 3300      	.DB  0x0,0x0,0x80,0x61,0x0,0x33,0x0,0x33
000662 1e00
000663 0c00
000664 0c00
000665 1e00      	.DB  0x0,0x1E,0x0,0xC,0x0,0xC,0x0,0x1E
000666 3300
000667 3300
000668 6180
000669 0000      	.DB  0x0,0x33,0x0,0x33,0x80,0x61,0x0,0x0
00066a 0000
00066b 0000
00066c 0000
00066d 0000      	.DB  0x0,0x0,0x0,0x0,0x0,0x0,0x0,0x0
00066e 0000
00066f 0000
000670 6180
000671 6180      	.DB  0x0,0x0,0x0,0x0,0x80,0x61,0x80,0x61
000672 3180
000673 3300
000674 3300
000675 1b00      	.DB  0x80,0x31,0x0,0x33,0x0,0x33,0x0,0x1B
000676 1b00
000677 1b00
000678 0e00
000679 0e00      	.DB  0x0,0x1B,0x0,0x1B,0x0,0xE,0x0,0xE
00067a 0e00
00067b 1c00
00067c 7c00
00067d 7000      	.DB  0x0,0xE,0x0,0x1C,0x0,0x7C,0x0,0x70
00067e 0000
00067f 0000
000680 0000
000681 0000      	.DB  0x0,0x0,0x0,0x0,0x0,0x0,0x0,0x0
000682 0000
000683 7fc0
000684 7fc0
000685 0180      	.DB  0x0,0x0,0xC0,0x7F,0xC0,0x7F,0x80,0x1
000686 0300
000687 0600
000688 0c00
000689 1800      	.DB  0x0,0x3,0x0,0x6,0x0,0xC,0x0,0x18
00068a 3000
00068b 7fc0
00068c 7fc0
00068d 0000      	.DB  0x0,0x30,0xC0,0x7F,0xC0,0x7F,0x0,0x0
00068e 0000
00068f 0000
000690 0380
000691 0780      	.DB  0x0,0x0,0x0,0x0,0x80,0x3,0x80,0x7
000692 0600
000693 0600
000694 0600
000695 0600      	.DB  0x0,0x6,0x0,0x6,0x0,0x6,0x0,0x6
000696 0600
000697 0e00
000698 1c00
000699 1c00      	.DB  0x0,0x6,0x0,0xE,0x0,0x1C,0x0,0x1C
00069a 0e00
00069b 0600
00069c 0600
00069d 0600      	.DB  0x0,0xE,0x0,0x6,0x0,0x6,0x0,0x6
00069e 0600
00069f 0600
0006a0 0780
0006a1 0380      	.DB  0x0,0x6,0x0,0x6,0x80,0x7,0x80,0x3
0006a2 0600
0006a3 0600
0006a4 0600
0006a5 0600      	.DB  0x0,0x6,0x0,0x6,0x0,0x6,0x0,0x6
0006a6 0600
0006a7 0600
0006a8 0600
0006a9 0600      	.DB  0x0,0x6,0x0,0x6,0x0,0x6,0x0,0x6
0006aa 0600
0006ab 0600
0006ac 0600
0006ad 0600      	.DB  0x0,0x6,0x0,0x6,0x0,0x6,0x0,0x6
0006ae 0600
0006af 0600
0006b0 0600
0006b1 0600      	.DB  0x0,0x6,0x0,0x6,0x0,0x6,0x0,0x6
0006b2 0600
0006b3 0600
0006b4 3800
0006b5 3c00      	.DB  0x0,0x6,0x0,0x6,0x0,0x38,0x0,0x3C
0006b6 0c00
0006b7 0c00
0006b8 0c00
0006b9 0c00      	.DB  0x0,0xC,0x0,0xC,0x0,0xC,0x0,0xC
0006ba 0c00
0006bb 0e00
0006bc 0700
0006bd 0700      	.DB  0x0,0xC,0x0,0xE,0x0,0x7,0x0,0x7
0006be 0e00
0006bf 0c00
0006c0 0c00
0006c1 0c00      	.DB  0x0,0xE,0x0,0xC,0x0,0xC,0x0,0xC
0006c2 0c00
0006c3 0c00
0006c4 3c00
0006c5 3800      	.DB  0x0,0xC,0x0,0xC,0x0,0x3C,0x0,0x38
0006c6 0000
0006c7 0000
0006c8 0000
0006c9 0000      	.DB  0x0,0x0,0x0,0x0,0x0,0x0,0x0,0x0
0006ca 0000
0006cb 0000
0006cc 0000
0006cd 3880      	.DB  0x0,0x0,0x0,0x0,0x0,0x0,0x80,0x38
0006ce 7f80
0006cf 4700
0006d0 0000
0006d1 0000      	.DB  0x80,0x7F,0x0,0x47,0x0,0x0,0x0,0x0
0006d2 0000
0006d3 0000
0006d4 0000
0006d5 0000      	.DB  0x0,0x0,0x0,0x0,0x0,0x0,0x0,0x0
0006d6 0000
0006d7 0000
0006d8 0000
0006d9 0e00      	.DB  0x0,0x0,0x0,0x0,0x0,0x0,0x0,0xE
0006da 0e00
0006db 1b00
0006dc 1b00
0006dd 1b00      	.DB  0x0,0xE,0x0,0x1B,0x0,0x1B,0x0,0x1B
0006de 1b00
0006df 3180
0006e0 3180
0006e1 3f80      	.DB  0x0,0x1B,0x80,0x31,0x80,0x31,0x80,0x3F
0006e2 3f80
0006e3 3180
0006e4 60c0
0006e5 60c0      	.DB  0x80,0x3F,0x80,0x31,0xC0,0x60,0xC0,0x60
0006e6 60c0
0006e7 0000
0006e8 0000
0006e9 0000      	.DB  0xC0,0x60,0x0,0x0,0x0,0x0,0x0,0x0
0006ea 0000
0006eb 7f00
0006ec 7f00
0006ed 6000      	.DB  0x0,0x0,0x0,0x7F,0x0,0x7F,0x0,0x60
0006ee 6000
0006ef 6000
0006f0 6000
0006f1 7e00      	.DB  0x0,0x60,0x0,0x60,0x0,0x60,0x0,0x7E
0006f2 7e00
0006f3 6300
0006f4 6180
0006f5 6180      	.DB  0x0,0x7E,0x0,0x63,0x80,0x61,0x80,0x61
0006f6 6380
0006f7 7f00
0006f8 7c00
0006f9 0000      	.DB  0x80,0x63,0x0,0x7F,0x0,0x7C,0x0,0x0
0006fa 0000
0006fb 0000
0006fc 0000
0006fd 7c00      	.DB  0x0,0x0,0x0,0x0,0x0,0x0,0x0,0x7C
0006fe 7e00
0006ff 6300
000700 6300
000701 6300      	.DB  0x0,0x7E,0x0,0x63,0x0,0x63,0x0,0x63
000702 6300
000703 7e00
000704 7e00
000705 6300      	.DB  0x0,0x63,0x0,0x7E,0x0,0x7E,0x0,0x63
000706 6180
000707 6180
000708 6380
000709 7f00      	.DB  0x80,0x61,0x80,0x61,0x80,0x63,0x0,0x7F
00070a 7e00
00070b 0000
00070c 0000
00070d 0000      	.DB  0x0,0x7E,0x0,0x0,0x0,0x0,0x0,0x0
00070e 0000
00070f 7f00
000710 7f00
000711 6000      	.DB  0x0,0x0,0x0,0x7F,0x0,0x7F,0x0,0x60
000712 6000
000713 6000
000714 6000
000715 6000      	.DB  0x0,0x60,0x0,0x60,0x0,0x60,0x0,0x60
000716 6000
000717 6000
000718 6000
000719 6000      	.DB  0x0,0x60,0x0,0x60,0x0,0x60,0x0,0x60
00071a 6000
00071b 6000
00071c 6000
00071d 0000      	.DB  0x0,0x60,0x0,0x60,0x0,0x60,0x0,0x0
00071e 0000
00071f 0000
000720 0000
000721 3f80      	.DB  0x0,0x0,0x0,0x0,0x0,0x0,0x80,0x3F
000722 3f80
000723 3180
000724 3180
000725 3180      	.DB  0x80,0x3F,0x80,0x31,0x80,0x31,0x80,0x31
000726 3180
000727 3180
000728 3180
000729 3180      	.DB  0x80,0x31,0x80,0x31,0x80,0x31,0x80,0x31
00072a 3180
00072b 3180
00072c 3180
00072d ffe0      	.DB  0x80,0x31,0x80,0x31,0x80,0x31,0xE0,0xFF
00072e ffe0
00072f c060
000730 0000
000731 0000      	.DB  0xE0,0xFF,0x60,0xC0,0x0,0x0,0x0,0x0
000732 0000
000733 7f80
000734 7f80
000735 6000      	.DB  0x0,0x0,0x80,0x7F,0x80,0x7F,0x0,0x60
000736 6000
000737 6000
000738 6000
000739 7f00      	.DB  0x0,0x60,0x0,0x60,0x0,0x60,0x0,0x7F
00073a 7f00
00073b 6000
00073c 6000
00073d 6000      	.DB  0x0,0x7F,0x0,0x60,0x0,0x60,0x0,0x60
00073e 6000
00073f 7f80
000740 7f80
000741 0000      	.DB  0x0,0x60,0x80,0x7F,0x80,0x7F,0x0,0x0
000742 0000
000743 0000
000744 0000
000745 c460      	.DB  0x0,0x0,0x0,0x0,0x0,0x0,0x60,0xC4
000746 64c0
000747 64c0
000748 3580
000749 3580      	.DB  0xC0,0x64,0xC0,0x64,0x80,0x35,0x80,0x35
00074a 1f00
00074b 1f00
00074c 1f00
00074d 1f00      	.DB  0x0,0x1F,0x0,0x1F,0x0,0x1F,0x0,0x1F
00074e 3580
00074f 3580
000750 64c0
000751 64c0      	.DB  0x80,0x35,0x80,0x35,0xC0,0x64,0xC0,0x64
000752 c460
000753 0000
000754 0000
000755 0000      	.DB  0x60,0xC4,0x0,0x0,0x0,0x0,0x0,0x0
000756 0000
000757 3c00
000758 7e00
000759 0300      	.DB  0x0,0x0,0x0,0x3C,0x0,0x7E,0x0,0x3
00075a 0300
00075b 0300
00075c 0300
00075d 7e00      	.DB  0x0,0x3,0x0,0x3,0x0,0x3,0x0,0x7E
00075e 7e00
00075f 0300
000760 0180
000761 0180      	.DB  0x0,0x7E,0x0,0x3,0x80,0x1,0x80,0x1
000762 0380
000763 7f00
000764 3e00
000765 0000      	.DB  0x80,0x3,0x0,0x7F,0x0,0x3E,0x0,0x0
000766 0000
000767 0000
000768 0000
000769 6180      	.DB  0x0,0x0,0x0,0x0,0x0,0x0,0x80,0x61
00076a 6180
00076b 6180
00076c 6180
00076d 6380      	.DB  0x80,0x61,0x80,0x61,0x80,0x61,0x80,0x63
00076e 6780
00076f 6f80
000770 7d80
000771 7980      	.DB  0x80,0x67,0x80,0x6F,0x80,0x7D,0x80,0x79
000772 7180
000773 6180
000774 6180
000775 6180      	.DB  0x80,0x71,0x80,0x61,0x80,0x61,0x80,0x61
000776 6180
000777 0000
000778 0000
000779 0000      	.DB  0x80,0x61,0x0,0x0,0x0,0x0,0x0,0x0
00077a 0c00
00077b 6d80
00077c 6180
00077d 6180      	.DB  0x0,0xC,0x80,0x6D,0x80,0x61,0x80,0x61
00077e 6180
00077f 6380
000780 6780
000781 6f80      	.DB  0x80,0x61,0x80,0x63,0x80,0x67,0x80,0x6F
000782 7d80
000783 7980
000784 7180
000785 6180      	.DB  0x80,0x7D,0x80,0x79,0x80,0x71,0x80,0x61
000786 6180
000787 6180
000788 6180
000789 0000      	.DB  0x80,0x61,0x80,0x61,0x80,0x61,0x0,0x0
00078a 0000
00078b 0000
00078c 0000
00078d 60c0      	.DB  0x0,0x0,0x0,0x0,0x0,0x0,0xC0,0x60
00078e 6180
00078f 6300
000790 6600
000791 6600      	.DB  0x80,0x61,0x0,0x63,0x0,0x66,0x0,0x66
000792 6c00
000793 7800
000794 7c00
000795 6600      	.DB  0x0,0x6C,0x0,0x78,0x0,0x7C,0x0,0x66
000796 6600
000797 6300
000798 6180
000799 6180      	.DB  0x0,0x66,0x0,0x63,0x80,0x61,0x80,0x61
00079a 60c0
00079b 0000
00079c 0000
00079d 0000      	.DB  0xC0,0x60,0x0,0x0,0x0,0x0,0x0,0x0
00079e 0000
00079f 3fc0
0007a0 3fc0
0007a1 30c0      	.DB  0x0,0x0,0xC0,0x3F,0xC0,0x3F,0xC0,0x30
0007a2 30c0
0007a3 30c0
0007a4 30c0
0007a5 30c0      	.DB  0xC0,0x30,0xC0,0x30,0xC0,0x30,0xC0,0x30
0007a6 30c0
0007a7 30c0
0007a8 30c0
0007a9 30c0      	.DB  0xC0,0x30,0xC0,0x30,0xC0,0x30,0xC0,0x30
0007aa 30c0
0007ab f0c0
0007ac f0c0
0007ad 0000      	.DB  0xC0,0x30,0xC0,0xF0,0xC0,0xF0,0x0,0x0
0007ae 0000
0007af 0000
0007b0 0000
0007b1 71c0      	.DB  0x0,0x0,0x0,0x0,0x0,0x0,0xC0,0x71
0007b2 71c0
0007b3 7bc0
0007b4 7ac0
0007b5 6ac0      	.DB  0xC0,0x71,0xC0,0x7B,0xC0,0x7A,0xC0,0x6A
0007b6 6ac0
0007b7 6ec0
0007b8 64c0
0007b9 60c0      	.DB  0xC0,0x6A,0xC0,0x6E,0xC0,0x64,0xC0,0x60
0007ba 60c0
0007bb 60c0
0007bc 60c0
0007bd 60c0      	.DB  0xC0,0x60,0xC0,0x60,0xC0,0x60,0xC0,0x60
0007be 60c0
0007bf 0000
0007c0 0000
0007c1 0000      	.DB  0xC0,0x60,0x0,0x0,0x0,0x0,0x0,0x0
0007c2 0000
0007c3 6180
0007c4 6180
0007c5 6180      	.DB  0x0,0x0,0x80,0x61,0x80,0x61,0x80,0x61
0007c6 6180
0007c7 6180
0007c8 6180
0007c9 7f80      	.DB  0x80,0x61,0x80,0x61,0x80,0x61,0x80,0x7F
0007ca 7f80
0007cb 6180
0007cc 6180
0007cd 6180      	.DB  0x80,0x7F,0x80,0x61,0x80,0x61,0x80,0x61
0007ce 6180
0007cf 6180
0007d0 6180
0007d1 0000      	.DB  0x80,0x61,0x80,0x61,0x80,0x61,0x0,0x0
0007d2 0000
0007d3 0000
0007d4 0000
0007d5 1e00      	.DB  0x0,0x0,0x0,0x0,0x0,0x0,0x0,0x1E
0007d6 3f00
0007d7 3300
0007d8 6180
0007d9 6180      	.DB  0x0,0x3F,0x0,0x33,0x80,0x61,0x80,0x61
0007da 6180
0007db 6180
0007dc 6180
0007dd 6180      	.DB  0x80,0x61,0x80,0x61,0x80,0x61,0x80,0x61
0007de 6180
0007df 6180
0007e0 3300
0007e1 3f00      	.DB  0x80,0x61,0x80,0x61,0x0,0x33,0x0,0x3F
0007e2 1e00
0007e3 0000
0007e4 0000
0007e5 0000      	.DB  0x0,0x1E,0x0,0x0,0x0,0x0,0x0,0x0
0007e6 0000
0007e7 7fc0
0007e8 7fc0
0007e9 60c0      	.DB  0x0,0x0,0xC0,0x7F,0xC0,0x7F,0xC0,0x60
0007ea 60c0
0007eb 60c0
0007ec 60c0
0007ed 60c0      	.DB  0xC0,0x60,0xC0,0x60,0xC0,0x60,0xC0,0x60
0007ee 60c0
0007ef 60c0
0007f0 60c0
0007f1 60c0      	.DB  0xC0,0x60,0xC0,0x60,0xC0,0x60,0xC0,0x60
0007f2 60c0
0007f3 60c0
0007f4 60c0
0007f5 0000      	.DB  0xC0,0x60,0xC0,0x60,0xC0,0x60,0x0,0x0
0007f6 0000
0007f7 0000
0007f8 0000
0007f9 7e00      	.DB  0x0,0x0,0x0,0x0,0x0,0x0,0x0,0x7E
0007fa 7f00
0007fb 6380
0007fc 6180
0007fd 6180      	.DB  0x0,0x7F,0x80,0x63,0x80,0x61,0x80,0x61
0007fe 6180
0007ff 6380
000800 7f00
000801 7e00      	.DB  0x80,0x61,0x80,0x63,0x0,0x7F,0x0,0x7E
000802 6000
000803 6000
000804 6000
000805 6000      	.DB  0x0,0x60,0x0,0x60,0x0,0x60,0x0,0x60
000806 6000
000807 0000
000808 0000
000809 0000      	.DB  0x0,0x60,0x0,0x0,0x0,0x0,0x0,0x0
00080a 0000
00080b 1e00
00080c 3f00
00080d 3180      	.DB  0x0,0x0,0x0,0x1E,0x0,0x3F,0x80,0x31
00080e 6180
00080f 6000
000810 6000
000811 6000      	.DB  0x80,0x61,0x0,0x60,0x0,0x60,0x0,0x60
000812 6000
000813 6000
000814 6000
000815 6180      	.DB  0x0,0x60,0x0,0x60,0x0,0x60,0x80,0x61
000816 3180
000817 3f00
000818 1e00
000819 0000      	.DB  0x80,0x31,0x0,0x3F,0x0,0x1E,0x0,0x0
00081a 0000
00081b 0000
00081c 0000
00081d ffc0      	.DB  0x0,0x0,0x0,0x0,0x0,0x0,0xC0,0xFF
00081e ffc0
00081f 0c00
000820 0c00
000821 0c00      	.DB  0xC0,0xFF,0x0,0xC,0x0,0xC,0x0,0xC
000822 0c00
000823 0c00
000824 0c00
000825 0c00      	.DB  0x0,0xC,0x0,0xC,0x0,0xC,0x0,0xC
000826 0c00
000827 0c00
000828 0c00
000829 0c00      	.DB  0x0,0xC,0x0,0xC,0x0,0xC,0x0,0xC
00082a 0c00
00082b 0000
00082c 0000
00082d 0000      	.DB  0x0,0xC,0x0,0x0,0x0,0x0,0x0,0x0
00082e 0000
00082f c0c0
000830 6180
000831 6180      	.DB  0x0,0x0,0xC0,0xC0,0x80,0x61,0x80,0x61
000832 3300
000833 3300
000834 1f00
000835 1e00      	.DB  0x0,0x33,0x0,0x33,0x0,0x1F,0x0,0x1E
000836 0e00
000837 0e00
000838 0c00
000839 1c00      	.DB  0x0,0xE,0x0,0xE,0x0,0xC,0x0,0x1C
00083a 3800
00083b 7000
00083c e000
00083d 0000      	.DB  0x0,0x38,0x0,0x70,0x0,0xE0,0x0,0x0
00083e 0000
00083f 0000
000840 0000
000841 0400      	.DB  0x0,0x0,0x0,0x0,0x0,0x0,0x0,0x4
000842 1f00
000843 3580
000844 64c0
000845 64c0      	.DB  0x0,0x1F,0x80,0x35,0xC0,0x64,0xC0,0x64
000846 c460
000847 c460
000848 64c0
000849 64c0      	.DB  0x60,0xC4,0x60,0xC4,0xC0,0x64,0xC0,0x64
00084a 3580
00084b 1f00
00084c 0400
00084d 0400      	.DB  0x80,0x35,0x0,0x1F,0x0,0x4,0x0,0x4
00084e 0400
00084f 0000
000850 0000
000851 0000      	.DB  0x0,0x4,0x0,0x0,0x0,0x0,0x0,0x0
000852 0000
000853 c0c0
000854 6080
000855 6180      	.DB  0x0,0x0,0xC0,0xC0,0x80,0x60,0x80,0x61
000856 3300
000857 3b00
000858 1e00
000859 0c00      	.DB  0x0,0x33,0x0,0x3B,0x0,0x1E,0x0,0xC
00085a 0c00
00085b 1e00
00085c 1f00
00085d 3b00      	.DB  0x0,0xC,0x0,0x1E,0x0,0x1F,0x0,0x3B
00085e 7180
00085f 6180
000860 c0c0
000861 0000      	.DB  0x80,0x71,0x80,0x61,0xC0,0xC0,0x0,0x0
000862 0000
000863 0000
000864 0000
000865 60c0      	.DB  0x0,0x0,0x0,0x0,0x0,0x0,0xC0,0x60
000866 60c0
000867 60c0
000868 60c0
000869 60c0      	.DB  0xC0,0x60,0xC0,0x60,0xC0,0x60,0xC0,0x60
00086a 60c0
00086b 60c0
00086c 60c0
00086d 60c0      	.DB  0xC0,0x60,0xC0,0x60,0xC0,0x60,0xC0,0x60
00086e 60c0
00086f 60c0
000870 60c0
000871 7fc0      	.DB  0xC0,0x60,0xC0,0x60,0xC0,0x60,0xC0,0x7F
000872 7fc0
000873 0060
000874 0060
000875 0000      	.DB  0xC0,0x7F,0x60,0x0,0x60,0x0,0x0,0x0
000876 0000
000877 6180
000878 6180
000879 6180      	.DB  0x0,0x0,0x80,0x61,0x80,0x61,0x80,0x61
00087a 6180
00087b 6180
00087c 6180
00087d 7f80      	.DB  0x80,0x61,0x80,0x61,0x80,0x61,0x80,0x7F
00087e 3f80
00087f 0180
000880 0180
000881 0180      	.DB  0x80,0x3F,0x80,0x1,0x80,0x1,0x80,0x1
000882 0180
000883 01c0
000884 01c0
000885 0000      	.DB  0x80,0x1,0xC0,0x1,0xC0,0x1,0x0,0x0
000886 0000
000887 0000
000888 0000
000889 ccc0      	.DB  0x0,0x0,0x0,0x0,0x0,0x0,0xC0,0xCC
00088a ccc0
00088b ccc0
00088c ccc0
00088d ccc0      	.DB  0xC0,0xCC,0xC0,0xCC,0xC0,0xCC,0xC0,0xCC
00088e ccc0
00088f ccc0
000890 ccc0
000891 ccc0      	.DB  0xC0,0xCC,0xC0,0xCC,0xC0,0xCC,0xC0,0xCC
000892 ccc0
000893 ccc0
000894 ccc0
000895 ffc0      	.DB  0xC0,0xCC,0xC0,0xCC,0xC0,0xCC,0xC0,0xFF
000896 ffc0
000897 0000
000898 0000
000899 0000      	.DB  0xC0,0xFF,0x0,0x0,0x0,0x0,0x0,0x0
00089a 0000
00089b ccc0
00089c ccc0
00089d ccc0      	.DB  0x0,0x0,0xC0,0xCC,0xC0,0xCC,0xC0,0xCC
00089e ccc0
00089f ccc0
0008a0 ccc0
0008a1 ccc0      	.DB  0xC0,0xCC,0xC0,0xCC,0xC0,0xCC,0xC0,0xCC
0008a2 ccc0
0008a3 ccc0
0008a4 ccc0
0008a5 ccc0      	.DB  0xC0,0xCC,0xC0,0xCC,0xC0,0xCC,0xC0,0xCC
0008a6 ccc0
0008a7 ffc0
0008a8 ffc0
0008a9 0060      	.DB  0xC0,0xCC,0xC0,0xFF,0xC0,0xFF,0x60,0x0
0008aa 0060
0008ab 0000
0008ac 0000
0008ad 3f00      	.DB  0x60,0x0,0x0,0x0,0x0,0x0,0x0,0x3F
0008ae 3f00
0008af 0c00
0008b0 0c00
0008b1 0c00      	.DB  0x0,0x3F,0x0,0xC,0x0,0xC,0x0,0xC
0008b2 0c00
0008b3 0c00
0008b4 0c00
0008b5 0c00      	.DB  0x0,0xC,0x0,0xC,0x0,0xC,0x0,0xC
0008b6 0c00
0008b7 0c00
0008b8 0c00
0008b9 3f00      	.DB  0x0,0xC,0x0,0xC,0x0,0xC,0x0,0x3F
0008ba 3f00
0008bb 0000
0008bc 0000
0008bd 0000      	.DB  0x0,0x3F,0x0,0x0,0x0,0x0,0x0,0x0
0008be 0000
0008bf 3f00
0008c0 3f00
0008c1 0c00      	.DB  0x0,0x0,0x0,0x3F,0x0,0x3F,0x0,0xC
0008c2 0c00
0008c3 0c00
0008c4 0c00
0008c5 0c00      	.DB  0x0,0xC,0x0,0xC,0x0,0xC,0x0,0xC
0008c6 0c00
0008c7 0c00
0008c8 0c00
0008c9 0c00      	.DB  0x0,0xC,0x0,0xC,0x0,0xC,0x0,0xC
0008ca 0c00
0008cb 3f00
0008cc 3f00
0008cd 0000      	.DB  0x0,0xC,0x0,0x3F,0x0,0x3F,0x0,0x0
0008ce 0000
0008cf 0000
0008d0 0000
0008d1 3000      	.DB  0x0,0x0,0x0,0x0,0x0,0x0,0x0,0x30
0008d2 3000
0008d3 3000
0008d4 3000
0008d5 3c00      	.DB  0x0,0x30,0x0,0x30,0x0,0x30,0x0,0x3C
0008d6 3f00
0008d7 3300
0008d8 3180
0008d9 30c0      	.DB  0x0,0x3F,0x0,0x33,0x80,0x31,0xC0,0x30
0008da 30c0
0008db 31c0
0008dc 3380
0008dd 3f00      	.DB  0xC0,0x30,0xC0,0x31,0x80,0x33,0x0,0x3F
0008de 3e00
0008df 0000
0008e0 0000
0008e1 0000      	.DB  0x0,0x3E,0x0,0x0,0x0,0x0,0x0,0x0
0008e2 0000
0008e3 7800
0008e4 1e00
0008e5 0700      	.DB  0x0,0x0,0x0,0x78,0x0,0x1E,0x0,0x7
0008e6 0380
0008e7 0180
0008e8 0180
0008e9 7f80      	.DB  0x80,0x3,0x80,0x1,0x80,0x1,0x80,0x7F
0008ea 7f80
0008eb 0180
0008ec 0180
0008ed 0380      	.DB  0x80,0x7F,0x80,0x1,0x80,0x1,0x80,0x3
0008ee 0700
0008ef 1e00
0008f0 7800
0008f1 0000      	.DB  0x0,0x7,0x0,0x1E,0x0,0x78,0x0,0x0
0008f2 0000
0008f3 0000
0008f4 0000
0008f5 c700      	.DB  0x0,0x0,0x0,0x0,0x0,0x0,0x0,0xC7
0008f6 cd80
0008f7 cd80
0008f8 d8c0
0008f9 d8c0      	.DB  0x80,0xCD,0x80,0xCD,0xC0,0xD8,0xC0,0xD8
0008fa f0c0
0008fb f0c0
0008fc f0c0
0008fd d8c0      	.DB  0xC0,0xF0,0xC0,0xF0,0xC0,0xF0,0xC0,0xD8
0008fe d8c0
0008ff ccc0
000900 cd80
000901 cd80      	.DB  0xC0,0xD8,0xC0,0xCC,0x80,0xCD,0x80,0xCD
000902 c700
000903 0000
000904 0000
000905 0000      	.DB  0x0,0xC7,0x0,0x0,0x0,0x0,0x0,0x0
000906 0000
000907 1f80
000908 7f80
000909 6180      	.DB  0x0,0x0,0x80,0x1F,0x80,0x7F,0x80,0x61
00090a c180
00090b c180
00090c c180
00090d 6180      	.DB  0x80,0xC1,0x80,0xC1,0x80,0xC1,0x80,0x61
00090e 7f80
00090f 1f80
000910 0f80
000911 1980      	.DB  0x80,0x7F,0x80,0x1F,0x80,0xF,0x80,0x19
000912 3180
000913 6180
000914 c180
000915 0000      	.DB  0x80,0x31,0x80,0x61,0x80,0xC1,0x0,0x0
000916 0000
000917 0000
000918 0000
000919 0000      	.DB  0x0,0x0,0x0,0x0,0x0,0x0,0x0,0x0
00091a 0000
00091b 0000
00091c 0000
00091d 1f00      	.DB  0x0,0x0,0x0,0x0,0x0,0x0,0x0,0x1F
00091e 3f80
00091f 6180
000920 0180
000921 1f80      	.DB  0x80,0x3F,0x80,0x61,0x80,0x1,0x80,0x1F
000922 3f80
000923 6180
000924 6380
000925 7f80      	.DB  0x80,0x3F,0x80,0x61,0x80,0x63,0x80,0x7F
000926 38c0
000927 0000
000928 0000
000929 0000      	.DB  0xC0,0x38,0x0,0x0,0x0,0x0,0x0,0x0
00092a 0000
00092b 0000
00092c 0000
00092d 0000      	.DB  0x0,0x0,0x0,0x0,0x0,0x0,0x0,0x0
00092e 0100
00092f 3f00
000930 7f00
000931 6000      	.DB  0x0,0x1,0x0,0x3F,0x0,0x7F,0x0,0x60
000932 7e00
000933 7f00
000934 6180
000935 6180      	.DB  0x0,0x7E,0x0,0x7F,0x80,0x61,0x80,0x61
000936 6180
000937 7f00
000938 3e00
000939 0000      	.DB  0x80,0x61,0x0,0x7F,0x0,0x3E,0x0,0x0
00093a 0000
00093b 0000
00093c 0000
00093d 0000      	.DB  0x0,0x0,0x0,0x0,0x0,0x0,0x0,0x0
00093e 0000
00093f 0000
000940 0000
000941 3e00      	.DB  0x0,0x0,0x0,0x0,0x0,0x0,0x0,0x3E
000942 7f00
000943 6100
000944 7e00
000945 7f00      	.DB  0x0,0x7F,0x0,0x61,0x0,0x7E,0x0,0x7F
000946 6180
000947 6180
000948 6180
000949 7f00      	.DB  0x80,0x61,0x80,0x61,0x80,0x61,0x0,0x7F
00094a 3e00
00094b 0000
00094c 0000
00094d 0000      	.DB  0x0,0x3E,0x0,0x0,0x0,0x0,0x0,0x0
00094e 0000
00094f 0000
000950 0000
000951 0000      	.DB  0x0,0x0,0x0,0x0,0x0,0x0,0x0,0x0
000952 0000
000953 7f00
000954 7f00
000955 6000      	.DB  0x0,0x0,0x0,0x7F,0x0,0x7F,0x0,0x60
000956 6000
000957 6000
000958 6000
000959 6000      	.DB  0x0,0x60,0x0,0x60,0x0,0x60,0x0,0x60
00095a 6000
00095b 6000
00095c 6000
00095d 0000      	.DB  0x0,0x60,0x0,0x60,0x0,0x60,0x0,0x0
00095e 0000
00095f 0000
000960 0000
000961 0000      	.DB  0x0,0x0,0x0,0x0,0x0,0x0,0x0,0x0
000962 0000
000963 0000
000964 0000
000965 7f80      	.DB  0x0,0x0,0x0,0x0,0x0,0x0,0x80,0x7F
000966 7f80
000967 6180
000968 6180
000969 6180      	.DB  0x80,0x7F,0x80,0x61,0x80,0x61,0x80,0x61
00096a 6180
00096b 6180
00096c 6180
00096d 6180      	.DB  0x80,0x61,0x80,0x61,0x80,0x61,0x80,0x61
00096e ffc0
00096f ffc0
000970 c0c0
000971 0000      	.DB  0xC0,0xFF,0xC0,0xFF,0xC0,0xC0,0x0,0x0
000972 0000
000973 0000
000974 0000
000975 0000      	.DB  0x0,0x0,0x0,0x0,0x0,0x0,0x0,0x0
000976 0000
000977 1e00
000978 3f00
000979 7300      	.DB  0x0,0x0,0x0,0x1E,0x0,0x3F,0x0,0x73
00097a 6180
00097b 7f80
00097c 7f80
00097d 6000      	.DB  0x80,0x61,0x80,0x7F,0x80,0x7F,0x0,0x60
00097e 7180
00097f 3f00
000980 1e00
000981 0000      	.DB  0x80,0x71,0x0,0x3F,0x0,0x1E,0x0,0x0
000982 0000
000983 0000
000984 0000
000985 0000      	.DB  0x0,0x0,0x0,0x0,0x0,0x0,0x0,0x0
000986 0000
000987 0000
000988 0000
000989 c460      	.DB  0x0,0x0,0x0,0x0,0x0,0x0,0x60,0xC4
00098a 64c0
00098b 3580
00098c 1f00
00098d 0e00      	.DB  0xC0,0x64,0x80,0x35,0x0,0x1F,0x0,0xE
00098e 1f00
00098f 3580
000990 64c0
000991 c460      	.DB  0x0,0x1F,0x80,0x35,0xC0,0x64,0x60,0xC4
000992 8420
000993 0000
000994 0000
000995 0000      	.DB  0x20,0x84,0x0,0x0,0x0,0x0,0x0,0x0
000996 0000
000997 0000
000998 0000
000999 0000      	.DB  0x0,0x0,0x0,0x0,0x0,0x0,0x0,0x0
00099a 0000
00099b 3e00
00099c 3f00
00099d 0100      	.DB  0x0,0x0,0x0,0x3E,0x0,0x3F,0x0,0x1
00099e 3e00
00099f 3f00
0009a0 0180
0009a1 0180      	.DB  0x0,0x3E,0x0,0x3F,0x80,0x1,0x80,0x1
0009a2 0180
0009a3 3f00
0009a4 3e00
0009a5 0000      	.DB  0x80,0x1,0x0,0x3F,0x0,0x3E,0x0,0x0
0009a6 0000
0009a7 0000
0009a8 0000
0009a9 0000      	.DB  0x0,0x0,0x0,0x0,0x0,0x0,0x0,0x0
0009aa 0000
0009ab 0000
0009ac 0000
0009ad 6180      	.DB  0x0,0x0,0x0,0x0,0x0,0x0,0x80,0x61
0009ae 6180
0009af 6180
0009b0 6380
0009b1 6780      	.DB  0x80,0x61,0x80,0x61,0x80,0x63,0x80,0x67
0009b2 6d80
0009b3 7980
0009b4 7180
0009b5 6180      	.DB  0x80,0x6D,0x80,0x79,0x80,0x71,0x80,0x61
0009b6 6180
0009b7 0000
0009b8 0000
0009b9 0000      	.DB  0x80,0x61,0x0,0x0,0x0,0x0,0x0,0x0
0009ba 0000
0009bb 0000
0009bc 0000
0009bd 0c00      	.DB  0x0,0x0,0x0,0x0,0x0,0x0,0x0,0xC
0009be 0c00
0009bf 6180
0009c0 6180
0009c1 6180      	.DB  0x0,0xC,0x80,0x61,0x80,0x61,0x80,0x61
0009c2 6380
0009c3 6780
0009c4 6d80
0009c5 7980      	.DB  0x80,0x63,0x80,0x67,0x80,0x6D,0x80,0x79
0009c6 7180
0009c7 6180
0009c8 6180
0009c9 0000      	.DB  0x80,0x71,0x80,0x61,0x80,0x61,0x0,0x0
0009ca 0000
0009cb 0000
0009cc 0000
0009cd 0000      	.DB  0x0,0x0,0x0,0x0,0x0,0x0,0x0,0x0
0009ce 0000
0009cf 0000
0009d0 0000
0009d1 6180      	.DB  0x0,0x0,0x0,0x0,0x0,0x0,0x80,0x61
0009d2 6300
0009d3 6600
0009d4 6c00
0009d5 7c00      	.DB  0x0,0x63,0x0,0x66,0x0,0x6C,0x0,0x7C
0009d6 7600
0009d7 6300
0009d8 6300
0009d9 6180      	.DB  0x0,0x76,0x0,0x63,0x0,0x63,0x80,0x61
0009da 60c0
0009db 0000
0009dc 0000
0009dd 0000      	.DB  0xC0,0x60,0x0,0x0,0x0,0x0,0x0,0x0
0009de 0000
0009df 0000
0009e0 0000
0009e1 0000      	.DB  0x0,0x0,0x0,0x0,0x0,0x0,0x0,0x0
0009e2 0000
0009e3 3f80
0009e4 3f80
0009e5 3180      	.DB  0x0,0x0,0x80,0x3F,0x80,0x3F,0x80,0x31
0009e6 3180
0009e7 3180
0009e8 3180
0009e9 3180      	.DB  0x80,0x31,0x80,0x31,0x80,0x31,0x80,0x31
0009ea 3180
0009eb f180
0009ec f180
0009ed 0000      	.DB  0x80,0x31,0x80,0xF1,0x80,0xF1,0x0,0x0
0009ee 0000
0009ef 0000
0009f0 0000
0009f1 0000      	.DB  0x0,0x0,0x0,0x0,0x0,0x0,0x0,0x0
0009f2 0000
0009f3 0000
0009f4 0000
0009f5 c060      	.DB  0x0,0x0,0x0,0x0,0x0,0x0,0x60,0xC0
0009f6 e0e0
0009f7 f1e0
0009f8 db60
0009f9 ce60      	.DB  0xE0,0xE0,0xE0,0xF1,0x60,0xDB,0x60,0xCE
0009fa c460
0009fb c460
0009fc c060
0009fd c060      	.DB  0x60,0xC4,0x60,0xC4,0x60,0xC0,0x60,0xC0
0009fe c060
0009ff 0000
000a00 0000
000a01 0000      	.DB  0x60,0xC0,0x0,0x0,0x0,0x0,0x0,0x0
000a02 0000
000a03 0000
000a04 0000
000a05 0000      	.DB  0x0,0x0,0x0,0x0,0x0,0x0,0x0,0x0
000a06 0000
000a07 6180
000a08 6180
000a09 6180      	.DB  0x0,0x0,0x80,0x61,0x80,0x61,0x80,0x61
000a0a 6180
000a0b 7f80
000a0c 7f80
000a0d 6180      	.DB  0x80,0x61,0x80,0x7F,0x80,0x7F,0x80,0x61
000a0e 6180
000a0f 6180
000a10 6180
000a11 0000      	.DB  0x80,0x61,0x80,0x61,0x80,0x61,0x0,0x0
000a12 0000
000a13 0000
000a14 0000
000a15 0000      	.DB  0x0,0x0,0x0,0x0,0x0,0x0,0x0,0x0
000a16 0000
000a17 0000
000a18 0000
000a19 1e00      	.DB  0x0,0x0,0x0,0x0,0x0,0x0,0x0,0x1E
000a1a 3f00
000a1b 7380
000a1c 6180
000a1d 6180      	.DB  0x0,0x3F,0x80,0x73,0x80,0x61,0x80,0x61
000a1e 6180
000a1f 6180
000a20 7380
000a21 3f00      	.DB  0x80,0x61,0x80,0x61,0x80,0x73,0x0,0x3F
000a22 1e00
000a23 0000
000a24 0000
000a25 0000      	.DB  0x0,0x1E,0x0,0x0,0x0,0x0,0x0,0x0
000a26 0000
000a27 0000
000a28 0000
000a29 0000      	.DB  0x0,0x0,0x0,0x0,0x0,0x0,0x0,0x0
000a2a 0000
000a2b 7f80
000a2c 7f80
000a2d 6180      	.DB  0x0,0x0,0x80,0x7F,0x80,0x7F,0x80,0x61
000a2e 6180
000a2f 6180
000a30 6180
000a31 6180      	.DB  0x80,0x61,0x80,0x61,0x80,0x61,0x80,0x61
000a32 6180
000a33 6180
000a34 6180
000a35 0000      	.DB  0x80,0x61,0x80,0x61,0x80,0x61,0x0,0x0
000a36 0000
000a37 0000
000a38 0000
000a39 0000      	.DB  0x0,0x0,0x0,0x0,0x0,0x0,0x0,0x0
000a3a 0000
000a3b 0000
000a3c 6e00
000a3d 7f00      	.DB  0x0,0x0,0x0,0x0,0x0,0x6E,0x0,0x7F
000a3e 7380
000a3f 6180
000a40 6180
000a41 6180      	.DB  0x80,0x73,0x80,0x61,0x80,0x61,0x80,0x61
000a42 6180
000a43 7380
000a44 7f00
000a45 6e00      	.DB  0x80,0x61,0x80,0x73,0x0,0x7F,0x0,0x6E
000a46 6000
000a47 6000
000a48 6000
000a49 6000      	.DB  0x0,0x60,0x0,0x60,0x0,0x60,0x0,0x60
000a4a 0000
000a4b 0000
000a4c 0000
000a4d 0000      	.DB  0x0,0x0,0x0,0x0,0x0,0x0,0x0,0x0
000a4e 0000
000a4f 1e00
000a50 3f00
000a51 7380      	.DB  0x0,0x0,0x0,0x1E,0x0,0x3F,0x80,0x73
000a52 6180
000a53 6000
000a54 6000
000a55 6180      	.DB  0x80,0x61,0x0,0x60,0x0,0x60,0x80,0x61
000a56 7380
000a57 3f00
000a58 1e00
000a59 0000      	.DB  0x80,0x73,0x0,0x3F,0x0,0x1E,0x0,0x0
000a5a 0000
000a5b 0000
000a5c 0000
000a5d 0000      	.DB  0x0,0x0,0x0,0x0,0x0,0x0,0x0,0x0
000a5e 0000
000a5f 0000
000a60 0000
000a61 7f80      	.DB  0x0,0x0,0x0,0x0,0x0,0x0,0x80,0x7F
000a62 7f80
000a63 0c00
000a64 0c00
000a65 0c00      	.DB  0x80,0x7F,0x0,0xC,0x0,0xC,0x0,0xC
000a66 0c00
000a67 0c00
000a68 0c00
000a69 0c00      	.DB  0x0,0xC,0x0,0xC,0x0,0xC,0x0,0xC
000a6a 0c00
000a6b 0000
000a6c 0000
000a6d 0000      	.DB  0x0,0xC,0x0,0x0,0x0,0x0,0x0,0x0
000a6e 0000
000a6f 0000
000a70 0000
000a71 0000      	.DB  0x0,0x0,0x0,0x0,0x0,0x0,0x0,0x0
000a72 0000
000a73 60c0
000a74 60c0
000a75 3180      	.DB  0x0,0x0,0xC0,0x60,0xC0,0x60,0x80,0x31
000a76 1980
000a77 0f00
000a78 0700
000a79 0600      	.DB  0x80,0x19,0x0,0xF,0x0,0x7,0x0,0x6
000a7a 0e00
000a7b 0c00
000a7c 3800
000a7d 0000      	.DB  0x0,0xE,0x0,0xC,0x0,0x38,0x0,0x0
000a7e 0000
000a7f 0000
000a80 0000
000a81 0000      	.DB  0x0,0x0,0x0,0x0,0x0,0x0,0x0,0x0
000a82 0000
000a83 0000
000a84 0000
000a85 0c00      	.DB  0x0,0x0,0x0,0x0,0x0,0x0,0x0,0xC
000a86 7f80
000a87 ccc0
000a88 8c40
000a89 8c40      	.DB  0x80,0x7F,0xC0,0xCC,0x40,0x8C,0x40,0x8C
000a8a ccc0
000a8b 7f80
000a8c 0c00
000a8d 0c00      	.DB  0xC0,0xCC,0x80,0x7F,0x0,0xC,0x0,0xC
000a8e 0c00
000a8f 0000
000a90 0000
000a91 0000      	.DB  0x0,0xC,0x0,0x0,0x0,0x0,0x0,0x0
000a92 0000
000a93 0000
000a94 0000
000a95 0000      	.DB  0x0,0x0,0x0,0x0,0x0,0x0,0x0,0x0
000a96 0000
000a97 6180
000a98 3300
000a99 3300      	.DB  0x0,0x0,0x80,0x61,0x0,0x33,0x0,0x33
000a9a 1e00
000a9b 0c00
000a9c 0c00
000a9d 1e00      	.DB  0x0,0x1E,0x0,0xC,0x0,0xC,0x0,0x1E
000a9e 3300
000a9f 3300
000aa0 6180
000aa1 0000      	.DB  0x0,0x33,0x0,0x33,0x80,0x61,0x0,0x0
000aa2 0000
000aa3 0000
000aa4 0000
000aa5 0000      	.DB  0x0,0x0,0x0,0x0,0x0,0x0,0x0,0x0
000aa6 0000
000aa7 0000
000aa8 0000
000aa9 6180      	.DB  0x0,0x0,0x0,0x0,0x0,0x0,0x80,0x61
000aaa 6180
000aab 6180
000aac 6180
000aad 6180      	.DB  0x80,0x61,0x80,0x61,0x80,0x61,0x80,0x61
000aae 6180
000aaf 6180
000ab0 6180
000ab1 7f80      	.DB  0x80,0x61,0x80,0x61,0x80,0x61,0x80,0x7F
000ab2 7f80
000ab3 0180
000ab4 0000
000ab5 0000      	.DB  0x80,0x7F,0x80,0x1,0x0,0x0,0x0,0x0
000ab6 0000
000ab7 0000
000ab8 0000
000ab9 0000      	.DB  0x0,0x0,0x0,0x0,0x0,0x0,0x0,0x0
000aba 0000
000abb 6180
000abc 6180
000abd 6180      	.DB  0x0,0x0,0x80,0x61,0x80,0x61,0x80,0x61
000abe 6180
000abf 7f80
000ac0 7f80
000ac1 0180      	.DB  0x80,0x61,0x80,0x7F,0x80,0x7F,0x80,0x1
000ac2 0180
000ac3 01c0
000ac4 01c0
000ac5 0000      	.DB  0x80,0x1,0xC0,0x1,0xC0,0x1,0x0,0x0
000ac6 0000
000ac7 0000
000ac8 0000
000ac9 0000      	.DB  0x0,0x0,0x0,0x0,0x0,0x0,0x0,0x0
000aca 0000
000acb 0000
000acc 0000
000acd ccc0      	.DB  0x0,0x0,0x0,0x0,0x0,0x0,0xC0,0xCC
000ace ccc0
000acf ccc0
000ad0 ccc0
000ad1 ccc0      	.DB  0xC0,0xCC,0xC0,0xCC,0xC0,0xCC,0xC0,0xCC
000ad2 ccc0
000ad3 ccc0
000ad4 ccc0
000ad5 ffc0      	.DB  0xC0,0xCC,0xC0,0xCC,0xC0,0xCC,0xC0,0xFF
000ad6 ffc0
000ad7 0000
000ad8 0000
000ad9 0000      	.DB  0xC0,0xFF,0x0,0x0,0x0,0x0,0x0,0x0
000ada 0000
000adb 0000
000adc 0000
000add 0000      	.DB  0x0,0x0,0x0,0x0,0x0,0x0,0x0,0x0
000ade 0000
000adf ccc0
000ae0 ccc0
000ae1 ccc0      	.DB  0x0,0x0,0xC0,0xCC,0xC0,0xCC,0xC0,0xCC
000ae2 ccc0
000ae3 ccc0
000ae4 ccc0
000ae5 ccc0      	.DB  0xC0,0xCC,0xC0,0xCC,0xC0,0xCC,0xC0,0xCC
000ae6 ccc0
000ae7 ffc0
000ae8 ffe0
000ae9 0060      	.DB  0xC0,0xCC,0xC0,0xFF,0xE0,0xFF,0x60,0x0
000aea 0000
000aeb 0000
000aec 0000
000aed 0600      	.DB  0x0,0x0,0x0,0x0,0x0,0x0,0x0,0x6
000aee 0600
000aef 0000
000af0 0000
000af1 3e00      	.DB  0x0,0x6,0x0,0x0,0x0,0x0,0x0,0x3E
000af2 3e00
000af3 0600
000af4 0600
000af5 0600      	.DB  0x0,0x3E,0x0,0x6,0x0,0x6,0x0,0x6
000af6 0600
000af7 0600
000af8 0600
000af9 0600      	.DB  0x0,0x6,0x0,0x6,0x0,0x6,0x0,0x6
000afa 0600
000afb 0000
000afc 0000
000afd 0000      	.DB  0x0,0x6,0x0,0x0,0x0,0x0,0x0,0x0
000afe 0000
000aff 0600
000b00 0600
000b01 0000      	.DB  0x0,0x0,0x0,0x6,0x0,0x6,0x0,0x0
000b02 0000
000b03 3e00
000b04 3e00
000b05 0600      	.DB  0x0,0x0,0x0,0x3E,0x0,0x3E,0x0,0x6
000b06 0600
000b07 0600
000b08 0600
000b09 0600      	.DB  0x0,0x6,0x0,0x6,0x0,0x6,0x0,0x6
000b0a 0600
000b0b 0600
000b0c 0600
000b0d 0000      	.DB  0x0,0x6,0x0,0x6,0x0,0x6,0x0,0x0
000b0e 0000
000b0f 0000
000b10 0000
000b11 0000      	.DB  0x0,0x0,0x0,0x0,0x0,0x0,0x0,0x0
000b12 0000
000b13 0000
000b14 0000
000b15 6000      	.DB  0x0,0x0,0x0,0x0,0x0,0x0,0x0,0x60
000b16 6000
000b17 6000
000b18 6e00
000b19 7f00      	.DB  0x0,0x60,0x0,0x60,0x0,0x6E,0x0,0x7F
000b1a 6380
000b1b 6180
000b1c 6380
000b1d 7f00      	.DB  0x80,0x63,0x80,0x61,0x80,0x63,0x0,0x7F
000b1e 6e00
000b1f 0000
000b20 0000
000b21 0000      	.DB  0x0,0x6E,0x0,0x0,0x0,0x0,0x0,0x0
000b22 0000
000b23 0000
000b24 0000
000b25 0000      	.DB  0x0,0x0,0x0,0x0,0x0,0x0,0x0,0x0
000b26 0000
000b27 1e00
000b28 3f00
000b29 0380      	.DB  0x0,0x0,0x0,0x1E,0x0,0x3F,0x80,0x3
000b2a 0180
000b2b 3f80
000b2c 3f80
000b2d 0180      	.DB  0x80,0x1,0x80,0x3F,0x80,0x3F,0x80,0x1
000b2e 0380
000b2f 3f00
000b30 1e00
000b31 0000      	.DB  0x80,0x3,0x0,0x3F,0x0,0x1E,0x0,0x0
000b32 0000
000b33 0000
000b34 0000
000b35 0000      	.DB  0x0,0x0,0x0,0x0,0x0,0x0,0x0,0x0
000b36 0000
000b37 0000
000b38 0000
000b39 c300      	.DB  0x0,0x0,0x0,0x0,0x0,0x0,0x0,0xC3
000b3a c780
000b3b ccc0
000b3c d860
000b3d f860      	.DB  0x80,0xC7,0xC0,0xCC,0x60,0xD8,0x60,0xF8
000b3e f860
000b3f d860
000b40 cce0
000b41 c780      	.DB  0x60,0xF8,0x60,0xD8,0xE0,0xCC,0x80,0xC7
000b42 c300
000b43 0000
000b44 0000
000b45 0000      	.DB  0x0,0xC3,0x0,0x0,0x0,0x0,0x0,0x0
000b46 0000
000b47 0000
000b48 0000
000b49 0000      	.DB  0x0,0x0,0x0,0x0,0x0,0x0,0x0,0x0
000b4a 0000
000b4b 1f80
000b4c 3180
000b4d 6180      	.DB  0x0,0x0,0x80,0x1F,0x80,0x31,0x80,0x61
000b4e 6180
000b4f 6180
000b50 3180
000b51 1f80      	.DB  0x80,0x61,0x80,0x61,0x80,0x31,0x80,0x1F
000b52 0780
000b53 1980
000b54 6180
000b55 0000      	.DB  0x80,0x7,0x80,0x19,0x80,0x61,0x0,0x0
000b56 0000
000b57 0000      	.DB  0x0,0x0,0x0,0x0
                 _tbl10_G100:
000b58 2710
000b59 03e8
000b5a 0064
000b5b 000a      	.DB  0x10,0x27,0xE8,0x3,0x64,0x0,0xA,0x0
000b5c 0001      	.DB  0x1,0x0
                 _tbl16_G100:
000b5d 1000
000b5e 0100
000b5f 0010
000b60 0001      	.DB  0x0,0x10,0x0,0x1,0x10,0x0,0x1,0x0
                 
                 ;REGISTER BIT VARIABLES INITIALIZATION
                 __REG_BIT_VARS:
000b61 0000      	.DW  0x0000
                 
                 _0x3:
E:\!PROJECTS\C++\2023\GreenhouseNewFont\Debug\List\Greenhouse.asm(1856): warning: .cseg .db misalignment - padding zero byte
000b62 0032      	.DB  0x32
                 _0x4:
000b63 0202
000b64 0202      	.DB  0x2,0x2,0x2,0x2
                 _0x5:
000b65 ffff      	.DB  0xFF,0xFF
                 _0x6:
000b66 07c6      	.DB  0xC6,0x7
                 _0x7:
000b67 07c6      	.DB  0xC6,0x7
                 _0x8:
000b68 1708
000b69 1714
000b6a 171e
000b6b 1725      	.DB  LOW(_0x0*2),HIGH(_0x0*2),LOW(_0x0*2+12),HIGH(_0x0*2+12),LOW(_0x0*2+22),HIGH(_0x0*2+22),LOW(_0x0*2+29),HIGH(_0x0*2+29)
000b6c 172f      	.DB  LOW(_0x0*2+39),HIGH(_0x0*2+39)
                 _0x9:
000b6d 173c
000b6e 1744
000b6f 174c
000b70 1754      	.DB  LOW(_0x0*2+52),HIGH(_0x0*2+52),LOW(_0x0*2+60),HIGH(_0x0*2+60),LOW(_0x0*2+68),HIGH(_0x0*2+68),LOW(_0x0*2+76),HIGH(_0x0*2+76)
                 _0xA:
000b71 175a
000b72 1762
000b73 176b
000b74 1774      	.DB  LOW(_0x0*2+82),HIGH(_0x0*2+82),LOW(_0x0*2+90),HIGH(_0x0*2+90),LOW(_0x0*2+99),HIGH(_0x0*2+99),LOW(_0x0*2+108),HIGH(_0x0*2+108)
                 _0xB:
000b75 1778
000b76 1783
000b77 178f
000b78 1799      	.DB  LOW(_0x0*2+112),HIGH(_0x0*2+112),LOW(_0x0*2+123),HIGH(_0x0*2+123),LOW(_0x0*2+135),HIGH(_0x0*2+135),LOW(_0x0*2+145),HIGH(_0x0*2+145)
                 _0xC:
000b79 17a0
000b7a 17a7
000b7b 17ac
000b7c 17b1      	.DB  LOW(_0x0*2+152),HIGH(_0x0*2+152),LOW(_0x0*2+159),HIGH(_0x0*2+159),LOW(_0x0*2+164),HIGH(_0x0*2+164),LOW(_0x0*2+169),HIGH(_0x0*2+169)
000b7d 17b7      	.DB  LOW(_0x0*2+175),HIGH(_0x0*2+175)
                 _0xD:
000b7e 1eff
000b7f ff5a      	.DB  0xFF,0x1E,0x5A,0xFF
                 _0xE:
000b80 0202
000b81 0202      	.DB  0x2,0x2,0x2,0x2
                 _0xF:
000b82 120b
000b83 0054      	.DB  0xB,0x12,LOW(_Font11x18*2),HIGH(_Font11x18*2)
                 _0x0:
000b84 e5d2
000b85 efec
000b86 f0e5
000b87 f2e0      	.DB  0xD2,0xE5,0xEC,0xEF,0xE5,0xF0,0xE0,0xF2
000b88 f0f3
000b89 00e0
000b8a ebc2
000b8b e6e0      	.DB  0xF3,0xF0,0xE0,0x0,0xC2,0xEB,0xE0,0xE6
000b8c eeed
000b8d f2f1
000b8e 00fc
000b8f e0d2      	.DB  0xED,0xEE,0xF1,0xF2,0xFC,0x0,0xD2,0xE0
000b90 ece9
000b91 f0e5
000b92 cd00
000b93 f1e0      	.DB  0xE9,0xEC,0xE5,0xF0,0x0,0xCD,0xE0,0xF1
000b94 f0f2
000b95 e9ee
000b96 e8ea
000b97 c200      	.DB  0xF2,0xF0,0xEE,0xE9,0xEA,0xE8,0x0,0xC2
000b98 e5f0
000b99 ffec
000b9a e820
000b9b c420      	.DB  0xF0,0xE5,0xEC,0xFF,0x20,0xE8,0x20,0xC4
000b9c f2e0
000b9d 00e0
000b9e e0c7
000b9f e0e4      	.DB  0xE0,0xF2,0xE0,0x0,0xC7,0xE0,0xE4,0xE0
000ba0 e8ed
000ba1 00e5
000ba2 f2ce
000ba3 ebea      	.DB  0xED,0xE8,0xE5,0x0,0xCE,0xF2,0xEA,0xEB
000ba4 edee
000ba5 002e
000ba6 e8c3
000ba7 f2f1      	.DB  0xEE,0xED,0x2E,0x0,0xC3,0xE8,0xF1,0xF2
000ba8 f0e5
000ba9 002e
000baa e5d0
000bab e8e6      	.DB  0xE5,0xF0,0x2E,0x0,0xD0,0xE5,0xE6,0xE8
000bac 00ec
000bad eac2
000bae feeb
000baf e5f7      	.DB  0xEC,0x0,0xC2,0xEA,0xEB,0xFE,0xF7,0xE5
000bb0 00ed
000bb1 fbc2
000bb2 ebea
000bb3 f7fe      	.DB  0xED,0x0,0xC2,0xFB,0xEA,0xEB,0xFE,0xF7
000bb4 ede5
000bb5 d000
000bb6 e7e0
000bb7 e5ec      	.DB  0xE5,0xED,0x0,0xD0,0xE0,0xE7,0xEC,0xE5
000bb8 edf0
000bb9 002e
000bba e0d8
000bbb 00e3      	.DB  0xF0,0xED,0x2E,0x0,0xD8,0xE0,0xE3,0x0
000bbc eeca
000bbd e5f0
000bbe f6ea
000bbf ffe8      	.DB  0xCA,0xEE,0xF0,0xE5,0xEA,0xF6,0xE8,0xFF
000bc0 d220
000bc1 ca00
000bc2 f0ee
000bc3 eae5      	.DB  0x20,0xD2,0x0,0xCA,0xEE,0xF0,0xE5,0xEA
000bc4 e8f6
000bc5 20ff
000bc6 ebc2
000bc7 c400      	.DB  0xF6,0xE8,0xFF,0x20,0xC2,0xEB,0x0,0xC4
000bc8 f2e0
000bc9 e8f7
000bca 20ea
000bcb ebc2      	.DB  0xE0,0xF2,0xF7,0xE8,0xEA,0x20,0xC2,0xEB
000bcc d000
000bcd e7e5
000bce f0e5
000bcf 00e2      	.DB  0x0,0xD0,0xE5,0xE7,0xE5,0xF0,0xE2,0x0
000bd0 e8ec
000bd1 f3ed
000bd2 fbf2
000bd3 f700      	.DB  0xEC,0xE8,0xED,0xF3,0xF2,0xFB,0x0,0xF7
000bd4 f1e0
000bd5 00fb
000bd6 e5e4
000bd7 fced      	.DB  0xE0,0xF1,0xFB,0x0,0xE4,0xE5,0xED,0xFC
000bd8 ec00
000bd9 f1e5
000bda f6ff
000bdb e300      	.DB  0x0,0xEC,0xE5,0xF1,0xFF,0xF6,0x0,0xE3
000bdc e4ee
000bdd 2d00
000bde 2b00
000bdf c200      	.DB  0xEE,0xE4,0x0,0x2D,0x0,0x2B,0x0,0xC2
000be0 cfdb
000be1 cbce
000be2 dfcd
000be3 20de      	.DB  0xDB,0xCF,0xCE,0xCB,0xCD,0xDF,0xDE,0x20
000be4 c720
000be5 cfc0
000be6 d1c8
000be7 00dc      	.DB  0x20,0xC7,0xC0,0xCF,0xC8,0xD1,0xDC,0x0
000be8 eecf
000be9 fbe2
000bea f0f2
000beb 00ff      	.DB  0xCF,0xEE,0xE2,0xFB,0xF2,0xF0,0xFF,0x0
000bec f0c3
000bed edf3
000bee 00f2
000bef efd3      	.DB  0xC3,0xF0,0xF3,0xED,0xF2,0x0,0xD3,0xEF
000bf0 e0f0
000bf1 ebe2
000bf2 cd00
000bf3 ebe0      	.DB  0xF0,0xE0,0xE2,0xEB,0x0,0xCD,0xE0,0xEB
000bf4 f8e0
000bf5 00f2
000bf6 3025
000bf7 7832      	.DB  0xE0,0xF8,0xF2,0x0,0x25,0x30,0x32,0x78
000bf8 253a
000bf9 3230
000bfa 2078
000bfb 2020      	.DB  0x3A,0x25,0x30,0x32,0x78,0x20,0x20,0x20
000bfc 3025
000bfd 7832
000bfe 252e
000bff 3230      	.DB  0x25,0x30,0x32,0x78,0x2E,0x25,0x30,0x32
000c00 2e78
000c01 3032
000c02 3025
000c03 7832      	.DB  0x78,0x2E,0x32,0x30,0x25,0x30,0x32,0x78
000c04 cf00
000c05 ecee
000c06 ebe8
000c07 e0ea      	.DB  0x0,0xCF,0xEE,0xEC,0xE8,0xEB,0xEA,0xE0
000c08 f720
000c09 f1e0
000c0a e2fb
000c0b 0021      	.DB  0x20,0xF7,0xE0,0xF1,0xFB,0xE2,0x21,0x0
000c0c 255b
000c0d 7532
000c0e 252e
000c0f 5d75      	.DB  0x5B,0x25,0x32,0x75,0x2E,0x25,0x75,0x5D
000c10 f200
000c11 ece5
000c12 e5ef
000c13 e0f0      	.DB  0x0,0xF2,0xE5,0xEC,0xEF,0xE5,0xF0,0xE0
000c14 f3f2
000c15 e0f0
000c16 2a00
000c17 2e2a      	.DB  0xF2,0xF3,0xF0,0xE0,0x0,0x2A,0x2A,0x2E
000c18 002a
000c19 3225
000c1a 2e75
000c1b 7525      	.DB  0x2A,0x0,0x25,0x32,0x75,0x2E,0x25,0x75
000c1c 5b00
000c1d 3325
000c1e 2575
000c1f 5d25      	.DB  0x0,0x5B,0x25,0x33,0x75,0x25,0x25,0x5D
000c20 e200
000c21 ebee
000c22 e3ee
000c23 f1fb      	.DB  0x0,0xE2,0xEE,0xEB,0xEE,0xE3,0xFB,0xF1
000c24 fcf2
000c25 2a00
000c26 2a2a
000c27 2525      	.DB  0xF2,0xFC,0x0,0x2A,0x2A,0x2A,0x25,0x25
000c28 2500
000c29 7533
000c2a 2525
000c2b 0020      	.DB  0x0,0x25,0x33,0x75,0x25,0x25,0x20,0x0
000c2c 4f43
000c2d 2032
000c2e eeef
000c2f e8ec      	.DB  0x43,0x4F,0x32,0x20,0xEF,0xEE,0xEC,0xE8
000c30 eaeb
000c31 20e0
000c32 eeec
000c33 f3e4      	.DB  0xEB,0xEA,0xE0,0x20,0xEC,0xEE,0xE4,0xF3
000c34 ffeb
000c35 0021
000c36 4f43
000c37 2032      	.DB  0xEB,0xFF,0x21,0x0,0x43,0x4F,0x32,0x20
000c38 2020
000c39 3425
000c3a 0075
000c3b 7070      	.DB  0x20,0x20,0x25,0x34,0x75,0x0,0x70,0x70
000c3c 006d
000c3d 4f43
000c3e 2032
000c3f eeec      	.DB  0x6D,0x0,0x43,0x4F,0x32,0x20,0xEC,0xEE
000c40 f3e4
000c41 fceb
000c42 e220
000c43 e4fb      	.DB  0xE4,0xF3,0xEB,0xFC,0x20,0xE2,0xFB,0xE4
000c44 f3f1
000c45 edf2
000c46 e9fb
000c47 002e      	.DB  0xF1,0xF3,0xF2,0xED,0xFB,0xE9,0x2E,0x0
000c48 cdf0
000c49 ef20
000c4a ecee
000c4b ebe8      	.DB  0xF0,0xCD,0x20,0xEF,0xEE,0xEC,0xE8,0xEB
000c4c e0ea
000c4d ec20
000c4e e4ee
000c4f ebf3      	.DB  0xEA,0xE0,0x20,0xEC,0xEE,0xE4,0xF3,0xEB
000c50 21ff
000c51 f000
000c52 20cd
000c53 2020      	.DB  0xFF,0x21,0x0,0xF0,0xCD,0x20,0x20,0x20
000c54 3225
000c55 2e75
000c56 7525
000c57 ee00      	.DB  0x25,0x32,0x75,0x2E,0x25,0x75,0x0,0xEE
000c58 e8e4
000c59 e8ed
000c5a fcf6
000c5b f000      	.DB  0xE4,0xE8,0xED,0xE8,0xF6,0xFC,0x0,0xF0
000c5c 20cd
000c5d ec20
000c5e e4ee
000c5f ebf3      	.DB  0xCD,0x20,0x20,0xEC,0xEE,0xE4,0xF3,0xEB
000c60 20fc
000c61 fbe2
000c62 f1e4
000c63 f2f3      	.DB  0xFC,0x20,0xE2,0xFB,0xE4,0xF1,0xF3,0xF2
000c64 fbed
000c65 2ee9
000c66 d100
000c67 c0d2      	.DB  0xED,0xFB,0xE9,0x2E,0x0,0xD1,0xD2,0xC0
000c68 20cd
000c69 d0c3
000c6a cdd3
000c6b d3d2      	.DB  0xCD,0x20,0xC3,0xD0,0xD3,0xCD,0xD2,0xD3
000c6c e400
000c6d f2e0
000c6e e8f7
000c6f 20ea      	.DB  0x0,0xE4,0xE0,0xF2,0xF7,0xE8,0xEA,0x20
000c70 7525
000c71 d100
000c72 c0d2
000c73 20cd      	.DB  0x25,0x75,0x0,0xD1,0xD2,0xC0,0xCD,0x20
000c74 cfd3
000c75 c0d0
000c76 cbc2
000c77 cddb      	.DB  0xD3,0xCF,0xD0,0xC0,0xC2,0xCB,0xDB,0xCD
000c78 dfcd
000c79 d000
000c7a cbc5
000c7b 20c5      	.DB  0xCD,0xDF,0x0,0xD0,0xC5,0xCB,0xC5,0x20
000c7c 4e20
000c7d 7525
000c7e 203a
000c7f c000      	.DB  0x20,0x4E,0x25,0x75,0x3A,0x20,0x0,0xC0
000c80 d2c2
000c81 4f00
000c82 204e
000c83 4f00      	.DB  0xC2,0xD2,0x0,0x4F,0x4E,0x20,0x0,0x4F
000c84 4646
000c85 5800
000c86 3425
000c87 3b75      	.DB  0x46,0x46,0x0,0x58,0x25,0x34,0x75,0x3B
000c88 5920
000c89 3425
000c8a 0075
000c8b 3d69      	.DB  0x20,0x59,0x25,0x34,0x75,0x0,0x69,0x3D
000c8c 3225
000c8d 0075
000c8e 3d69
000c8f 3225      	.DB  0x25,0x32,0x75,0x0,0x69,0x3D,0x25,0x32
000c90 3b75
000c91 7820
000c92 253d
000c93 6932      	.DB  0x75,0x3B,0x20,0x78,0x3D,0x25,0x32,0x69
000c94 c200
000c95 d5c8
000c96 c4db
000c97 4e20      	.DB  0x0,0xC2,0xC8,0xD5,0xDB,0xC4,0x20,0x4E
000c98 7525
000c99 203a
000c9a d000
000c9b d7d3      	.DB  0x25,0x75,0x3A,0x20,0x0,0xD0,0xD3,0xD7
000c9c 2000
000c9d 3325
000c9e 2575
000c9f 2025      	.DB  0x0,0x20,0x25,0x33,0x75,0x25,0x25,0x20
000ca0 c700
000ca1 c4c0
000ca2 cdc0
000ca3 dfc8      	.DB  0x0,0xC7,0xC0,0xC4,0xC0,0xCD,0xC8,0xDF
000ca4 d420
000ca5 c7c0
000ca6 20db
000ca7 7525      	.DB  0x20,0xD4,0xC0,0xC7,0xDB,0x20,0x25,0x75
000ca8 7700
000ca9 7777
000caa 672e
000cab 6172      	.DB  0x0,0x77,0x77,0x77,0x2E,0x67,0x72,0x61
000cac 6976
000cad 6f74
000cae 2e6e
000caf 6f63      	.DB  0x76,0x69,0x74,0x6F,0x6E,0x2E,0x63,0x6F
000cb0 2e6d
000cb1 6175
000cb2 d000
000cb3 e7ee      	.DB  0x6D,0x2E,0x75,0x61,0x0,0xD0,0xEE,0xE7
000cb4 ecf3
000cb5 e0ed
000cb6 f200
000cb7 efe5      	.DB  0xF3,0xEC,0xED,0xE0,0x0,0xF2,0xE5,0xEF
000cb8 e8eb
000cb9 fff6
000cba c400
000cbb f2e0      	.DB  0xEB,0xE8,0xF6,0xFF,0x0,0xC4,0xE0,0xF2
000cbc e8f7
000cbd fbea
000cbe 20e2
000cbf e5f2      	.DB  0xF7,0xE8,0xEA,0xFB,0xE2,0x20,0xF2,0xE5
000cc0 efec
000cc1 f0e5
000cc2 f2e0
000cc3 f0f3      	.DB  0xEC,0xEF,0xE5,0xF0,0xE0,0xF2,0xF3,0xF0
000cc4 20e8
000cc5 7525
000cc6 c400
000cc7 f2e0      	.DB  0xE8,0x20,0x25,0x75,0x0,0xC4,0xE0,0xF2
000cc8 e8f7
000cc9 20ea
000cca eee2
000ccb eeeb      	.DB  0xF7,0xE8,0xEA,0x20,0xE2,0xEE,0xEB,0xEE
000ccc eee3
000ccd f2f1
000cce 20fb
000ccf 7525      	.DB  0xE3,0xEE,0xF1,0xF2,0xFB,0x20,0x25,0x75
E:\!PROJECTS\C++\2023\GreenhouseNewFont\Debug\List\Greenhouse.asm(1967): warning: .cseg .db misalignment - padding zero byte
000cd0 0000      	.DB  0x0
                 _0x2020003:
E:\!PROJECTS\C++\2023\GreenhouseNewFont\Debug\List\Greenhouse.asm(1969): warning: .cseg .db misalignment - padding zero byte
000cd1 0007      	.DB  0x7
                 _0x2060060:
E:\!PROJECTS\C++\2023\GreenhouseNewFont\Debug\List\Greenhouse.asm(1971): warning: .cseg .db misalignment - padding zero byte
000cd2 0001      	.DB  0x1
                 _0x2060000:
000cd3 4e2d
000cd4 4e41
000cd5 4900
000cd6 464e      	.DB  0x2D,0x4E,0x41,0x4E,0x0,0x49,0x4E,0x46
E:\!PROJECTS\C++\2023\GreenhouseNewFont\Debug\List\Greenhouse.asm(1974): warning: .cseg .db misalignment - padding zero byte
000cd7 0000      	.DB  0x0
                 
                 __GLOBAL_INI_TBL:
000cd8 0002      	.DW  0x02
000cd9 0002      	.DW  0x02
000cda 16c2      	.DW  __REG_BIT_VARS*2
                 
000cdb 0001      	.DW  0x01
000cdc 0371      	.DW  _dacU
000cdd 16c4      	.DW  _0x3*2
                 
000cde 0004      	.DW  0x04
000cdf 03bf      	.DW  _alarm
000ce0 16c6      	.DW  _0x4*2
                 
000ce1 0002      	.DW  0x02
000ce2 03c7      	.DW  _fillScreen
000ce3 16ca      	.DW  _0x5*2
                 
000ce4 0002      	.DW  0x02
000ce5 03c9      	.DW  _pvT
000ce6 16cc      	.DW  _0x6*2
                 
000ce7 0002      	.DW  0x02
000ce8 03cd      	.DW  _pvRH
000ce9 16ce      	.DW  _0x7*2
                 
000cea 0004      	.DW  0x04
000ceb 03f7      	.DW  _analog
000cec 16fc      	.DW  _0xD*2
                 
000ced 0004      	.DW  0x04
000cee 03fb      	.DW  _relay
000cef 1700      	.DW  _0xE*2
                 
000cf0 0004      	.DW  0x04
000cf1 0363      	.DW  _Font_11x18
000cf2 1704      	.DW  _0xF*2
                 
000cf3 0002      	.DW  0x02
000cf4 0260      	.DW  _0xB5
000cf5 17bb      	.DW  _0x0*2+179
                 
000cf6 0002      	.DW  0x02
000cf7 0262      	.DW  _0xB5+2
000cf8 17bd      	.DW  _0x0*2+181
                 
000cf9 0011      	.DW  0x11
000cfa 0264      	.DW  _0x1FA
000cfb 17bf      	.DW  _0x0*2+183
                 
000cfc 0011      	.DW  0x11
000cfd 0275      	.DW  _0x1FA+17
000cfe 17bf      	.DW  _0x0*2+183
                 
000cff 0011      	.DW  0x11
000d00 0286      	.DW  _0x1FA+34
000d01 17bf      	.DW  _0x0*2+183
                 
000d02 000c      	.DW  0x0C
000d03 0297      	.DW  _0x247
000d04 1821      	.DW  _0x0*2+281
                 
000d05 000a      	.DW  0x0A
000d06 02a3      	.DW  _0x247+12
000d07 1841      	.DW  _0x0*2+313
                 
000d08 0014      	.DW  0x14
000d09 02ad      	.DW  _0x247+22
000d0a 1858      	.DW  _0x0*2+336
                 
000d0b 0004      	.DW  0x04
000d0c 02c1      	.DW  _0x247+42
000d0d 1876      	.DW  _0x0*2+366
                 
000d0e 0016      	.DW  0x16
000d0f 02c5      	.DW  _0x247+46
000d10 187a      	.DW  _0x0*2+370
                 
000d11 0013      	.DW  0x13
000d12 02db      	.DW  _0x247+68
000d13 1890      	.DW  _0x0*2+392
                 
000d14 0008      	.DW  0x08
000d15 02ee      	.DW  _0x247+87
000d16 18af      	.DW  _0x0*2+423
                 
000d17 0016      	.DW  0x16
000d18 02f6      	.DW  _0x247+95
000d19 18b7      	.DW  _0x0*2+431
                 
000d1a 000c      	.DW  0x0C
000d1b 030c      	.DW  _0x264
000d1c 18cd      	.DW  _0x0*2+453
                 
000d1d 0010      	.DW  0x10
000d1e 0318      	.DW  _0x26F
000d1f 18e3      	.DW  _0x0*2+475
                 
000d20 0004      	.DW  0x04
000d21 0328      	.DW  _0x26F+16
000d22 18ff      	.DW  _0x0*2+503
                 
000d23 0004      	.DW  0x04
000d24 032c      	.DW  _0x26F+20
000d25 1903      	.DW  _0x0*2+507
                 
000d26 0004      	.DW  0x04
000d27 0330      	.DW  _0x26F+24
000d28 1907      	.DW  _0x0*2+511
                 
000d29 0004      	.DW  0x04
000d2a 0334      	.DW  _0x26F+28
000d2b 18ff      	.DW  _0x0*2+503
                 
000d2c 0004      	.DW  0x04
000d2d 0338      	.DW  _0x26F+32
000d2e 1935      	.DW  _0x0*2+557
                 
000d2f 0014      	.DW  0x14
000d30 033c      	.DW  _0x2AE
000d31 1951      	.DW  _0x0*2+585
                 
000d32 0008      	.DW  0x08
000d33 0350      	.DW  _0x2AE+20
000d34 1965      	.DW  _0x0*2+605
                 
000d35 0008      	.DW  0x08
000d36 0358      	.DW  _0x2AE+28
000d37 196d      	.DW  _0x0*2+613
                 
000d38 0001      	.DW  0x01
000d39 0362      	.DW  _twi_result
000d3a 19a2      	.DW  _0x2020003*2
                 
000d3b 0001      	.DW  0x01
000d3c 046c      	.DW  __seed_G103
000d3d 19a4      	.DW  _0x2060060*2
                 
                 _0xFFFFFFFF:
000d3e 0000      	.DW  0
                 
                 #define __GLOBAL_INI_TBL_PRESENT 1
                 
                 __RESET:
000d3f 94f8      	CLI
000d40 27ee      	CLR  R30
000d41 bbec      	OUT  EECR,R30
                 
                 ;INTERRUPT VECTORS ARE PLACED
                 ;AT THE START OF FLASH
000d42 e0f1      	LDI  R31,1
000d43 bffb      	OUT  GICR,R31
000d44 bfeb      	OUT  GICR,R30
000d45 bfe5      	OUT  MCUCR,R30
                 
                 ;CLEAR R2-R14
000d46 e08d      	LDI  R24,(14-2)+1
000d47 e0a2      	LDI  R26,2
000d48 27bb      	CLR  R27
                 __CLEAR_REG:
000d49 93ed      	ST   X+,R30
000d4a 958a      	DEC  R24
000d4b f7e9      	BRNE __CLEAR_REG
                 
                 ;CLEAR SRAM
000d4c e080      	LDI  R24,LOW(__CLEAR_SRAM_SIZE)
000d4d e098      	LDI  R25,HIGH(__CLEAR_SRAM_SIZE)
000d4e e6a0      	LDI  R26,__SRAM_START
                 __CLEAR_SRAM:
000d4f 93ed      	ST   X+,R30
000d50 9701      	SBIW R24,1
000d51 f7e9      	BRNE __CLEAR_SRAM
                 
                 ;GLOBAL VARIABLES INITIALIZATION
000d52 ebe0      	LDI  R30,LOW(__GLOBAL_INI_TBL*2)
000d53 e1f9      	LDI  R31,HIGH(__GLOBAL_INI_TBL*2)
                 __GLOBAL_INI_NEXT:
000d54 9185      	LPM  R24,Z+
000d55 9195      	LPM  R25,Z+
000d56 9700      	SBIW R24,0
000d57 f061      	BREQ __GLOBAL_INI_END
000d58 91a5      	LPM  R26,Z+
000d59 91b5      	LPM  R27,Z+
000d5a 9005      	LPM  R0,Z+
000d5b 9015      	LPM  R1,Z+
000d5c 01bf      	MOVW R22,R30
000d5d 01f0      	MOVW R30,R0
                 __GLOBAL_INI_LOOP:
000d5e 9005      	LPM  R0,Z+
000d5f 920d      	ST   X+,R0
000d60 9701      	SBIW R24,1
000d61 f7e1      	BRNE __GLOBAL_INI_LOOP
000d62 01fb      	MOVW R30,R22
000d63 cff0      	RJMP __GLOBAL_INI_NEXT
                 __GLOBAL_INI_END:
                 
                 ;HARDWARE STACK POINTER INITIALIZATION
000d64 e5ef      	LDI  R30,LOW(__SRAM_END-__HEAP_SIZE)
000d65 bfed      	OUT  SPL,R30
000d66 e0e8      	LDI  R30,HIGH(__SRAM_END-__HEAP_SIZE)
000d67 bfee      	OUT  SPH,R30
                 
                 ;DATA STACK POINTER INITIALIZATION
000d68 e6c0      	LDI  R28,LOW(__SRAM_START+__DSTACK_SIZE)
000d69 e0d2      	LDI  R29,HIGH(__SRAM_START+__DSTACK_SIZE)
                 
000d6a 940c 1a35 	JMP  _main
                 
                 	.ESEG
                 	.ORG 0
                 
                 	.DSEG
                 	.ORG 0x260
                 
                 	.CSEG
                 ;/*******************************************************
                 ;Project : Greenhouse
                 ;Version : 0.0
                 ;Date    : 07.10.2022
                 ;Chip type               : ATmega32
                 ;Program type            : Application
                 ;Clock frequency     : 16 MHz
                 ;Programm size       : 11358 words (22716 bytes), 69,3% of FLASH 11.09.2022
                 ;*******************************************************/
                 ;
                 ;#include <mega32.h>
                 	#ifndef __SLEEP_DEFINED__
                 	#define __SLEEP_DEFINED__
                 	.EQU __se_bit=0x80
                 	.EQU __sm_mask=0x70
                 	.EQU __sm_powerdown=0x20
                 	.EQU __sm_powersave=0x30
                 	.EQU __sm_standby=0x60
                 	.EQU __sm_ext_standby=0x70
                 	.EQU __sm_adc_noise_red=0x10
                 	.SET power_ctrl_reg=mcucr
                 	#endif
                 ;#include <stdio.h>
                 ;#include <twi.h>
                 ;#include <delay.h>
                 ;#include <stdio.h>
                 ;#include <math.h>
                 ;#include <stdlib.h>
                 ;#include <string.h>
                 ;#include <1wire.h>
                 ;#include "fontsN.h"
                 ;#include "tft.h"
                 ;#include "9341.h"
                 ;//*********************************
                 ;#define CSDAC1		    PORTD.4
                 ;#define CSDAC2		    PORTD.5
                 ;#define CSDAC3		    PORTD.6
                 ;#define CSDAC4	        PORTD.7
                 ;#define CONECT          PINB.3    //  bluetooth    +3,3
                 ;#define MAX_DEVICES     3
                 ;#define MAX_MENU        5
                 ;#define MAX_SET         4
                 ;#define MAX_DATE        5
                 ;
                 ;#define ON              1
                 ;#define OFF             0
                 ;#define UNCHANGED       2
                 ;#define MISTAKE         3
                 ;#define ZERO	        50
                 ;
                 ;#define SBLK		    0x91      //   
                 ;#define BSTR		    0x81      //   
                 ;#define EBLK            0xF1      //   
                 ;#define DS3231          0xD0      //  
                 ;
                 ;#define SPI_MOUD_FL	    0x51	  // SPI Type: Master, Clock Rate: 1000,000 kHz, Clock Phase: Cycle Half, Clock Polarity: L ...
                 ;#define TWI_CLK_RATE    100000    // TWI clock rate [bps]
                 ;#define EEPROM_TWI_BUS_ADDRESS (0xA0 >> 1)// 7 bit TWI bus slave address of the AT24C16B 2kbyte EEPROM
                 ;#define ADC_VREF_TYPE   0x40
                 ;
                 ;// Declare your global variables here
                 ;unsigned char BeepT, displ_num, newSetButt, ds18b20, pointY, DHTexist, signchar, intval, frcval, error;
                 ;signed char numMenu, numSet/*, displCO2, timerCO2*/;
                 ;unsigned char relOut[4]={0}, analogOut[4]={0}, dacU[4]={ZERO}, buff[40], familycode[MAX_DEVICES][9], clock_buffer[7], al ...
                 
                 	.DSEG
                 ;unsigned int  max_X, max_Y, fillScreen = BLACK;
                 ;signed int pvT=1990, offsetT, pvRH=1990, offsetRH, pvCO2, pvPH, newval[MAX_DATE];
                 ;unsigned char *ptr_char;
                 ;const char* setMenu[MAX_MENU]={"","","","","  "};
                 ;const char* setName0[MAX_SET]={"",".",".",""};
                 ;const char* setName1[MAX_SET]={"","", ".",""};
                 ;const char* setName2[MAX_SET]={" "," "," ",""};
                 ;const char* setName3[MAX_DATE]={"","","","",""};
                 ;//--------------- union declaration -----------------------------------------------
                 ;union {signed int point[MAX_DEVICES]; unsigned char buff[];} t; //   
                 ;union {unsigned char buffer[8]; unsigned int pvT;} ds;          //   DS18B20
                 ;union {unsigned char buffer[4]; unsigned int val[2];} in;
                 ;union {unsigned char buffer[4]; unsigned int val[2];} out;
                 ;//---------------------------------------------------------------------------------
                 ;signed char analog[4]={-1,30,90,-1};
                 ;signed char relay[4]={2,2,2,2};
                 ;float Told1[5], Told2[5];
                 ;
                 ;//-------------------------
                 ;eeprom signed int set[5][4]={
                 ;                     {270,10, 5, 0},  // Tset; dTalarm; hysteresis;  mode=0 ->  / mode=1 -> ;
                 ;                     { 55, 5, 5, 0},  // RHset; dRHalarm; hysteresis;  mode=0 ->  / mode=1 -> ;
                 ;                     {250, 8, 4, 0},  // Tset; dTalarm; hysteresis;  mode=0 ->  / mode=1 -> ;
                 ;                     {  5,10, 1, 0},  // tmOn; tmOff; dimension=0 ->  / direction=1 -> ; dimension=0 ->  ...
                 ;                     {  0, 0, 0, 0}}; //   T;   ;   = 0 -> DHT21; Other = 1 -> ...
                 ;
                 ;bit Sec;
                 ;bit Clock_Ok;
                 ;bit Dht;
                 ;bit Soil;
                 ;bit pHsensor;
                 ;bit typeS;
                 ;bit CO2module;          //   2
                 ;bit CheckCO2;           //     2
                 ;
                 ;//- prototypes ------
                 ;
                 ;
                 ;#include "fontsN.c"
                 ;
                 ;flash uint16_t Font11x18 [] = {
                 ;0x0000, 0x0000, 0x0000, 0x0000, 0x0000, 0x0000, 0x0000, 0x0000, 0x0000, 0x0000, 0x0000, 0x0000, 0x0000, 0x0000, 0x0000,  ...
                 ;0x0000, 0x0C00, 0x0C00, 0x0C00, 0x0C00, 0x0C00, 0x0C00, 0x0C00, 0x0C00, 0x0C00, 0x0C00, 0x0C00, 0x0000, 0x0C00, 0x0C00,  ...
                 ;0x0000, 0x1B00, 0x1B00, 0x1B00, 0x1B00, 0x1B00, 0x0000, 0x0000, 0x0000, 0x0000, 0x0000, 0x0000, 0x0000, 0x0000, 0x0000,  ...
                 ;0x0000, 0x1980, 0x1980, 0x1980, 0x1980, 0x7FC0, 0x7FC0, 0x1980, 0x3300, 0x7FC0, 0x7FC0, 0x3300, 0x3300, 0x3300, 0x3300,  ...
                 ;0x0000, 0x1E00, 0x3F00, 0x7580, 0x6580, 0x7400, 0x3C00, 0x1E00, 0x0700, 0x0580, 0x6580, 0x6580, 0x7580, 0x3F00, 0x1E00,  ...
                 ;0x0000, 0x7000, 0xD800, 0xD840, 0xD8C0, 0xD980, 0x7300, 0x0600, 0x0C00, 0x1B80, 0x36C0, 0x66C0, 0x46C0, 0x06C0, 0x0380,  ...
                 ;0x0000, 0x1E00, 0x3F00, 0x3300, 0x3300, 0x3300, 0x1E00, 0x0C00, 0x3CC0, 0x66C0, 0x6380, 0x6180, 0x6380, 0x3EC0, 0x1C80,  ...
                 ;0x0000, 0x0C00, 0x0C00, 0x0C00, 0x0C00, 0x0C00, 0x0000, 0x0000, 0x0000, 0x0000, 0x0000, 0x0000, 0x0000, 0x0000, 0x0000,  ...
                 ;0x0080, 0x0100, 0x0300, 0x0600, 0x0600, 0x0400, 0x0C00, 0x0C00, 0x0C00, 0x0C00, 0x0C00, 0x0C00, 0x0400, 0x0600, 0x0600,  ...
                 ;0x2000, 0x1000, 0x1800, 0x0C00, 0x0C00, 0x0400, 0x0600, 0x0600, 0x0600, 0x0600, 0x0600, 0x0600, 0x0400, 0x0C00, 0x0C00,  ...
                 ;0x0000, 0x0C00, 0x2D00, 0x3F00, 0x1E00, 0x3300, 0x0000, 0x0000, 0x0000, 0x0000, 0x0000, 0x0000, 0x0000, 0x0000, 0x0000,  ...
                 ;0x0000, 0x0000, 0x0000, 0x0C00, 0x0C00, 0x0C00, 0x0C00, 0xFFC0, 0xFFC0, 0x0C00, 0x0C00, 0x0C00, 0x0C00, 0x0000, 0x0000,  ...
                 ;0x0000, 0x0000, 0x0000, 0x0000, 0x0000, 0x0000, 0x0000, 0x0000, 0x0000, 0x0000, 0x0000, 0x0000, 0x0000, 0x0C00, 0x0C00,  ...
                 ;0x0000, 0x0000, 0x0000, 0x0000, 0x0000, 0x0000, 0x0000, 0x0000, 0x0000, 0x1E00, 0x1E00, 0x0000, 0x0000, 0x0000, 0x0000,  ...
                 ;0x0000, 0x0000, 0x0000, 0x0000, 0x0000, 0x0000, 0x0000, 0x0000, 0x0000, 0x0000, 0x0000, 0x0000, 0x0000, 0x0C00, 0x0C00,  ...
                 ;0x0000, 0x0300, 0x0300, 0x0300, 0x0600, 0x0600, 0x0600, 0x0600, 0x0C00, 0x0C00, 0x0C00, 0x0C00, 0x1800, 0x1800, 0x1800,  ...
                 ;0x0000, 0x1E00, 0x3F00, 0x3300, 0x6180, 0x6180, 0x6180, 0x6D80, 0x6D80, 0x6180, 0x6180, 0x6180, 0x3300, 0x3F00, 0x1E00,  ...
                 ;0x0000, 0x0600, 0x0E00, 0x1E00, 0x3600, 0x2600, 0x0600, 0x0600, 0x0600, 0x0600, 0x0600, 0x0600, 0x0600, 0x0600, 0x0600,  ...
                 ;0x0000, 0x1E00, 0x3F00, 0x7380, 0x6180, 0x6180, 0x0180, 0x0300, 0x0600, 0x0C00, 0x1800, 0x3000, 0x6000, 0x7F80, 0x7F80,  ...
                 ;0x0000, 0x1C00, 0x3E00, 0x6300, 0x6300, 0x0300, 0x0E00, 0x0E00, 0x0300, 0x0180, 0x0180, 0x6180, 0x7380, 0x3F00, 0x1E00,  ...
                 ;0x0000, 0x0600, 0x0E00, 0x0E00, 0x1E00, 0x1E00, 0x1600, 0x3600, 0x3600, 0x6600, 0x7F80, 0x7F80, 0x0600, 0x0600, 0x0600,  ...
                 ;0x0000, 0x7F00, 0x7F00, 0x6000, 0x6000, 0x6000, 0x6E00, 0x7F00, 0x6380, 0x0180, 0x0180, 0x6180, 0x7380, 0x3F00, 0x1E00,  ...
                 ;0x0000, 0x1E00, 0x3F00, 0x3380, 0x6180, 0x6000, 0x6E00, 0x7F00, 0x7380, 0x6180, 0x6180, 0x6180, 0x3380, 0x3F00, 0x1E00,  ...
                 ;0x0000, 0x7F80, 0x7F80, 0x0180, 0x0300, 0x0300, 0x0600, 0x0600, 0x0C00, 0x0C00, 0x0C00, 0x0800, 0x1800, 0x1800, 0x1800,  ...
                 ;0x0000, 0x1E00, 0x3F00, 0x6380, 0x6180, 0x6180, 0x2100, 0x1E00, 0x3F00, 0x6180, 0x6180, 0x6180, 0x6180, 0x3F00, 0x1E00,  ...
                 ;0x0000, 0x1E00, 0x3F00, 0x7300, 0x6180, 0x6180, 0x6180, 0x7380, 0x3F80, 0x1D80, 0x0180, 0x6180, 0x7300, 0x3F00, 0x1E00,  ...
                 ;0x0000, 0x0000, 0x0000, 0x0000, 0x0000, 0x0C00, 0x0C00, 0x0000, 0x0000, 0x0000, 0x0000, 0x0000, 0x0000, 0x0C00, 0x0C00,  ...
                 ;0x0000, 0x0000, 0x0000, 0x0000, 0x0000, 0x0000, 0x0C00, 0x0C00, 0x0000, 0x0000, 0x0000, 0x0000, 0x0000, 0x0C00, 0x0C00,  ...
                 ;0x0000, 0x0000, 0x0000, 0x0000, 0x0080, 0x0380, 0x0E00, 0x3800, 0x6000, 0x3800, 0x0E00, 0x0380, 0x0080, 0x0000, 0x0000,  ...
                 ;0x0000, 0x0000, 0x0000, 0x0000, 0x0000, 0x7F80, 0x7F80, 0x0000, 0x0000, 0x7F80, 0x7F80, 0x0000, 0x0000, 0x0000, 0x0000,  ...
                 ;0x0000, 0x0000, 0x0000, 0x0000, 0x4000, 0x7000, 0x1C00, 0x0700, 0x0180, 0x0700, 0x1C00, 0x7000, 0x4000, 0x0000, 0x0000,  ...
                 ;0x0000, 0x1F00, 0x3F80, 0x71C0, 0x60C0, 0x00C0, 0x01C0, 0x0380, 0x0700, 0x0E00, 0x0C00, 0x0C00, 0x0000, 0x0C00, 0x0C00,  ...
                 ;0x0000, 0x1E00, 0x3F00, 0x3180, 0x7180, 0x6380, 0x6F80, 0x6D80, 0x6D80, 0x6F80, 0x6780, 0x6000, 0x3200, 0x3E00, 0x1C00,  ...
                 ;0x0000, 0x0E00, 0x0E00, 0x1B00, 0x1B00, 0x1B00, 0x1B00, 0x3180, 0x3180, 0x3F80, 0x3F80, 0x3180, 0x60C0, 0x60C0, 0x60C0,  ...
                 ;0x0000, 0x7C00, 0x7E00, 0x6300, 0x6300, 0x6300, 0x6300, 0x7E00, 0x7E00, 0x6300, 0x6180, 0x6180, 0x6380, 0x7F00, 0x7E00,  ...
                 ;0x0000, 0x1E00, 0x3F00, 0x3180, 0x6180, 0x6000, 0x6000, 0x6000, 0x6000, 0x6000, 0x6000, 0x6180, 0x3180, 0x3F00, 0x1E00,  ...
                 ;0x0000, 0x7C00, 0x7F00, 0x6300, 0x6380, 0x6180, 0x6180, 0x6180, 0x6180, 0x6180, 0x6180, 0x6300, 0x6300, 0x7E00, 0x7C00,  ...
                 ;0x0000, 0x7F80, 0x7F80, 0x6000, 0x6000, 0x6000, 0x6000, 0x7F00, 0x7F00, 0x6000, 0x6000, 0x6000, 0x6000, 0x7F80, 0x7F80,  ...
                 ;0x0000, 0x7F80, 0x7F80, 0x6000, 0x6000, 0x6000, 0x6000, 0x7F00, 0x7F00, 0x6000, 0x6000, 0x6000, 0x6000, 0x6000, 0x6000,  ...
                 ;0x0000, 0x1E00, 0x3F00, 0x3180, 0x6180, 0x6000, 0x6000, 0x6000, 0x6380, 0x6380, 0x6180, 0x6180, 0x3180, 0x3F80, 0x1E00,  ...
                 ;0x0000, 0x6180, 0x6180, 0x6180, 0x6180, 0x6180, 0x6180, 0x7F80, 0x7F80, 0x6180, 0x6180, 0x6180, 0x6180, 0x6180, 0x6180,  ...
                 ;0x0000, 0x3F00, 0x3F00, 0x0C00, 0x0C00, 0x0C00, 0x0C00, 0x0C00, 0x0C00, 0x0C00, 0x0C00, 0x0C00, 0x0C00, 0x3F00, 0x3F00,  ...
                 ;0x0000, 0x0180, 0x0180, 0x0180, 0x0180, 0x0180, 0x0180, 0x0180, 0x0180, 0x0180, 0x6180, 0x6180, 0x7380, 0x3F00, 0x1E00,  ...
                 ;0x0000, 0x60C0, 0x6180, 0x6300, 0x6600, 0x6600, 0x6C00, 0x7800, 0x7C00, 0x6600, 0x6600, 0x6300, 0x6180, 0x6180, 0x60C0,  ...
                 ;0x0000, 0x6000, 0x6000, 0x6000, 0x6000, 0x6000, 0x6000, 0x6000, 0x6000, 0x6000, 0x6000, 0x6000, 0x6000, 0x7F80, 0x7F80,  ...
                 ;0x0000, 0x71C0, 0x71C0, 0x7BC0, 0x7AC0, 0x6AC0, 0x6AC0, 0x6EC0, 0x64C0, 0x60C0, 0x60C0, 0x60C0, 0x60C0, 0x60C0, 0x60C0,  ...
                 ;0x0000, 0x7180, 0x7180, 0x7980, 0x7980, 0x7980, 0x6D80, 0x6D80, 0x6D80, 0x6580, 0x6780, 0x6780, 0x6780, 0x6380, 0x6380,  ...
                 ;0x0000, 0x1E00, 0x3F00, 0x3300, 0x6180, 0x6180, 0x6180, 0x6180, 0x6180, 0x6180, 0x6180, 0x6180, 0x3300, 0x3F00, 0x1E00,  ...
                 ;0x0000, 0x7E00, 0x7F00, 0x6380, 0x6180, 0x6180, 0x6180, 0x6380, 0x7F00, 0x7E00, 0x6000, 0x6000, 0x6000, 0x6000, 0x6000,  ...
                 ;0x0000, 0x1E00, 0x3F00, 0x3300, 0x6180, 0x6180, 0x6180, 0x6180, 0x6180, 0x6180, 0x6580, 0x6780, 0x3300, 0x3F80, 0x1E40,  ...
                 ;0x0000, 0x7E00, 0x7F00, 0x6380, 0x6180, 0x6180, 0x6380, 0x7F00, 0x7E00, 0x6600, 0x6300, 0x6300, 0x6180, 0x6180, 0x60C0,  ...
                 ;0x0000, 0x0E00, 0x1F00, 0x3180, 0x3180, 0x3000, 0x3800, 0x1E00, 0x0700, 0x0380, 0x6180, 0x6180, 0x3180, 0x3F00, 0x1E00,  ...
                 ;0x0000, 0xFFC0, 0xFFC0, 0x0C00, 0x0C00, 0x0C00, 0x0C00, 0x0C00, 0x0C00, 0x0C00, 0x0C00, 0x0C00, 0x0C00, 0x0C00, 0x0C00,  ...
                 ;0x0000, 0x6180, 0x6180, 0x6180, 0x6180, 0x6180, 0x6180, 0x6180, 0x6180, 0x6180, 0x6180, 0x6180, 0x7380, 0x3F00, 0x1E00,  ...
                 ;0x0000, 0x60C0, 0x60C0, 0x60C0, 0x3180, 0x3180, 0x3180, 0x1B00, 0x1B00, 0x1B00, 0x1B00, 0x0E00, 0x0E00, 0x0E00, 0x0400,  ...
                 ;0x0000, 0xC0C0, 0xC0C0, 0xC0C0, 0xC0C0, 0xC0C0, 0xCCC0, 0x4C80, 0x4C80, 0x5E80, 0x5280, 0x5280, 0x7380, 0x6180, 0x6180,  ...
                 ;0x0000, 0xC0C0, 0x6080, 0x6180, 0x3300, 0x3B00, 0x1E00, 0x0C00, 0x0C00, 0x1E00, 0x1F00, 0x3B00, 0x7180, 0x6180, 0xC0C0,  ...
                 ;0x0000, 0xC0C0, 0x6180, 0x6180, 0x3300, 0x3300, 0x1E00, 0x1E00, 0x0C00, 0x0C00, 0x0C00, 0x0C00, 0x0C00, 0x0C00, 0x0C00,  ...
                 ;0x0000, 0x3F80, 0x3F80, 0x0180, 0x0300, 0x0300, 0x0600, 0x0C00, 0x0C00, 0x1800, 0x1800, 0x3000, 0x6000, 0x7F80, 0x7F80,  ...
                 ;0x0F00, 0x0F00, 0x0C00, 0x0C00, 0x0C00, 0x0C00, 0x0C00, 0x0C00, 0x0C00, 0x0C00, 0x0C00, 0x0C00, 0x0C00, 0x0C00, 0x0C00,  ...
                 ;0x0000, 0x1800, 0x1800, 0x1800, 0x0C00, 0x0C00, 0x0C00, 0x0C00, 0x0600, 0x0600, 0x0600, 0x0600, 0x0300, 0x0300, 0x0300,  ...
                 ;0x1E00, 0x1E00, 0x0600, 0x0600, 0x0600, 0x0600, 0x0600, 0x0600, 0x0600, 0x0600, 0x0600, 0x0600, 0x0600, 0x0600, 0x0600,  ...
                 ;0x0000, 0x0C00, 0x0C00, 0x1E00, 0x1200, 0x3300, 0x3300, 0x6180, 0x6180, 0x0000, 0x0000, 0x0000, 0x0000, 0x0000, 0x0000,  ...
                 ;0x0000, 0x0000, 0x0000, 0x0000, 0x0000, 0x0000, 0x0000, 0x0000, 0x0000, 0x0000, 0x0000, 0x0000, 0x0000, 0x0000, 0x0000,  ...
                 ;0x0000, 0x3800, 0x1800, 0x0C00, 0x0000, 0x0000, 0x0000, 0x0000, 0x0000, 0x0000, 0x0000, 0x0000, 0x0000, 0x0000, 0x0000,  ...
                 ;0x0000, 0x0000, 0x0000, 0x0000, 0x0000, 0x1F00, 0x3F80, 0x6180, 0x0180, 0x1F80, 0x3F80, 0x6180, 0x6380, 0x7F80, 0x38C0,  ...
                 ;0x0000, 0x6000, 0x6000, 0x6000, 0x6000, 0x6E00, 0x7F00, 0x7380, 0x6180, 0x6180, 0x6180, 0x6180, 0x7380, 0x7F00, 0x6E00,  ...
                 ;0x0000, 0x0000, 0x0000, 0x0000, 0x0000, 0x1E00, 0x3F00, 0x7380, 0x6180, 0x6000, 0x6000, 0x6180, 0x7380, 0x3F00, 0x1E00,  ...
                 ;0x0000, 0x0180, 0x0180, 0x0180, 0x0180, 0x1D80, 0x3F80, 0x7380, 0x6180, 0x6180, 0x6180, 0x6180, 0x7380, 0x3F80, 0x1D80,  ...
                 ;0x0000, 0x0000, 0x0000, 0x0000, 0x0000, 0x1E00, 0x3F00, 0x7300, 0x6180, 0x7F80, 0x7F80, 0x6000, 0x7180, 0x3F00, 0x1E00,  ...
                 ;0x0000, 0x07C0, 0x0FC0, 0x0C00, 0x0C00, 0x7F80, 0x7F80, 0x0C00, 0x0C00, 0x0C00, 0x0C00, 0x0C00, 0x0C00, 0x0C00, 0x0C00,  ...
                 ;0x0000, 0x0000, 0x0000, 0x0000, 0x1D80, 0x3F80, 0x7380, 0x6180, 0x6180, 0x6180, 0x6180, 0x7380, 0x3F80, 0x1D80, 0x0180,  ...
                 ;0x0000, 0x6000, 0x6000, 0x6000, 0x6000, 0x6F00, 0x7F80, 0x7180, 0x6180, 0x6180, 0x6180, 0x6180, 0x6180, 0x6180, 0x6180,  ...
                 ;0x0000, 0x0600, 0x0600, 0x0000, 0x0000, 0x3E00, 0x3E00, 0x0600, 0x0600, 0x0600, 0x0600, 0x0600, 0x0600, 0x0600, 0x0600,  ...
                 ;0x0600, 0x0600, 0x0000, 0x0000, 0x3E00, 0x3E00, 0x0600, 0x0600, 0x0600, 0x0600, 0x0600, 0x0600, 0x0600, 0x0600, 0x0600,  ...
                 ;0x0000, 0x6000, 0x6000, 0x6000, 0x6000, 0x6180, 0x6300, 0x6600, 0x6C00, 0x7C00, 0x7600, 0x6300, 0x6300, 0x6180, 0x60C0,  ...
                 ;0x0000, 0x3E00, 0x3E00, 0x0600, 0x0600, 0x0600, 0x0600, 0x0600, 0x0600, 0x0600, 0x0600, 0x0600, 0x0600, 0x0600, 0x0600,  ...
                 ;0x0000, 0x0000, 0x0000, 0x0000, 0x0000, 0xDD80, 0xFFC0, 0xCEC0, 0xCCC0, 0xCCC0, 0xCCC0, 0xCCC0, 0xCCC0, 0xCCC0, 0xCCC0,  ...
                 ;0x0000, 0x0000, 0x0000, 0x0000, 0x0000, 0x6F00, 0x7F80, 0x7180, 0x6180, 0x6180, 0x6180, 0x6180, 0x6180, 0x6180, 0x6180,  ...
                 ;0x0000, 0x0000, 0x0000, 0x0000, 0x0000, 0x1E00, 0x3F00, 0x7380, 0x6180, 0x6180, 0x6180, 0x6180, 0x7380, 0x3F00, 0x1E00,  ...
                 ;0x0000, 0x0000, 0x0000, 0x0000, 0x6E00, 0x7F00, 0x7380, 0x6180, 0x6180, 0x6180, 0x6180, 0x7380, 0x7F00, 0x6E00, 0x6000,  ...
                 ;0x0000, 0x0000, 0x0000, 0x0000, 0x1D80, 0x3F80, 0x7380, 0x6180, 0x6180, 0x6180, 0x6180, 0x7380, 0x3F80, 0x1D80, 0x0180,  ...
                 ;0x0000, 0x0000, 0x0000, 0x0000, 0x0000, 0x6700, 0x3F80, 0x3900, 0x3000, 0x3000, 0x3000, 0x3000, 0x3000, 0x3000, 0x3000,  ...
                 ;0x0000, 0x0000, 0x0000, 0x0000, 0x0000, 0x1E00, 0x3F80, 0x6180, 0x6000, 0x7F00, 0x3F80, 0x0180, 0x6180, 0x7F00, 0x1E00,  ...
                 ;0x0000, 0x0000, 0x0800, 0x1800, 0x1800, 0x7F00, 0x7F00, 0x1800, 0x1800, 0x1800, 0x1800, 0x1800, 0x1800, 0x1F80, 0x0F80,  ...
                 ;0x0000, 0x0000, 0x0000, 0x0000, 0x0000, 0x6180, 0x6180, 0x6180, 0x6180, 0x6180, 0x6180, 0x6180, 0x6380, 0x7F80, 0x3D80,  ...
                 ;0x0000, 0x0000, 0x0000, 0x0000, 0x0000, 0x60C0, 0x3180, 0x3180, 0x3180, 0x1B00, 0x1B00, 0x1B00, 0x0E00, 0x0E00, 0x0600,  ...
                 ;0x0000, 0x0000, 0x0000, 0x0000, 0x0000, 0xDD80, 0xDD80, 0xDD80, 0x5500, 0x5500, 0x5500, 0x7700, 0x7700, 0x2200, 0x2200,  ...
                 ;0x0000, 0x0000, 0x0000, 0x0000, 0x0000, 0x6180, 0x3300, 0x3300, 0x1E00, 0x0C00, 0x0C00, 0x1E00, 0x3300, 0x3300, 0x6180,  ...
                 ;0x0000, 0x0000, 0x0000, 0x0000, 0x6180, 0x6180, 0x3180, 0x3300, 0x3300, 0x1B00, 0x1B00, 0x1B00, 0x0E00, 0x0E00, 0x0E00,  ...
                 ;0x0000, 0x0000, 0x0000, 0x0000, 0x0000, 0x7FC0, 0x7FC0, 0x0180, 0x0300, 0x0600, 0x0C00, 0x1800, 0x3000, 0x7FC0, 0x7FC0,  ...
                 ;0x0380, 0x0780, 0x0600, 0x0600, 0x0600, 0x0600, 0x0600, 0x0E00, 0x1C00, 0x1C00, 0x0E00, 0x0600, 0x0600, 0x0600, 0x0600,  ...
                 ;0x0600, 0x0600, 0x0600, 0x0600, 0x0600, 0x0600, 0x0600, 0x0600, 0x0600, 0x0600, 0x0600, 0x0600, 0x0600, 0x0600, 0x0600,  ...
                 ;0x3800, 0x3C00, 0x0C00, 0x0C00, 0x0C00, 0x0C00, 0x0C00, 0x0E00, 0x0700, 0x0700, 0x0E00, 0x0C00, 0x0C00, 0x0C00, 0x0C00,  ...
                 ;0x0000, 0x0000, 0x0000, 0x0000, 0x0000, 0x0000, 0x0000, 0x3880, 0x7F80, 0x4700, 0x0000, 0x0000, 0x0000, 0x0000, 0x0000,  ...
                 ;0x0000, 0x0E00, 0x0E00, 0x1B00, 0x1B00, 0x1B00, 0x1B00, 0x3180, 0x3180, 0x3F80, 0x3F80, 0x3180, 0x60C0, 0x60C0, 0x60C0,  ...
                 ;0x0000, 0x7F00, 0x7F00, 0x6000, 0x6000, 0x6000, 0x6000, 0x7E00, 0x7E00, 0x6300, 0x6180, 0x6180, 0x6380, 0x7F00, 0x7C00,  ...
                 ;0x0000, 0x7C00, 0x7E00, 0x6300, 0x6300, 0x6300, 0x6300, 0x7E00, 0x7E00, 0x6300, 0x6180, 0x6180, 0x6380, 0x7F00, 0x7E00,  ...
                 ;0x0000, 0x7F00, 0x7F00, 0x6000, 0x6000, 0x6000, 0x6000, 0x6000, 0x6000, 0x6000, 0x6000, 0x6000, 0x6000, 0x6000, 0x6000,  ...
                 ;0x0000, 0x3F80, 0x3F80, 0x3180, 0x3180, 0x3180, 0x3180, 0x3180, 0x3180, 0x3180, 0x3180, 0x3180, 0x3180, 0xFFE0, 0xFFE0,  ...
                 ;0x0000, 0x7F80, 0x7F80, 0x6000, 0x6000, 0x6000, 0x6000, 0x7F00, 0x7F00, 0x6000, 0x6000, 0x6000, 0x6000, 0x7F80, 0x7F80,  ...
                 ;0x0000, 0xC460, 0x64C0, 0x64C0, 0x3580, 0x3580, 0x1F00, 0x1F00, 0x1F00, 0x1F00, 0x3580, 0x3580, 0x64C0, 0x64C0, 0xC460,  ...
                 ;0x0000, 0x3C00, 0x7E00, 0x0300, 0x0300, 0x0300, 0x0300, 0x7E00, 0x7E00, 0x0300, 0x0180, 0x0180, 0x0380, 0x7F00, 0x3E00,  ...
                 ;0x0000, 0x6180, 0x6180, 0x6180, 0x6180, 0x6380, 0x6780, 0x6F80, 0x7D80, 0x7980, 0x7180, 0x6180, 0x6180, 0x6180, 0x6180,  ...
                 ;0x0C00, 0x6D80, 0x6180, 0x6180, 0x6180, 0x6380, 0x6780, 0x6F80, 0x7D80, 0x7980, 0x7180, 0x6180, 0x6180, 0x6180, 0x6180,  ...
                 ;0x0000, 0x60C0, 0x6180, 0x6300, 0x6600, 0x6600, 0x6C00, 0x7800, 0x7C00, 0x6600, 0x6600, 0x6300, 0x6180, 0x6180, 0x60C0,  ...
                 ;0x0000, 0x3FC0, 0x3FC0, 0x30C0, 0x30C0, 0x30C0, 0x30C0, 0x30C0, 0x30C0, 0x30C0, 0x30C0, 0x30C0, 0x30C0, 0xF0C0, 0xF0C0,  ...
                 ;0x0000, 0x71C0, 0x71C0, 0x7BC0, 0x7AC0, 0x6AC0, 0x6AC0, 0x6EC0, 0x64C0, 0x60C0, 0x60C0, 0x60C0, 0x60C0, 0x60C0, 0x60C0,  ...
                 ;0x0000, 0x6180, 0x6180, 0x6180, 0x6180, 0x6180, 0x6180, 0x7F80, 0x7F80, 0x6180, 0x6180, 0x6180, 0x6180, 0x6180, 0x6180,  ...
                 ;0x0000, 0x1E00, 0x3F00, 0x3300, 0x6180, 0x6180, 0x6180, 0x6180, 0x6180, 0x6180, 0x6180, 0x6180, 0x3300, 0x3F00, 0x1E00,  ...
                 ;0x0000, 0x7FC0, 0x7FC0, 0x60C0, 0x60C0, 0x60C0, 0x60C0, 0x60C0, 0x60C0, 0x60C0, 0x60C0, 0x60C0, 0x60C0, 0x60C0, 0x60C0,  ...
                 ;0x0000, 0x7E00, 0x7F00, 0x6380, 0x6180, 0x6180, 0x6180, 0x6380, 0x7F00, 0x7E00, 0x6000, 0x6000, 0x6000, 0x6000, 0x6000,  ...
                 ;0x0000, 0x1E00, 0x3F00, 0x3180, 0x6180, 0x6000, 0x6000, 0x6000, 0x6000, 0x6000, 0x6000, 0x6180, 0x3180, 0x3F00, 0x1E00,  ...
                 ;0x0000, 0xFFC0, 0xFFC0, 0x0C00, 0x0C00, 0x0C00, 0x0C00, 0x0C00, 0x0C00, 0x0C00, 0x0C00, 0x0C00, 0x0C00, 0x0C00, 0x0C00,  ...
                 ;0x0000, 0xC0C0, 0x6180, 0x6180, 0x3300, 0x3300, 0x1F00, 0x1E00, 0x0E00, 0x0E00, 0x0C00, 0x1C00, 0x3800, 0x7000, 0xE000,  ...
                 ;0x0000, 0x0400, 0x1F00, 0x3580, 0x64C0, 0x64C0, 0xC460, 0xC460, 0x64C0, 0x64C0, 0x3580, 0x1F00, 0x0400, 0x0400, 0x0400,  ...
                 ;0x0000, 0xC0C0, 0x6080, 0x6180, 0x3300, 0x3B00, 0x1E00, 0x0C00, 0x0C00, 0x1E00, 0x1F00, 0x3B00, 0x7180, 0x6180, 0xC0C0,  ...
                 ;0x0000, 0x60C0, 0x60C0, 0x60C0, 0x60C0, 0x60C0, 0x60C0, 0x60C0, 0x60C0, 0x60C0, 0x60C0, 0x60C0, 0x60C0, 0x7FC0, 0x7FC0,  ...
                 ;0x0000, 0x6180, 0x6180, 0x6180, 0x6180, 0x6180, 0x6180, 0x7F80, 0x3F80, 0x0180, 0x0180, 0x0180, 0x0180, 0x01C0, 0x01C0,  ...
                 ;0x0000, 0xCCC0, 0xCCC0, 0xCCC0, 0xCCC0, 0xCCC0, 0xCCC0, 0xCCC0, 0xCCC0, 0xCCC0, 0xCCC0, 0xCCC0, 0xCCC0, 0xFFC0, 0xFFC0,  ...
                 ;0x0000, 0xCCC0, 0xCCC0, 0xCCC0, 0xCCC0, 0xCCC0, 0xCCC0, 0xCCC0, 0xCCC0, 0xCCC0, 0xCCC0, 0xCCC0, 0xCCC0, 0xFFC0, 0xFFC0,  ...
                 ;0x0000, 0x3F00, 0x3F00, 0x0C00, 0x0C00, 0x0C00, 0x0C00, 0x0C00, 0x0C00, 0x0C00, 0x0C00, 0x0C00, 0x0C00, 0x3F00, 0x3F00,  ...
                 ;0x0000, 0x3F00, 0x3F00, 0x0C00, 0x0C00, 0x0C00, 0x0C00, 0x0C00, 0x0C00, 0x0C00, 0x0C00, 0x0C00, 0x0C00, 0x3F00, 0x3F00,  ...
                 ;0x0000, 0x3000, 0x3000, 0x3000, 0x3000, 0x3C00, 0x3F00, 0x3300, 0x3180, 0x30C0, 0x30C0, 0x31C0, 0x3380, 0x3F00, 0x3E00,  ...
                 ;0x0000, 0x7800, 0x1E00, 0x0700, 0x0380, 0x0180, 0x0180, 0x7F80, 0x7F80, 0x0180, 0x0180, 0x0380, 0x0700, 0x1E00, 0x7800,  ...
                 ;0x0000, 0xC700, 0xCD80, 0xCD80, 0xD8C0, 0xD8C0, 0xF0C0, 0xF0C0, 0xF0C0, 0xD8C0, 0xD8C0, 0xCCC0, 0xCD80, 0xCD80, 0xC700,  ...
                 ;0x0000, 0x1F80, 0x7F80, 0x6180, 0xC180, 0xC180, 0xC180, 0x6180, 0x7F80, 0x1F80, 0x0F80, 0x1980, 0x3180, 0x6180, 0xC180,  ...
                 ;0x0000, 0x0000, 0x0000, 0x0000, 0x0000, 0x1F00, 0x3F80, 0x6180, 0x0180, 0x1F80, 0x3F80, 0x6180, 0x6380, 0x7F80, 0x38C0,  ...
                 ;0x0000, 0x0000, 0x0000, 0x0000, 0x0100, 0x3F00, 0x7F00, 0x6000, 0x7E00, 0x7F00, 0x6180, 0x6180, 0x6180, 0x7F00, 0x3E00,  ...
                 ;0x0000, 0x0000, 0x0000, 0x0000, 0x0000, 0x3E00, 0x7F00, 0x6100, 0x7E00, 0x7F00, 0x6180, 0x6180, 0x6180, 0x7F00, 0x3E00,  ...
                 ;0x0000, 0x0000, 0x0000, 0x0000, 0x0000, 0x7F00, 0x7F00, 0x6000, 0x6000, 0x6000, 0x6000, 0x6000, 0x6000, 0x6000, 0x6000,  ...
                 ;0x0000, 0x0000, 0x0000, 0x0000, 0x0000, 0x7F80, 0x7F80, 0x6180, 0x6180, 0x6180, 0x6180, 0x6180, 0x6180, 0x6180, 0xFFC0,  ...
                 ;0x0000, 0x0000, 0x0000, 0x0000, 0x0000, 0x1E00, 0x3F00, 0x7300, 0x6180, 0x7F80, 0x7F80, 0x6000, 0x7180, 0x3F00, 0x1E00,  ...
                 ;0x0000, 0x0000, 0x0000, 0x0000, 0x0000, 0xC460, 0x64C0, 0x3580, 0x1F00, 0x0E00, 0x1F00, 0x3580, 0x64C0, 0xC460, 0x8420,  ...
                 ;0x0000, 0x0000, 0x0000, 0x0000, 0x0000, 0x3E00, 0x3F00, 0x0100, 0x3E00, 0x3F00, 0x0180, 0x0180, 0x0180, 0x3F00, 0x3E00,  ...
                 ;0x0000, 0x0000, 0x0000, 0x0000, 0x0000, 0x6180, 0x6180, 0x6180, 0x6380, 0x6780, 0x6D80, 0x7980, 0x7180, 0x6180, 0x6180,  ...
                 ;0x0000, 0x0000, 0x0000, 0x0C00, 0x0C00, 0x6180, 0x6180, 0x6180, 0x6380, 0x6780, 0x6D80, 0x7980, 0x7180, 0x6180, 0x6180,  ...
                 ;0x0000, 0x0000, 0x0000, 0x0000, 0x0000, 0x6180, 0x6300, 0x6600, 0x6C00, 0x7C00, 0x7600, 0x6300, 0x6300, 0x6180, 0x60C0,  ...
                 ;0x0000, 0x0000, 0x0000, 0x0000, 0x0000, 0x3F80, 0x3F80, 0x3180, 0x3180, 0x3180, 0x3180, 0x3180, 0x3180, 0xF180, 0xF180,  ...
                 ;0x0000, 0x0000, 0x0000, 0x0000, 0x0000, 0xC060, 0xE0E0, 0xF1E0, 0xDB60, 0xCE60, 0xC460, 0xC460, 0xC060, 0xC060, 0xC060,  ...
                 ;0x0000, 0x0000, 0x0000, 0x0000, 0x0000, 0x6180, 0x6180, 0x6180, 0x6180, 0x7F80, 0x7F80, 0x6180, 0x6180, 0x6180, 0x6180,  ...
                 ;0x0000, 0x0000, 0x0000, 0x0000, 0x0000, 0x1E00, 0x3F00, 0x7380, 0x6180, 0x6180, 0x6180, 0x6180, 0x7380, 0x3F00, 0x1E00,  ...
                 ;0x0000, 0x0000, 0x0000, 0x0000, 0x0000, 0x7F80, 0x7F80, 0x6180, 0x6180, 0x6180, 0x6180, 0x6180, 0x6180, 0x6180, 0x6180,  ...
                 ;0x0000, 0x0000, 0x0000, 0x0000, 0x6E00, 0x7F00, 0x7380, 0x6180, 0x6180, 0x6180, 0x6180, 0x7380, 0x7F00, 0x6E00, 0x6000,  ...
                 ;0x0000, 0x0000, 0x0000, 0x0000, 0x0000, 0x1E00, 0x3F00, 0x7380, 0x6180, 0x6000, 0x6000, 0x6180, 0x7380, 0x3F00, 0x1E00,  ...
                 ;0x0000, 0x0000, 0x0000, 0x0000, 0x0000, 0x7F80, 0x7F80, 0x0C00, 0x0C00, 0x0C00, 0x0C00, 0x0C00, 0x0C00, 0x0C00, 0x0C00,  ...
                 ;0x0000, 0x0000, 0x0000, 0x0000, 0x0000, 0x60C0, 0x60C0, 0x3180, 0x1980, 0x0F00, 0x0700, 0x0600, 0x0E00, 0x0C00, 0x3800,  ...
                 ;0x0000, 0x0000, 0x0000, 0x0000, 0x0000, 0x0C00, 0x7F80, 0xCCC0, 0x8C40, 0x8C40, 0xCCC0, 0x7F80, 0x0C00, 0x0C00, 0x0C00,  ...
                 ;0x0000, 0x0000, 0x0000, 0x0000, 0x0000, 0x6180, 0x3300, 0x3300, 0x1E00, 0x0C00, 0x0C00, 0x1E00, 0x3300, 0x3300, 0x6180,  ...
                 ;0x0000, 0x0000, 0x0000, 0x0000, 0x0000, 0x6180, 0x6180, 0x6180, 0x6180, 0x6180, 0x6180, 0x6180, 0x6180, 0x7F80, 0x7F80,  ...
                 ;0x0000, 0x0000, 0x0000, 0x0000, 0x0000, 0x6180, 0x6180, 0x6180, 0x6180, 0x7F80, 0x7F80, 0x0180, 0x0180, 0x01C0, 0x01C0,  ...
                 ;0x0000, 0x0000, 0x0000, 0x0000, 0x0000, 0xCCC0, 0xCCC0, 0xCCC0, 0xCCC0, 0xCCC0, 0xCCC0, 0xCCC0, 0xCCC0, 0xFFC0, 0xFFC0,  ...
                 ;0x0000, 0x0000, 0x0000, 0x0000, 0x0000, 0xCCC0, 0xCCC0, 0xCCC0, 0xCCC0, 0xCCC0, 0xCCC0, 0xCCC0, 0xCCC0, 0xFFC0, 0xFFE0,  ...
                 ;0x0000, 0x0600, 0x0600, 0x0000, 0x0000, 0x3E00, 0x3E00, 0x0600, 0x0600, 0x0600, 0x0600, 0x0600, 0x0600, 0x0600, 0x0600,  ...
                 ;0x0000, 0x0600, 0x0600, 0x0000, 0x0000, 0x3E00, 0x3E00, 0x0600, 0x0600, 0x0600, 0x0600, 0x0600, 0x0600, 0x0600, 0x0600,  ...
                 ;0x0000, 0x0000, 0x0000, 0x0000, 0x0000, 0x6000, 0x6000, 0x6000, 0x6E00, 0x7F00, 0x6380, 0x6180, 0x6380, 0x7F00, 0x6E00,  ...
                 ;0x0000, 0x0000, 0x0000, 0x0000, 0x0000, 0x1E00, 0x3F00, 0x0380, 0x0180, 0x3F80, 0x3F80, 0x0180, 0x0380, 0x3F00, 0x1E00,  ...
                 ;0x0000, 0x0000, 0x0000, 0x0000, 0x0000, 0xC300, 0xC780, 0xCCC0, 0xD860, 0xF860, 0xF860, 0xD860, 0xCCE0, 0xC780, 0xC300,  ...
                 ;0x0000, 0x0000, 0x0000, 0x0000, 0x0000, 0x1F80, 0x3180, 0x6180, 0x6180, 0x6180, 0x3180, 0x1F80, 0x0780, 0x1980, 0x6180,  ...
                 ;};
                 ;
                 ;FontDef Font_11x18 = {11,18,Font11x18};
                 ;#include "ili9341.c"
                 ;/* vim: set ai et ts=4 sw=4: */
                 ;//#include "stm32f1xx_hal.h"
                 ;#include "ili9341.h"
                 ;
                 ;void ILI9341_WriteCommand(unsigned char cmd) {
                 ; 0000 005D void ILI9341_WriteCommand(unsigned char cmd) {
                 
                 	.CSEG
                 _ILI9341_WriteCommand:
                 ; .FSTART _ILI9341_WriteCommand
                 ;// 8080 MCU 8-bit bus interface I (page 27)
                 ;  TFT_CTRL_PORT = ((TFT_CTRL_PORT & 0b11111100) | (cmd & 0b00000011));// DATA[0..1]
000d6c 940e 1eba 	CALL SUBOPT_0x0
                 ;	cmd -> Y+0
                 ;  TFT_DATA_PORT = ((TFT_DATA_PORT & 0b00000011) | (cmd & 0b11111100));// DATA[2..7]
                 ;  TFT_CSX_LO;  // enable ILI9341 chip
000d6e 98dc      	CBI  0x1B,4
                 ;  TFT_DCX_LO;  // commands
000d6f 98dd      	CBI  0x1B,5
                 ;  TFT_RDX_HIGH;
000d70 9adf      	SBI  0x1B,7
                 ;  TFT_WRX_LO;
000d71 98de      	CBI  0x1B,6
                 ;  #asm("nop");
000d72 0000      	nop
000d73 c005      	RJMP _0x20C000E
                 ;  TFT_WRX_HIGH;// parallel data write strobe
                 ;}
                 ; .FEND
                 ;
                 ;void ILI9341_WriteByte(unsigned char data) {
                 _ILI9341_WriteByte:
                 ; .FSTART _ILI9341_WriteByte
                 ;// 8080 MCU 8-bit bus interface I
                 ;  TFT_CTRL_PORT = ((TFT_CTRL_PORT & 0b11111100) | (data & 0b00000011));// DATA[0..1]
000d74 940e 1eba 	CALL SUBOPT_0x0
                 ;	data -> Y+0
                 ;  TFT_DATA_PORT = ((TFT_DATA_PORT & 0b00000011) | (data & 0b11111100));// DATA[2..7]
                 ;  TFT_DCX_HIGH;// display RAM data or commands parameters
000d76 9add      	SBI  0x1B,5
                 ;  TFT_WRX_LO;
000d77 98de      	CBI  0x1B,6
                 ;  #asm("nop");
000d78 0000      	nop
                 _0x20C000E:
                 ;  TFT_WRX_HIGH;// parallel data write strobe
000d79 9ade      	SBI  0x1B,6
                 ;}
000d7a 9621      	ADIW R28,1
000d7b 9508      	RET
                 ; .FEND
                 ;
                 ;void ILI9341_SetCol(unsigned int startCol,unsigned int endCol){
                 _ILI9341_SetCol:
                 ; .FSTART _ILI9341_SetCol
                 ; ILI9341_WriteCommand(0x2A);// Column Command address
000d7c 93ba      	ST   -Y,R27
000d7d 93aa      	ST   -Y,R26
                 ;	startCol -> Y+2
                 ;	endCol -> Y+0
000d7e e2aa      	LDI  R26,LOW(42)
000d7f c003      	RJMP _0x20C000D
                 ; ILI9341_WriteByte(startCol>>8); ILI9341_WriteByte(startCol&0xFF);
                 ; ILI9341_WriteByte(endCol>>8); ILI9341_WriteByte(endCol&0xFF);
                 ; TFT_CSX_HIGH;// disable ILI9341 chip
                 ;}
                 ; .FEND
                 ;
                 ;void ILI9341_SetRow(unsigned int startRow,unsigned int endRow){
                 _ILI9341_SetRow:
                 ; .FSTART _ILI9341_SetRow
                 ; ILI9341_WriteCommand(0x2B);// Page Command address
000d80 93ba      	ST   -Y,R27
000d81 93aa      	ST   -Y,R26
                 ;	startRow -> Y+2
                 ;	endRow -> Y+0
000d82 e2ab      	LDI  R26,LOW(43)
                 _0x20C000D:
000d83 dfe8      	RCALL _ILI9341_WriteCommand
                 ; ILI9341_WriteByte(startRow>>8); ILI9341_WriteByte(startRow&0xFF);
000d84 940e 1eca 	CALL SUBOPT_0x1
                 ; ILI9341_WriteByte(endRow>>8); ILI9341_WriteByte(endRow&0xFF);
000d86 940e 1ed1 	CALL SUBOPT_0x2
                 ; TFT_CSX_HIGH;// disable ILI9341 chip
000d88 9adc      	SBI  0x1B,4
                 ;}
000d89 9624      	ADIW R28,4
000d8a 9508      	RET
                 ; .FEND
                 ;
                 ;static void ILI9341_SetAddressWindow(unsigned int startCol, unsigned int startRow, unsigned int endCol, unsigned int end ...
                 _ILI9341_SetAddressWindow_G000:
                 ; .FSTART _ILI9341_SetAddressWindow_G000
                 ;    ILI9341_SetCol(startCol,endCol);     // column address set
000d8b 93ba      	ST   -Y,R27
000d8c 93aa      	ST   -Y,R26
                 ;	startCol -> Y+6
                 ;	startRow -> Y+4
                 ;	endCol -> Y+2
                 ;	endRow -> Y+0
000d8d 940e 1ed8 	CALL SUBOPT_0x3
000d8f 81ac      	LDD  R26,Y+4
000d90 81bd      	LDD  R27,Y+4+1
000d91 dfea      	RCALL _ILI9341_SetCol
                 ;    ILI9341_SetRow(startRow,endRow);     // row address set
000d92 81ec      	LDD  R30,Y+4
000d93 81fd      	LDD  R31,Y+4+1
000d94 93fa      	ST   -Y,R31
000d95 93ea      	ST   -Y,R30
000d96 81aa      	LDD  R26,Y+2
000d97 81bb      	LDD  R27,Y+2+1
000d98 940e 1edd 	CALL SUBOPT_0x4
                 ;    ILI9341_WriteCommand(0x2C); // write to RAM
                 ;}
000d9a 9628      	ADIW R28,8
000d9b 9508      	RET
                 ; .FEND
                 ;
                 ;void ILI9341_FillRectangle(uint16_t x, uint16_t y, uint16_t w, uint16_t h, uint16_t color){
                 _ILI9341_FillRectangle:
                 ; .FSTART _ILI9341_FillRectangle
                 ;    //   ILI9341_WIDTH = 320, ILI9341_HEIGHT = 240
                 ;    if((x >= ILI9341_WIDTH) || (y >= ILI9341_HEIGHT)) return;
000d9c 93ba      	ST   -Y,R27
000d9d 93aa      	ST   -Y,R26
                 ;	x -> Y+8
                 ;	y -> Y+6
                 ;	w -> Y+4
                 ;	h -> Y+2
                 ;	color -> Y+0
000d9e 85a8      	LDD  R26,Y+8
000d9f 85b9      	LDD  R27,Y+8+1
000da0 34a0      	CPI  R26,LOW(0x140)
000da1 e0e1      	LDI  R30,HIGH(0x140)
000da2 07be      	CPC  R27,R30
000da3 f430      	BRSH _0x11
000da4 81ae      	LDD  R26,Y+6
000da5 81bf      	LDD  R27,Y+6+1
000da6 3fa0      	CPI  R26,LOW(0xF0)
000da7 e0e0      	LDI  R30,HIGH(0xF0)
000da8 07be      	CPC  R27,R30
000da9 f008      	BRLO _0x10
                 _0x11:
000daa c0ae      	RJMP _0x20C000C
                 ;    if((x + w - 1) >= ILI9341_WIDTH) w = ILI9341_WIDTH - x;
                 _0x10:
000dab 940e 1ee2 	CALL SUBOPT_0x5
000dad 0fae      	ADD  R26,R30
000dae 1fbf      	ADC  R27,R31
000daf 9711      	SBIW R26,1
000db0 34a0      	CPI  R26,LOW(0x140)
000db1 e0e1      	LDI  R30,HIGH(0x140)
000db2 07be      	CPC  R27,R30
000db3 f040      	BRLO _0x13
000db4 85a8      	LDD  R26,Y+8
000db5 85b9      	LDD  R27,Y+8+1
000db6 e4e0      	LDI  R30,LOW(320)
000db7 e0f1      	LDI  R31,HIGH(320)
000db8 1bea      	SUB  R30,R26
000db9 0bfb      	SBC  R31,R27
000dba 83ec      	STD  Y+4,R30
000dbb 83fd      	STD  Y+4+1,R31
                 ;    if((y + h - 1) >= ILI9341_HEIGHT) h = ILI9341_HEIGHT - y;
                 _0x13:
000dbc 81ea      	LDD  R30,Y+2
000dbd 81fb      	LDD  R31,Y+2+1
000dbe 81ae      	LDD  R26,Y+6
000dbf 81bf      	LDD  R27,Y+6+1
000dc0 0fae      	ADD  R26,R30
000dc1 1fbf      	ADC  R27,R31
000dc2 9711      	SBIW R26,1
000dc3 3fa0      	CPI  R26,LOW(0xF0)
000dc4 e0e0      	LDI  R30,HIGH(0xF0)
000dc5 07be      	CPC  R27,R30
000dc6 f040      	BRLO _0x14
000dc7 81ae      	LDD  R26,Y+6
000dc8 81bf      	LDD  R27,Y+6+1
000dc9 efe0      	LDI  R30,LOW(240)
000dca e0f0      	LDI  R31,HIGH(240)
000dcb 1bea      	SUB  R30,R26
000dcc 0bfb      	SBC  R31,R27
000dcd 83ea      	STD  Y+2,R30
000dce 83fb      	STD  Y+2+1,R31
                 ;    ILI9341_SetAddressWindow(x, y, x+w-1, y+h-1);  //0,0,319,239
                 _0x14:
000dcf 940e 1ee7 	CALL SUBOPT_0x6
000dd1 940e 1ee7 	CALL SUBOPT_0x6
000dd3 940e 1eec 	CALL SUBOPT_0x7
000dd5 93ba      	ST   -Y,R27
000dd6 93aa      	ST   -Y,R26
000dd7 940e 1eec 	CALL SUBOPT_0x7
000dd9 dfb1      	RCALL _ILI9341_SetAddressWindow_G000
                 ;    for(y = h; y > 0; y--) {
000dda 81ea      	LDD  R30,Y+2
000ddb 81fb      	LDD  R31,Y+2+1
000ddc 83ee      	STD  Y+6,R30
000ddd 83ff      	STD  Y+6+1,R31
                 _0x16:
000dde 81ae      	LDD  R26,Y+6
000ddf 81bf      	LDD  R27,Y+6+1
000de0 940e 23a5 	CALL __CPW02
000de2 f4b8      	BRSH _0x17
                 ;        for(x = w; x > 0; x--) {
000de3 81ec      	LDD  R30,Y+4
000de4 81fd      	LDD  R31,Y+4+1
000de5 87e8      	STD  Y+8,R30
000de6 87f9      	STD  Y+8+1,R31
                 _0x19:
000de7 85a8      	LDD  R26,Y+8
000de8 85b9      	LDD  R27,Y+8+1
000de9 940e 23a5 	CALL __CPW02
000deb f440      	BRSH _0x1A
                 ;           ILI9341_WriteByte(color>>8); ILI9341_WriteByte(color&0xFF);
000dec 940e 1ed1 	CALL SUBOPT_0x2
                 ;        }
000dee 85e8      	LDD  R30,Y+8
000def 85f9      	LDD  R31,Y+8+1
000df0 9731      	SBIW R30,1
000df1 87e8      	STD  Y+8,R30
000df2 87f9      	STD  Y+8+1,R31
000df3 cff3      	RJMP _0x19
                 _0x1A:
                 ;    }
000df4 81ee      	LDD  R30,Y+6
000df5 81ff      	LDD  R31,Y+6+1
000df6 9731      	SBIW R30,1
000df7 83ee      	STD  Y+6,R30
000df8 83ff      	STD  Y+6+1,R31
000df9 cfe4      	RJMP _0x16
                 _0x17:
                 ;}
000dfa c05e      	RJMP _0x20C000C
                 ; .FEND
                 ;
                 ;void  ILI9341_DrawHorizontalLine( unsigned int poX, unsigned int poY, unsigned int length,unsigned int color) {
                 _ILI9341_DrawHorizontalLine:
                 ; .FSTART _ILI9341_DrawHorizontalLine
                 ;unsigned int i;
                 ; ILI9341_SetCol(poX,poX + length);
000dfb 940e 1ef4 	CALL SUBOPT_0x8
                 ;	poX -> Y+8
                 ;	poY -> Y+6
                 ;	length -> Y+4
                 ;	color -> Y+2
                 ;	i -> R16,R17
000dfd 81ee      	LDD  R30,Y+6
000dfe 81ff      	LDD  R31,Y+6+1
000dff 85aa      	LDD  R26,Y+10
000e00 85bb      	LDD  R27,Y+10+1
000e01 0fae      	ADD  R26,R30
000e02 1fbf      	ADC  R27,R31
000e03 df78      	RCALL _ILI9341_SetCol
                 ; ILI9341_SetRow(poY,poY);
000e04 940e 1ed8 	CALL SUBOPT_0x3
000e06 85a8      	LDD  R26,Y+8
000e07 85b9      	LDD  R27,Y+8+1
000e08 940e 1edd 	CALL SUBOPT_0x4
                 ; ILI9341_WriteCommand(0x2c);
                 ; for(i=0; i<length; i++){ILI9341_WriteByte(color>>8); ILI9341_WriteByte(color&0xFF);}
                +
000e0a e000     +LDI R16 , LOW ( 0 )
000e0b e010     +LDI R17 , HIGH ( 0 )
                 	__GETWRN 16,17,0
                 _0x1C:
000e0c 81ec      	LDD  R30,Y+4
000e0d 81fd      	LDD  R31,Y+4+1
000e0e 170e      	CP   R16,R30
000e0f 071f      	CPC  R17,R31
000e10 f428      	BRSH _0x1D
000e11 940e 1eca 	CALL SUBOPT_0x1
                +
000e13 5f0f     +SUBI R16 , LOW ( - 1 )
000e14 4f1f     +SBCI R17 , HIGH ( - 1 )
                 	__ADDWRN 16,17,1
000e15 cff6      	RJMP _0x1C
                 _0x1D:
                 ; TFT_CSX_HIGH; // disable ILI9341 chip
000e16 9adc      	SBI  0x1B,4
                 ;}
000e17 8119      	LDD  R17,Y+1
000e18 8108      	LDD  R16,Y+0
000e19 c03f      	RJMP _0x20C000C
                 ; .FEND
                 ;
                 ;void ILI9341_DrawVerticalLine( unsigned int poX, unsigned int poY, unsigned int length, unsigned int color) {
                 _ILI9341_DrawVerticalLine:
                 ; .FSTART _ILI9341_DrawVerticalLine
                 ;unsigned int i;
                 ; ILI9341_SetCol(poX,poX);
000e1a 940e 1ef4 	CALL SUBOPT_0x8
                 ;	poX -> Y+8
                 ;	poY -> Y+6
                 ;	length -> Y+4
                 ;	color -> Y+2
                 ;	i -> R16,R17
000e1c 85aa      	LDD  R26,Y+10
000e1d 85bb      	LDD  R27,Y+10+1
000e1e df5d      	RCALL _ILI9341_SetCol
                 ; ILI9341_SetRow(poY,poY+length);
000e1f 940e 1ed8 	CALL SUBOPT_0x3
000e21 81ee      	LDD  R30,Y+6
000e22 81ff      	LDD  R31,Y+6+1
000e23 85a8      	LDD  R26,Y+8
000e24 85b9      	LDD  R27,Y+8+1
000e25 0fae      	ADD  R26,R30
000e26 1fbf      	ADC  R27,R31
000e27 940e 1edd 	CALL SUBOPT_0x4
                 ; ILI9341_WriteCommand(0x2c);
                 ; for(i=0; i<length; i++){ILI9341_WriteByte(color>>8); ILI9341_WriteByte(color&0xFF);}
                +
000e29 e000     +LDI R16 , LOW ( 0 )
000e2a e010     +LDI R17 , HIGH ( 0 )
                 	__GETWRN 16,17,0
                 _0x1F:
000e2b 81ec      	LDD  R30,Y+4
000e2c 81fd      	LDD  R31,Y+4+1
000e2d 170e      	CP   R16,R30
000e2e 071f      	CPC  R17,R31
000e2f f428      	BRSH _0x20
000e30 940e 1eca 	CALL SUBOPT_0x1
                +
000e32 5f0f     +SUBI R16 , LOW ( - 1 )
000e33 4f1f     +SBCI R17 , HIGH ( - 1 )
                 	__ADDWRN 16,17,1
000e34 cff6      	RJMP _0x1F
                 _0x20:
                 ; TFT_CSX_HIGH; // disable ILI9341 chip
000e35 9adc      	SBI  0x1B,4
                 ;}
000e36 8119      	LDD  R17,Y+1
000e37 8108      	LDD  R16,Y+0
000e38 c020      	RJMP _0x20C000C
                 ; .FEND
                 ;
                 ;void ILI9341_DrawRectangle(unsigned int poX, unsigned int poY, unsigned int length, unsigned int width,unsigned int colo ...
                 _ILI9341_DrawRectangle:
                 ; .FSTART _ILI9341_DrawRectangle
                 ; ILI9341_DrawHorizontalLine(poX, poY, length, color);
000e39 93ba      	ST   -Y,R27
000e3a 93aa      	ST   -Y,R26
                 ;	poX -> Y+8
                 ;	poY -> Y+6
                 ;	length -> Y+4
                 ;	width -> Y+2
                 ;	color -> Y+0
000e3b 940e 1ee7 	CALL SUBOPT_0x6
000e3d 940e 1ee7 	CALL SUBOPT_0x6
000e3f 940e 1ee7 	CALL SUBOPT_0x6
000e41 940e 1ef9 	CALL SUBOPT_0x9
                 ; ILI9341_DrawHorizontalLine(poX, poY+width, length, color);
000e43 940e 1ee2 	CALL SUBOPT_0x5
000e45 940e 1efe 	CALL SUBOPT_0xA
000e47 940e 1ef9 	CALL SUBOPT_0x9
                 ; ILI9341_DrawVerticalLine(poX, poY, width,color);
000e49 940e 1ee7 	CALL SUBOPT_0x6
000e4b 940e 1ed8 	CALL SUBOPT_0x3
000e4d 81ae      	LDD  R26,Y+6
000e4e 81bf      	LDD  R27,Y+6+1
000e4f dfca      	RCALL _ILI9341_DrawVerticalLine
                 ; ILI9341_DrawVerticalLine(poX + length, poY, width,color);
000e50 940e 1ee2 	CALL SUBOPT_0x5
000e52 940e 1efe 	CALL SUBOPT_0xA
000e54 940e 1ed8 	CALL SUBOPT_0x3
000e56 81ae      	LDD  R26,Y+6
000e57 81bf      	LDD  R27,Y+6+1
000e58 dfc1      	RCALL _ILI9341_DrawVerticalLine
                 ;}
                 _0x20C000C:
000e59 962a      	ADIW R28,10
000e5a 9508      	RET
                 ; .FEND
                 ;
                 ;static void ILI9341_WriteChar(uint16_t x, uint16_t y, char ch, FontDef font, uint16_t color, uint16_t bgcolor, uint8_t s ...
                 _ILI9341_WriteChar_G000:
                 ; .FSTART _ILI9341_WriteChar_G000
                 ;    uint32_t i, b, j;
                 ;    for(i = 0; i < font.height; i++) {
000e5b 93aa      	ST   -Y,R26
000e5c 972c      	SBIW R28,12
                 ;	x -> Y+24
                 ;	y -> Y+22
                 ;	ch -> Y+21
                 ;	font -> Y+17
                 ;	color -> Y+15
                 ;	bgcolor -> Y+13
                 ;	size -> Y+12
                 ;	i -> Y+8
                 ;	b -> Y+4
                 ;	j -> Y+0
000e5d e0e0      	LDI  R30,LOW(0)
                +
000e5e 87e8     +STD Y + 8 , R30
000e5f 87e9     +STD Y + 8 + 1 , R30
000e60 87ea     +STD Y + 8 + 2 , R30
000e61 87eb     +STD Y + 8 + 3 , R30
                 	__CLRD1S 8
                 _0x22:
000e62 89ea      	LDD  R30,Y+18
                +
000e63 85a8     +LDD R26 , Y + 8
000e64 85b9     +LDD R27 , Y + 8 + 1
000e65 858a     +LDD R24 , Y + 8 + 2
000e66 859b     +LDD R25 , Y + 8 + 3
                 	__GETD2S 8
000e67 27ff      	CLR  R31
000e68 2766      	CLR  R22
000e69 2777      	CLR  R23
000e6a 940e 23a9 	CALL __CPD21
000e6c f008      	BRLO PC+2
000e6d c04e      	RJMP _0x23
                 ;      if (ch>=32 && ch<127) b = font.data[(ch - 32) * font.height + i];// 
000e6e 89ad      	LDD  R26,Y+21
000e6f 32a0      	CPI  R26,LOW(0x20)
000e70 f010      	BRLO _0x25
000e71 37af      	CPI  R26,LOW(0x7F)
000e72 f008      	BRLO _0x26
                 _0x25:
000e73 c004      	RJMP _0x24
                 _0x26:
000e74 89ed      	LDD  R30,Y+21
000e75 e0f0      	LDI  R31,0
000e76 97b0      	SBIW R30,32
000e77 c004      	RJMP _0x2C3
                 ;      else b = font.data[(ch - 97) * font.height + i];  //  192 - 96 = 96
                 _0x24:
000e78 89ed      	LDD  R30,Y+21
000e79 e0f0      	LDI  R31,0
000e7a 56e1      	SUBI R30,LOW(97)
000e7b 40f0      	SBCI R31,HIGH(97)
                 _0x2C3:
000e7c 01df      	MOVW R26,R30
000e7d 89ea      	LDD  R30,Y+18
000e7e e0f0      	LDI  R31,0
000e7f 940e 22f2 	CALL __MULW12
000e81 85a8      	LDD  R26,Y+8
000e82 85b9      	LDD  R27,Y+8+1
000e83 0fea      	ADD  R30,R26
000e84 1ffb      	ADC  R31,R27
000e85 89ab      	LDD  R26,Y+19
000e86 89bc      	LDD  R27,Y+19+1
000e87 940e 1f03 	CALL SUBOPT_0xB
000e89 940e 2371 	CALL __GETW1PF
000e8b 940e 1f08 	CALL SUBOPT_0xC
                 ;        for(j = 0; j < font.width; j++) {
000e8d e0e0      	LDI  R30,LOW(0)
000e8e 940e 2384 	CALL __CLRD1S0
                 _0x29:
000e90 89e9      	LDD  R30,Y+17
000e91 940e 1f0f 	CALL SUBOPT_0xD
000e93 27ff      	CLR  R31
000e94 2766      	CLR  R22
000e95 2777      	CLR  R23
000e96 940e 23a9 	CALL __CPD21
000e98 f4b0      	BRSH _0x2A
                 ;            if((b << j) & 0x8000)  {
000e99 81e8      	LD   R30,Y
                +
000e9a 81ac     +LDD R26 , Y + 4
000e9b 81bd     +LDD R27 , Y + 4 + 1
000e9c 818e     +LDD R24 , Y + 4 + 2
000e9d 819f     +LDD R25 , Y + 4 + 3
                 	__GETD2S 4
000e9e 940e 22a9 	CALL __LSLD12
000ea0 78f0      	ANDI R31,HIGH(0x8000)
000ea1 f029      	BREQ _0x2B
                 ;              ILI9341_FillRectangle(x+j*size,y+i*size,size,size,color);
000ea2 940e 1f12 	CALL SUBOPT_0xE
000ea4 89af      	LDD  R26,Y+23
000ea5 8db8      	LDD  R27,Y+23+1
000ea6 c004      	RJMP _0x2C4
                 ;            }
                 ;            else {
                 _0x2B:
                 ;              ILI9341_FillRectangle(x+j*size,y+i*size,size,size,bgcolor);
000ea7 940e 1f12 	CALL SUBOPT_0xE
000ea9 89ad      	LDD  R26,Y+21
000eaa 89be      	LDD  R27,Y+21+1
                 _0x2C4:
000eab def0      	RCALL _ILI9341_FillRectangle
                 ;            }
                 ;        }
000eac 940e 1f33 	CALL SUBOPT_0xF
000eae cfe1      	RJMP _0x29
                 _0x2A:
                 ;    }
                +
000eaf 85e8     +LDD R30 , Y + 8
000eb0 85f9     +LDD R31 , Y + 8 + 1
000eb1 856a     +LDD R22 , Y + 8 + 2
000eb2 857b     +LDD R23 , Y + 8 + 3
                 	__GETD1S 8
                +
000eb3 5fef     +SUBI R30 , LOW ( - 1 )
000eb4 4fff     +SBCI R31 , HIGH ( - 1 )
000eb5 4f6f     +SBCI R22 , BYTE3 ( - 1 )
000eb6 4f7f     +SBCI R23 , BYTE4 ( - 1 )
                 	__SUBD1N -1
                +
000eb7 87e8     +STD Y + 8 , R30
000eb8 87f9     +STD Y + 8 + 1 , R31
000eb9 876a     +STD Y + 8 + 2 , R22
000eba 877b     +STD Y + 8 + 3 , R23
                 	__PUTD1S 8
000ebb cfa6      	RJMP _0x22
                 _0x23:
                 ;}
000ebc 966a      	ADIW R28,26
000ebd 9508      	RET
                 ; .FEND
                 ;
                 ;void ILI9341_WriteString(uint16_t x, uint16_t y, const char* str, FontDef font, uint16_t color, uint16_t bgcolor, uint8_ ...
                 _ILI9341_WriteString:
                 ; .FSTART _ILI9341_WriteString
                 ;    if(size==0) size=1;
000ebe 93aa      	ST   -Y,R26
                 ;	x -> Y+13
                 ;	y -> Y+11
                 ;	*str -> Y+9
                 ;	font -> Y+5
                 ;	color -> Y+3
                 ;	bgcolor -> Y+1
                 ;	size -> Y+0
000ebf 81e8      	LD   R30,Y
000ec0 30e0      	CPI  R30,0
000ec1 f411      	BRNE _0x2D
000ec2 e0e1      	LDI  R30,LOW(1)
000ec3 83e8      	ST   Y,R30
                 ;    while(*str){
                 _0x2D:
                 _0x2E:
000ec4 85a9      	LDD  R26,Y+9
000ec5 85ba      	LDD  R27,Y+9+1
000ec6 91ec      	LD   R30,X
000ec7 30e0      	CPI  R30,0
000ec8 f409      	BRNE PC+2
000ec9 c058      	RJMP _0x30
                 ;        if(x + font.width >= ILI9341_WIDTH){
000eca 81ed      	LDD  R30,Y+5
000ecb e0f0      	LDI  R31,0
000ecc 85ad      	LDD  R26,Y+13
000ecd 85be      	LDD  R27,Y+13+1
000ece 0fae      	ADD  R26,R30
000ecf 1fbf      	ADC  R27,R31
000ed0 34a0      	CPI  R26,LOW(0x140)
000ed1 e0e1      	LDI  R30,HIGH(0x140)
000ed2 07be      	CPC  R27,R30
000ed3 f120      	BRLO _0x31
                 ;            x = 0;
000ed4 e0e0      	LDI  R30,LOW(0)
000ed5 87ed      	STD  Y+13,R30
000ed6 87ee      	STD  Y+13+1,R30
                 ;            y += font.height*size;
000ed7 81ae      	LDD  R26,Y+6
000ed8 27bb      	CLR  R27
000ed9 81e8      	LD   R30,Y
000eda e0f0      	LDI  R31,0
000edb 940e 22f2 	CALL __MULW12
000edd 85ab      	LDD  R26,Y+11
000ede 85bc      	LDD  R27,Y+11+1
000edf 0fea      	ADD  R30,R26
000ee0 1ffb      	ADC  R31,R27
000ee1 87eb      	STD  Y+11,R30
000ee2 87fc      	STD  Y+11+1,R31
                 ;            if(y + font.height >= ILI9341_HEIGHT) break;
000ee3 81ee      	LDD  R30,Y+6
000ee4 e0f0      	LDI  R31,0
000ee5 85ab      	LDD  R26,Y+11
000ee6 85bc      	LDD  R27,Y+11+1
000ee7 0fae      	ADD  R26,R30
000ee8 1fbf      	ADC  R27,R31
000ee9 3fa0      	CPI  R26,LOW(0xF0)
000eea e0e0      	LDI  R30,HIGH(0xF0)
000eeb 07be      	CPC  R27,R30
000eec f5a8      	BRSH _0x30
                 ;            if(*str == ' ') {
000eed 85a9      	LDD  R26,Y+9
000eee 85ba      	LDD  R27,Y+9+1
000eef 91ac      	LD   R26,X
000ef0 32a0      	CPI  R26,LOW(0x20)
000ef1 f431      	BRNE _0x33
                 ;                // skip spaces in the beginning of the new line
                 ;                str++;
000ef2 85e9      	LDD  R30,Y+9
000ef3 85fa      	LDD  R31,Y+9+1
000ef4 9631      	ADIW R30,1
000ef5 87e9      	STD  Y+9,R30
000ef6 87fa      	STD  Y+9+1,R31
                 ;                continue;
000ef7 cfcc      	RJMP _0x2E
                 ;            }
                 ;        }
                 _0x33:
                 ;        ILI9341_WriteChar(x, y, *str, font, color, bgcolor, size);
                 _0x31:
000ef8 85ed      	LDD  R30,Y+13
000ef9 85fe      	LDD  R31,Y+13+1
000efa 93fa      	ST   -Y,R31
000efb 93ea      	ST   -Y,R30
000efc 85ed      	LDD  R30,Y+13
000efd 85fe      	LDD  R31,Y+13+1
000efe 93fa      	ST   -Y,R31
000eff 93ea      	ST   -Y,R30
000f00 85ad      	LDD  R26,Y+13
000f01 85be      	LDD  R27,Y+13+1
000f02 91ec      	LD   R30,X
000f03 93ea      	ST   -Y,R30
                +
000f04 85ea     +LDD R30 , Y + 10
000f05 85fb     +LDD R31 , Y + 10 + 1
000f06 856c     +LDD R22 , Y + 10 + 2
000f07 857d     +LDD R23 , Y + 10 + 3
                 	__GETD1S 10
000f08 940e 2389 	CALL __PUTPARD1
000f0a 940e 1f3c 	CALL SUBOPT_0x10
000f0c 940e 1f3c 	CALL SUBOPT_0x10
000f0e 85ad      	LDD  R26,Y+13
000f0f df4b      	RCALL _ILI9341_WriteChar_G000
                 ;        x += font.width*size;
000f10 81ad      	LDD  R26,Y+5
000f11 27bb      	CLR  R27
000f12 81e8      	LD   R30,Y
000f13 e0f0      	LDI  R31,0
000f14 940e 22f2 	CALL __MULW12
000f16 85ad      	LDD  R26,Y+13
000f17 85be      	LDD  R27,Y+13+1
000f18 0fea      	ADD  R30,R26
000f19 1ffb      	ADC  R31,R27
000f1a 87ed      	STD  Y+13,R30
000f1b 87fe      	STD  Y+13+1,R31
                 ;        str++;
000f1c 85e9      	LDD  R30,Y+9
000f1d 85fa      	LDD  R31,Y+9+1
000f1e 9631      	ADIW R30,1
000f1f 87e9      	STD  Y+9,R30
000f20 87fa      	STD  Y+9+1,R31
                 ;    }
000f21 cfa2      	RJMP _0x2E
                 _0x30:
                 ;}
000f22 962f      	ADIW R28,15
000f23 9508      	RET
                 ; .FEND
                 ;
                 ;void InitInterface(void){
                 _InitInterface:
                 ; .FSTART _InitInterface
                 ;  TFT_CTRL_DIR |= (1 << TFT_RDX) | (1 << TFT_WRX) | (1 << TFT_DCX) | (1 << TFT_CSX) | (1 << TFT_RST);
000f24 b3ea      	IN   R30,0x1A
000f25 6fe4      	ORI  R30,LOW(0xF4)
000f26 bbea      	OUT  0x1A,R30
                 ;  TFT_CTRL_DIR |= 0x03;// DATA[0..1]
000f27 b3ea      	IN   R30,0x1A
000f28 60e3      	ORI  R30,LOW(0x3)
000f29 bbea      	OUT  0x1A,R30
                 ;  TFT_CTRL_PORT |= (1 << TFT_RDX) | (1 << TFT_WRX) | (1 << TFT_DCX) | (1 << TFT_CSX) & (~(1 << TFT_RST));
000f2a b3eb      	IN   R30,0x1B
000f2b 6fe0      	ORI  R30,LOW(0xF0)
000f2c bbeb      	OUT  0x1B,R30
                 ;  TFT_DATA_DIR |= 0xFC;// DATA[2..7]
000f2d b3e4      	IN   R30,0x14
000f2e 6fec      	ORI  R30,LOW(0xFC)
000f2f bbe4      	OUT  0x14,R30
                 ;  TFT_DATA_PORT &= 0x03;// DATA[2..7]
000f30 b3e5      	IN   R30,0x15
000f31 70e3      	ANDI R30,LOW(0x3)
000f32 bbe5      	OUT  0x15,R30
                 ;}
000f33 9508      	RET
                 ; .FEND
                 ;
                 ;unsigned int constrain(unsigned int a, unsigned int b, unsigned int c)
                 ;{
                 _constrain:
                 ; .FSTART _constrain
                 ;  if (a < b) return b;
000f34 93ba      	ST   -Y,R27
000f35 93aa      	ST   -Y,R26
                 ;	a -> Y+4
                 ;	b -> Y+2
                 ;	c -> Y+0
000f36 81ea      	LDD  R30,Y+2
000f37 81fb      	LDD  R31,Y+2+1
000f38 81ac      	LDD  R26,Y+4
000f39 81bd      	LDD  R27,Y+4+1
000f3a 17ae      	CP   R26,R30
000f3b 07bf      	CPC  R27,R31
000f3c f408      	BRSH _0x34
000f3d c00c      	RJMP _0x20C000B
                 ;  if (c < a) return c;
                 _0x34:
000f3e 81ec      	LDD  R30,Y+4
000f3f 81fd      	LDD  R31,Y+4+1
000f40 81a8      	LD   R26,Y
000f41 81b9      	LDD  R27,Y+1
000f42 17ae      	CP   R26,R30
000f43 07bf      	CPC  R27,R31
000f44 f418      	BRSH _0x35
000f45 81e8      	LD   R30,Y
000f46 81f9      	LDD  R31,Y+1
000f47 c002      	RJMP _0x20C000B
                 ;  else return a;
                 _0x35:
000f48 81ec      	LDD  R30,Y+4
000f49 81fd      	LDD  R31,Y+4+1
                 ;}
                 _0x20C000B:
000f4a 9626      	ADIW R28,6
000f4b 9508      	RET
                 ; .FEND
                 ;
                 ;void ILI9341_FillScreen(unsigned int XL, unsigned int XR, unsigned int YU, unsigned int YD, unsigned int color)
                 ;{
                 _ILI9341_FillScreen:
                 ; .FSTART _ILI9341_FillScreen
                 ;unsigned long XY=0;
                 ;unsigned long i=0;
                 ; if(XL > XR){XL = XL^XR; XR = XL^XR; XL = XL^XR;}
000f4c 93ba      	ST   -Y,R27
000f4d 93aa      	ST   -Y,R26
000f4e 9728      	SBIW R28,8
000f4f e0e0      	LDI  R30,LOW(0)
000f50 83e8      	ST   Y,R30
000f51 83e9      	STD  Y+1,R30
000f52 83ea      	STD  Y+2,R30
000f53 83eb      	STD  Y+3,R30
000f54 83ec      	STD  Y+4,R30
000f55 83ed      	STD  Y+5,R30
000f56 83ee      	STD  Y+6,R30
000f57 83ef      	STD  Y+7,R30
                 ;	XL -> Y+16
                 ;	XR -> Y+14
                 ;	YU -> Y+12
                 ;	YD -> Y+10
                 ;	color -> Y+8
                 ;	XY -> Y+4
                 ;	i -> Y+0
000f58 940e 1f41 	CALL SUBOPT_0x11
000f5a 17ea      	CP   R30,R26
000f5b 07fb      	CPC  R31,R27
000f5c f490      	BRSH _0x37
000f5d 940e 1f41 	CALL SUBOPT_0x11
000f5f 27ea      	EOR  R30,R26
000f60 27fb      	EOR  R31,R27
000f61 8be8      	STD  Y+16,R30
000f62 8bf9      	STD  Y+16+1,R31
000f63 940e 1f41 	CALL SUBOPT_0x11
000f65 27ea      	EOR  R30,R26
000f66 27fb      	EOR  R31,R27
000f67 87ee      	STD  Y+14,R30
000f68 87ff      	STD  Y+14+1,R31
000f69 940e 1f41 	CALL SUBOPT_0x11
000f6b 27ea      	EOR  R30,R26
000f6c 27fb      	EOR  R31,R27
000f6d 8be8      	STD  Y+16,R30
000f6e 8bf9      	STD  Y+16+1,R31
                 ; if(YU > YD){YU = YU^YD; YD = YU^YD; YU = YU^YD;}
                 _0x37:
000f6f 940e 1f46 	CALL SUBOPT_0x12
000f71 17ea      	CP   R30,R26
000f72 07fb      	CPC  R31,R27
000f73 f490      	BRSH _0x38
000f74 940e 1f46 	CALL SUBOPT_0x12
000f76 27ea      	EOR  R30,R26
000f77 27fb      	EOR  R31,R27
000f78 87ec      	STD  Y+12,R30
000f79 87fd      	STD  Y+12+1,R31
000f7a 940e 1f46 	CALL SUBOPT_0x12
000f7c 27ea      	EOR  R30,R26
000f7d 27fb      	EOR  R31,R27
000f7e 87ea      	STD  Y+10,R30
000f7f 87fb      	STD  Y+10+1,R31
000f80 940e 1f46 	CALL SUBOPT_0x12
000f82 27ea      	EOR  R30,R26
000f83 27fb      	EOR  R31,R27
000f84 87ec      	STD  Y+12,R30
000f85 87fd      	STD  Y+12+1,R31
                 ; XL = constrain(XL, 0, max_X);
                 _0x38:
000f86 89e8      	LDD  R30,Y+16
000f87 89f9      	LDD  R31,Y+16+1
000f88 940e 1f4b 	CALL SUBOPT_0x13
000f8a 8be8      	STD  Y+16,R30
000f8b 8bf9      	STD  Y+16+1,R31
                 ; XR = constrain(XR, 0, max_X);
000f8c 85ee      	LDD  R30,Y+14
000f8d 85ff      	LDD  R31,Y+14+1
000f8e 940e 1f4b 	CALL SUBOPT_0x13
000f90 87ee      	STD  Y+14,R30
000f91 87ff      	STD  Y+14+1,R31
                 ; YU = constrain(YU, 0, max_Y);
000f92 940e 1f3c 	CALL SUBOPT_0x10
000f94 940e 1f57 	CALL SUBOPT_0x14
000f96 87ec      	STD  Y+12,R30
000f97 87fd      	STD  Y+12+1,R31
                 ; YD = constrain(YD, 0, max_Y);
000f98 85ea      	LDD  R30,Y+10
000f99 85fb      	LDD  R31,Y+10+1
000f9a 93fa      	ST   -Y,R31
000f9b 93ea      	ST   -Y,R30
000f9c 940e 1f57 	CALL SUBOPT_0x14
000f9e 87ea      	STD  Y+10,R30
000f9f 87fb      	STD  Y+10+1,R31
                 ;#pragma warn-
                 ; XY = (XR-XL+1);
000fa0 89a8      	LDD  R26,Y+16
000fa1 89b9      	LDD  R27,Y+16+1
000fa2 85ee      	LDD  R30,Y+14
000fa3 85ff      	LDD  R31,Y+14+1
000fa4 1bea      	SUB  R30,R26
000fa5 0bfb      	SBC  R31,R27
000fa6 9631      	ADIW R30,1
000fa7 940e 1f08 	CALL SUBOPT_0xC
                 ; XY = XY*(YD-YU+1);
000fa9 85ac      	LDD  R26,Y+12
000faa 85bd      	LDD  R27,Y+12+1
000fab 85ea      	LDD  R30,Y+10
000fac 85fb      	LDD  R31,Y+10+1
000fad 1bea      	SUB  R30,R26
000fae 0bfb      	SBC  R31,R27
000faf 9631      	ADIW R30,1
                +
000fb0 81ac     +LDD R26 , Y + 4
000fb1 81bd     +LDD R27 , Y + 4 + 1
000fb2 818e     +LDD R24 , Y + 4 + 2
000fb3 819f     +LDD R25 , Y + 4 + 3
                 	__GETD2S 4
000fb4 2766      	CLR  R22
000fb5 2777      	CLR  R23
000fb6 940e 22d2 	CALL __MULD12U
                +
000fb8 83ec     +STD Y + 4 , R30
000fb9 83fd     +STD Y + 4 + 1 , R31
000fba 836e     +STD Y + 4 + 2 , R22
000fbb 837f     +STD Y + 4 + 3 , R23
                 	__PUTD1S 4
                 ;#pragma warn+
                 ; ILI9341_SetCol(XL,XR);
000fbc 89e8      	LDD  R30,Y+16
000fbd 89f9      	LDD  R31,Y+16+1
000fbe 93fa      	ST   -Y,R31
000fbf 93ea      	ST   -Y,R30
000fc0 89a8      	LDD  R26,Y+16
000fc1 89b9      	LDD  R27,Y+16+1
000fc2 ddb9      	RCALL _ILI9341_SetCol
                 ; ILI9341_SetRow(YU, YD);
000fc3 940e 1f3c 	CALL SUBOPT_0x10
000fc5 85ac      	LDD  R26,Y+12
000fc6 85bd      	LDD  R27,Y+12+1
000fc7 940e 1edd 	CALL SUBOPT_0x4
                 ; ILI9341_WriteCommand(0x2C); // start to write to display ram
                 ; for(i=0; i < XY; i++){ILI9341_WriteByte(color>>8); ILI9341_WriteByte(color&0xFF);}
000fc9 e0e0      	LDI  R30,LOW(0)
000fca 940e 2384 	CALL __CLRD1S0
                 _0x3A:
                +
000fcc 81ec     +LDD R30 , Y + 4
000fcd 81fd     +LDD R31 , Y + 4 + 1
000fce 816e     +LDD R22 , Y + 4 + 2
000fcf 817f     +LDD R23 , Y + 4 + 3
                 	__GETD1S 4
000fd0 940e 1f0f 	CALL SUBOPT_0xD
000fd2 940e 23a9 	CALL __CPD21
000fd4 f440      	BRSH _0x3B
000fd5 85a9      	LDD  R26,Y+9
000fd6 dd9d      	RCALL _ILI9341_WriteByte
000fd7 85e8      	LDD  R30,Y+8
000fd8 2fae      	MOV  R26,R30
000fd9 dd9a      	RCALL _ILI9341_WriteByte
000fda 940e 1f33 	CALL SUBOPT_0xF
000fdc cfef      	RJMP _0x3A
                 _0x3B:
                 ; TFT_CSX_HIGH; // disable ILI9341 chip
000fdd 9adc      	SBI  0x1B,4
                 ;}
000fde 9662      	ADIW R28,18
000fdf 9508      	RET
                 ; .FEND
                 ;
                 ;void ILI9341_Init(void) {
                 _ILI9341_Init:
                 ; .FSTART _ILI9341_Init
                 ;//unsigned char orient
                 ;  TFT_RST_HIGH;
000fe0 9ada      	SBI  0x1B,2
                 ;  delay_ms(1);
000fe1 e0a1      	LDI  R26,LOW(1)
000fe2 e0b0      	LDI  R27,0
000fe3 940e 21b2 	CALL _delay_ms
                 ;  ILI9341_WriteCommand(0x01);
000fe5 e0a1      	LDI  R26,LOW(1)
000fe6 940e 1f61 	CALL SUBOPT_0x15
                 ;  ILI9341_WriteByte(0x00);
                 ;  delay_ms(50);
000fe8 e3a2      	LDI  R26,LOW(50)
000fe9 e0b0      	LDI  R27,0
000fea 940e 21b2 	CALL _delay_ms
                 ;//DISPLAYOFF
                 ;  ILI9341_WriteCommand(0x28);
000fec e2a8      	LDI  R26,LOW(40)
000fed 940e 1f61 	CALL SUBOPT_0x15
                 ;  ILI9341_WriteByte(0x00);
                 ;//Power Control 1
                 ;  ILI9341_WriteCommand(0xC0);
000fef eca0      	LDI  R26,LOW(192)
000ff0 dd7b      	RCALL _ILI9341_WriteCommand
                 ;  ILI9341_WriteByte(0x23);
000ff1 e2a3      	LDI  R26,LOW(35)
000ff2 dd81      	RCALL _ILI9341_WriteByte
                 ;//Power Control 2
                 ;  ILI9341_WriteCommand(0xC1);
000ff3 eca1      	LDI  R26,LOW(193)
000ff4 dd77      	RCALL _ILI9341_WriteCommand
                 ;  ILI9341_WriteByte(0x10);
000ff5 e1a0      	LDI  R26,LOW(16)
000ff6 dd7d      	RCALL _ILI9341_WriteByte
                 ;//VCOM Control 1
                 ;  ILI9341_WriteCommand(0xC5);
000ff7 eca5      	LDI  R26,LOW(197)
000ff8 dd73      	RCALL _ILI9341_WriteCommand
                 ;  ILI9341_WriteByte(0x2B);
000ff9 e2ab      	LDI  R26,LOW(43)
000ffa dd79      	RCALL _ILI9341_WriteByte
                 ;  ILI9341_WriteByte(0x2B);
000ffb e2ab      	LDI  R26,LOW(43)
000ffc dd77      	RCALL _ILI9341_WriteByte
                 ;//VCOM Control 2
                 ;  ILI9341_WriteCommand(0xC7);
000ffd eca7      	LDI  R26,LOW(199)
000ffe dd6d      	RCALL _ILI9341_WriteCommand
                 ;  ILI9341_WriteByte(0xC0);
000fff eca0      	LDI  R26,LOW(192)
001000 dd73      	RCALL _ILI9341_WriteByte
                 ;//-MEMCONTROL-----------------
                 ;  ILI9341_WriteCommand(ILI9341_MADCTL);
001001 e3a6      	LDI  R26,LOW(54)
001002 dd69      	RCALL _ILI9341_WriteCommand
                 ;  ILI9341_WriteByte(ILI9341_MADCTL_MV | ILI9341_MADCTL_BGR);
001003 e2a8      	LDI  R26,LOW(40)
001004 dd6f      	RCALL _ILI9341_WriteByte
                 ;  max_X=TFTWIDTH-1; max_Y=TFTHEIGHT-1;
001005 e3ef      	LDI  R30,LOW(319)
001006 e0f1      	LDI  R31,HIGH(319)
001007 93e0 03c3 	STS  _max_X,R30
001009 93f0 03c4 	STS  _max_X+1,R31
00100b eeef      	LDI  R30,LOW(239)
00100c e0f0      	LDI  R31,HIGH(239)
00100d 93e0 03c5 	STS  _max_Y,R30
00100f 93f0 03c6 	STS  _max_Y+1,R31
                 ;  ILI9341_SetCol(0,max_X); ILI9341_SetRow(0,max_Y);
001011 940e 1f66 	CALL SUBOPT_0x16
001013 940e 1f6b 	CALL SUBOPT_0x17
001015 dd66      	RCALL _ILI9341_SetCol
001016 940e 1f66 	CALL SUBOPT_0x16
001018 940e 1f70 	CALL SUBOPT_0x18
00101a dd65      	RCALL _ILI9341_SetRow
                 ;//----------------------------
                 ;//COLMOD: Pixel Format Set
                 ;  ILI9341_WriteCommand(0x3A);
00101b e3aa      	LDI  R26,LOW(58)
00101c dd4f      	RCALL _ILI9341_WriteCommand
                 ;  ILI9341_WriteByte(0x55);
00101d e5a5      	LDI  R26,LOW(85)
00101e dd55      	RCALL _ILI9341_WriteByte
                 ;//Frame Rate Control (In Normal Mode/Full Colors)
                 ;  ILI9341_WriteCommand(0xB1);
00101f eba1      	LDI  R26,LOW(177)
001020 940e 1f61 	CALL SUBOPT_0x15
                 ;  ILI9341_WriteByte(0x00);
                 ;  ILI9341_WriteByte(0x1B);
001022 e1ab      	LDI  R26,LOW(27)
001023 dd50      	RCALL _ILI9341_WriteByte
                 ;//ENTRYMODE
                 ;  ILI9341_WriteCommand(0xB7);
001024 eba7      	LDI  R26,LOW(183)
001025 dd46      	RCALL _ILI9341_WriteCommand
                 ;  ILI9341_WriteByte(0x07);
001026 e0a7      	LDI  R26,LOW(7)
001027 dd4c      	RCALL _ILI9341_WriteByte
                 ;  ILI9341_WriteCommand(ILI9341_SLEEPOUT);
001028 e1a1      	LDI  R26,LOW(17)
001029 940e 1f61 	CALL SUBOPT_0x15
                 ;  ILI9341_WriteByte(0x00);
                 ;  delay_ms(150);
00102b e9a6      	LDI  R26,LOW(150)
00102c e0b0      	LDI  R27,0
00102d 940e 21b2 	CALL _delay_ms
                 ;//Display On
                 ;  ILI9341_WriteCommand(ILI9341_DISPLAYON);
00102f e2a9      	LDI  R26,LOW(41)
001030 940e 1f61 	CALL SUBOPT_0x15
                 ;  ILI9341_WriteByte(0x00);
                 ;  delay_ms(500);
001032 efa4      	LDI  R26,LOW(500)
001033 e0b1      	LDI  R27,HIGH(500)
001034 940e 21b2 	CALL _delay_ms
                 ;}
001036 9508      	RET
                 ; .FEND
                 ;#include "twi.c"
                 ;#include "twi.h"
                 ;#define BITRATE      100     //Bit Rate: 66,000 kHz -> TWBR=0x14;/Bit Rate: 102,000 kH -> TWBR=0x0A;/Bit Rate: 115,000 k ...
                 ;
                 ;unsigned char wait_int(void)    //Wait for TWINT flag set.
                 ; 0000 005E {
                 _wait_int:
                 ; .FSTART _wait_int
                 ; unsigned char count=0, val=0;
                 ;  while (!(TWCR & 0x80)){if(++count>200) {TWBR=0; TWCR=0; val=1; TWBR=BITRATE; break;}};
001037 931a      	ST   -Y,R17
001038 930a      	ST   -Y,R16
                 ;	count -> R17
                 ;	val -> R16
001039 e010      	LDI  R17,0
00103a e000      	LDI  R16,0
                 _0x3C:
00103b b7e6      	IN   R30,0x36
00103c 78e0      	ANDI R30,LOW(0x80)
00103d f459      	BRNE _0x3E
00103e 5f1f      	SUBI R17,-LOW(1)
00103f 3c19      	CPI  R17,201
001040 f038      	BRLO _0x3F
001041 e0e0      	LDI  R30,LOW(0)
001042 b9e0      	OUT  0x0,R30
001043 bfe6      	OUT  0x36,R30
001044 e001      	LDI  R16,LOW(1)
001045 e6e4      	LDI  R30,LOW(100)
001046 b9e0      	OUT  0x0,R30
001047 c001      	RJMP _0x3E
                 _0x3F:
001048 cff2      	RJMP _0x3C
                 _0x3E:
                 ;  return val;
001049 2fe0      	MOV  R30,R16
00104a 9109      	LD   R16,Y+
00104b 9119      	LD   R17,Y+
00104c 9508      	RET
                 ;}
                 ; .FEND
                 ;
                 ;unsigned char read_TWI(char devaddr, int address, char *data, int byte)
                 ;{
                 _read_TWI:
                 ; .FSTART _read_TWI
                 ; unsigned char ok=1;
                 ; int tmpint;
                 ;  TWCR = 0xA4;//(1<<TWINT)|(1<<TWSTA)|(TWEN) - Send START condition
00104d 93ba      	ST   -Y,R27
00104e 93aa      	ST   -Y,R26
00104f 940e 23b5 	CALL __SAVELOCR4
                 ;	devaddr -> Y+10
                 ;	address -> Y+8
                 ;	*data -> Y+6
                 ;	byte -> Y+4
                 ;	ok -> R17
                 ;	tmpint -> R18,R19
001051 e011      	LDI  R17,1
001052 eae4      	LDI  R30,LOW(164)
001053 940e 1f75 	CALL SUBOPT_0x19
                 ;  if(wait_int()){ok=0; goto EXIT_read_clock;};
001055 f011      	BREQ _0x40
001056 e010      	LDI  R17,LOW(0)
001057 c081      	RJMP _0x41
                 _0x40:
                 ;  if((TWSR & 0xF8) != START_OK){ok=0; goto EXIT_read_clock;};// This indicates that the START condition has been transmi ...
001058 b1e1      	IN   R30,0x1
001059 7fe8      	ANDI R30,LOW(0xF8)
00105a 30e8      	CPI  R30,LOW(0x8)
00105b f011      	BREQ _0x42
00105c e010      	LDI  R17,LOW(0)
00105d c07b      	RJMP _0x41
                 _0x42:
                 ;  TWDR = devaddr+0;//Load SLA_W into TWDR register. Clear TWINT bit in TWCR to start transmission of address
00105e 85ea      	LDD  R30,Y+10
00105f 940e 1f7a 	CALL SUBOPT_0x1A
                 ;  TWCR = 0x84;//(1<<TWINT) | (1<<TWEN)
                 ;  if (wait_int()){ok=0; goto EXIT_read_clock;};
001061 f011      	BREQ _0x43
001062 e010      	LDI  R17,LOW(0)
001063 c075      	RJMP _0x41
                 _0x43:
                 ;  if ((TWSR & 0xF8) != MT_SLA_ACK){ok=0; goto EXIT_read_clock;};// This indicates that the ACKNOWLEDGE  has been riceive ...
001064 b1e1      	IN   R30,0x1
001065 7fe8      	ANDI R30,LOW(0xF8)
001066 31e8      	CPI  R30,LOW(0x18)
001067 f011      	BREQ _0x44
001068 e010      	LDI  R17,LOW(0)
001069 c06f      	RJMP _0x41
                 _0x44:
                 ;  if ((devaddr&0xF0)==0xA0)//  Serial EEPROM   FIRST WORD ADDRESS  "0"
00106a 85ea      	LDD  R30,Y+10
00106b 7fe0      	ANDI R30,LOW(0xF0)
00106c 3ae0      	CPI  R30,LOW(0xA0)
00106d f499      	BRNE _0x45
                 ;   {
                 ;    ok = address>>8;
00106e 85e8      	LDD  R30,Y+8
00106f 85f9      	LDD  R31,Y+8+1
001070 940e 22ba 	CALL __ASRW8
001072 2f1e      	MOV  R17,R30
                 ;    TWDR = ok;//Load DATA into TWDR register. Clear TWINT bit in TWCR to start transmission of address
001073 b913      	OUT  0x3,R17
                 ;    ok = 1;
001074 e011      	LDI  R17,LOW(1)
                 ;    TWCR = 0x84;//(1<<TWINT) | (1<<TWEN)
001075 e8e4      	LDI  R30,LOW(132)
001076 940e 1f75 	CALL SUBOPT_0x19
                 ;    if (wait_int()){ok=0; goto EXIT_read_clock;};
001078 f011      	BREQ _0x46
001079 e010      	LDI  R17,LOW(0)
00107a c05e      	RJMP _0x41
                 _0x46:
                 ;    if ((TWSR & 0xF8) != MT_DATA_ACK){ok=0; goto EXIT_read_clock;};
00107b b1e1      	IN   R30,0x1
00107c 7fe8      	ANDI R30,LOW(0xF8)
00107d 32e8      	CPI  R30,LOW(0x28)
00107e f011      	BREQ _0x47
00107f e010      	LDI  R17,LOW(0)
001080 c058      	RJMP _0x41
                 _0x47:
                 ;   }
                 ;  TWDR = address;//Load DATA into TWDR register. Clear TWINT bit in TWCR to start transmission of address
                 _0x45:
001081 85e8      	LDD  R30,Y+8
001082 940e 1f7a 	CALL SUBOPT_0x1A
                 ;  TWCR = 0x84;//(1<<TWINT) | (1<<TWEN)
                 ;  if (wait_int()){ok=0; goto EXIT_read_clock;};
001084 f011      	BREQ _0x48
001085 e010      	LDI  R17,LOW(0)
001086 c052      	RJMP _0x41
                 _0x48:
                 ;  if ((TWSR & 0xF8) != MT_DATA_ACK){ok=0; goto EXIT_read_clock;};
001087 b1e1      	IN   R30,0x1
001088 7fe8      	ANDI R30,LOW(0xF8)
001089 32e8      	CPI  R30,LOW(0x28)
00108a f011      	BREQ _0x49
00108b e010      	LDI  R17,LOW(0)
00108c c04c      	RJMP _0x41
                 _0x49:
                 ;  TWCR = 0xA4;//(1<<TWINT)|(1<<TWSTA)|(TWEN) - Send REPEATED START condition
00108d eae4      	LDI  R30,LOW(164)
00108e 940e 1f75 	CALL SUBOPT_0x19
                 ;  if (wait_int()){ok=0; goto EXIT_read_clock;};
001090 f011      	BREQ _0x4A
001091 e010      	LDI  R17,LOW(0)
001092 c046      	RJMP _0x41
                 _0x4A:
                 ;  if ((TWSR & 0xF8) != REPIT_START_OK){ok=0; goto EXIT_read_clock;};
001093 b1e1      	IN   R30,0x1
001094 7fe8      	ANDI R30,LOW(0xF8)
001095 31e0      	CPI  R30,LOW(0x10)
001096 f011      	BREQ _0x4B
001097 e010      	LDI  R17,LOW(0)
001098 c040      	RJMP _0x41
                 _0x4B:
                 ;  TWDR = devaddr+1;//Load SLA_R into TWDR register. Clear TWINT bit in TWCR to start transmission of address
001099 85ea      	LDD  R30,Y+10
00109a 5fef      	SUBI R30,-LOW(1)
00109b 940e 1f7a 	CALL SUBOPT_0x1A
                 ;  TWCR = 0x84;//(1<<TWINT) | (1<<TWEN)
                 ;  if (wait_int()){ok=0; goto EXIT_read_clock;};
00109d f011      	BREQ _0x4C
00109e e010      	LDI  R17,LOW(0)
00109f c039      	RJMP _0x41
                 _0x4C:
                 ;  if ((TWSR & 0xF8) != MR_SLA_ACK){ok=0; goto EXIT_read_clock;};
0010a0 b1e1      	IN   R30,0x1
0010a1 7fe8      	ANDI R30,LOW(0xF8)
0010a2 34e0      	CPI  R30,LOW(0x40)
0010a3 f011      	BREQ _0x4D
0010a4 e010      	LDI  R17,LOW(0)
0010a5 c033      	RJMP _0x41
                 _0x4D:
                 ;  if(byte>1)
0010a6 81ac      	LDD  R26,Y+4
0010a7 81bd      	LDD  R27,Y+4+1
0010a8 9712      	SBIW R26,2
0010a9 f0fc      	BRLT _0x4E
                 ;   {
                 ;    for (tmpint=0; tmpint<byte-1; tmpint++)
                +
0010aa e020     +LDI R18 , LOW ( 0 )
0010ab e030     +LDI R19 , HIGH ( 0 )
                 	__GETWRN 18,19,0
                 _0x50:
0010ac 81ec      	LDD  R30,Y+4
0010ad 81fd      	LDD  R31,Y+4+1
0010ae 9731      	SBIW R30,1
0010af 172e      	CP   R18,R30
0010b0 073f      	CPC  R19,R31
0010b1 f4bc      	BRGE _0x51
                 ;     {
                 ;      TWCR = 0xC4;//(1<<TWINT) | (1<<TWEN) | (1<<TWEA) *!*!*!       TWINT   ...
0010b2 ece4      	LDI  R30,LOW(196)
0010b3 940e 1f75 	CALL SUBOPT_0x19
                 ;      if (wait_int()){ok=0; goto EXIT_read_clock;};
0010b5 f011      	BREQ _0x52
0010b6 e010      	LDI  R17,LOW(0)
0010b7 c021      	RJMP _0x41
                 _0x52:
                 ;      if ((TWSR & 0xF8) != MR_DATA_ACK){ok=0; goto EXIT_read_clock;};
0010b8 b1e1      	IN   R30,0x1
0010b9 7fe8      	ANDI R30,LOW(0xF8)
0010ba 35e0      	CPI  R30,LOW(0x50)
0010bb f011      	BREQ _0x53
0010bc e010      	LDI  R17,LOW(0)
0010bd c01b      	RJMP _0x41
                 _0x53:
                 ;      *data++ = TWDR;//Read DATA into TWDR register.
0010be 81ae      	LDD  R26,Y+6
0010bf 81bf      	LDD  R27,Y+6+1
0010c0 9611      	ADIW R26,1
0010c1 83ae      	STD  Y+6,R26
0010c2 83bf      	STD  Y+6+1,R27
0010c3 9711      	SBIW R26,1
0010c4 b1e3      	IN   R30,0x3
0010c5 93ec      	ST   X,R30
                 ;     };
                +
0010c6 5f2f     +SUBI R18 , LOW ( - 1 )
0010c7 4f3f     +SBCI R19 , HIGH ( - 1 )
                 	__ADDWRN 18,19,1
0010c8 cfe3      	RJMP _0x50
                 _0x51:
                 ;   };
                 _0x4E:
                 ;  TWCR = 0x84;//(1<<TWINT) | (1<<TWEN)
0010c9 e8e4      	LDI  R30,LOW(132)
0010ca 940e 1f75 	CALL SUBOPT_0x19
                 ;  if (wait_int()){ok=0; goto EXIT_read_clock;};
0010cc f011      	BREQ _0x54
0010cd e010      	LDI  R17,LOW(0)
0010ce c00a      	RJMP _0x41
                 _0x54:
                 ;  if ((TWSR & 0xF8) != MR_DATA_NOT_ACK){ok=0; goto EXIT_read_clock;};
0010cf b1e1      	IN   R30,0x1
0010d0 7fe8      	ANDI R30,LOW(0xF8)
0010d1 35e8      	CPI  R30,LOW(0x58)
0010d2 f011      	BREQ _0x55
0010d3 e010      	LDI  R17,LOW(0)
0010d4 c004      	RJMP _0x41
                 _0x55:
                 ;  *data = TWDR;//Read DATA into TWDR register.
0010d5 b1e3      	IN   R30,0x3
0010d6 81ae      	LDD  R26,Y+6
0010d7 81bf      	LDD  R27,Y+6+1
0010d8 93ec      	ST   X,R30
                 ;EXIT_read_clock:
                 _0x41:
                 ;  TWCR = 0x94;//(1<<TWINT)|(1<<TWEN)|(1<<TWSTO) - Transmit STOP condition
0010d9 e9e4      	LDI  R30,LOW(148)
0010da bfe6      	OUT  0x36,R30
                 ;  return ok;
0010db 2fe1      	MOV  R30,R17
0010dc 940e 23bc 	CALL __LOADLOCR4
0010de c28b      	RJMP _0x20C000A
                 ;}
                 ; .FEND
                 ;
                 ;unsigned char write_TWI(char devaddr, int address, char *data, char byte)
                 ;{
                 _write_TWI:
                 ; .FSTART _write_TWI
                 ; unsigned char i, ok=1;
                 ;  TWCR = 0xA4;//(1<<TWINT)|(1<<TWSTA)|(TWEN) - Send START condition
0010df 93aa      	ST   -Y,R26
0010e0 931a      	ST   -Y,R17
0010e1 930a      	ST   -Y,R16
                 ;	devaddr -> Y+7
                 ;	address -> Y+5
                 ;	*data -> Y+3
                 ;	byte -> Y+2
                 ;	i -> R17
                 ;	ok -> R16
0010e2 e001      	LDI  R16,1
0010e3 eae4      	LDI  R30,LOW(164)
0010e4 bfe6      	OUT  0x36,R30
                 ;  while (!(TWCR & 0x80));//Wait for TWINT flag set. This indicates that the START condition has been transmitted
                 _0x56:
0010e5 b7e6      	IN   R30,0x36
0010e6 78e0      	ANDI R30,LOW(0x80)
0010e7 f3e9      	BREQ _0x56
                 ;  if ((TWSR & 0xF8) != START_OK){ok=0; goto EXIT_write_clock;};
0010e8 b1e1      	IN   R30,0x1
0010e9 7fe8      	ANDI R30,LOW(0xF8)
0010ea 30e8      	CPI  R30,LOW(0x8)
0010eb f011      	BREQ _0x59
0010ec e000      	LDI  R16,LOW(0)
0010ed c047      	RJMP _0x5A
                 _0x59:
                 ;  TWDR = devaddr+0;//Load SLA_W into TWDR register. Clear TWINT bit in TWCR to start transmission of address
0010ee 81ef      	LDD  R30,Y+7
0010ef b9e3      	OUT  0x3,R30
                 ;  TWCR = 0x84;//(1<<TWINT) | (1<<TWEN)
0010f0 e8e4      	LDI  R30,LOW(132)
0010f1 bfe6      	OUT  0x36,R30
                 ;  while (!(TWCR & 0x80));//Wait for TWINT flag set. This indicates that the START condition has been transmitted
                 _0x5B:
0010f2 b7e6      	IN   R30,0x36
0010f3 78e0      	ANDI R30,LOW(0x80)
0010f4 f3e9      	BREQ _0x5B
                 ;  if ((TWSR & 0xF8) != MT_SLA_ACK){ok=0; goto EXIT_write_clock;};
0010f5 b1e1      	IN   R30,0x1
0010f6 7fe8      	ANDI R30,LOW(0xF8)
0010f7 31e8      	CPI  R30,LOW(0x18)
0010f8 f011      	BREQ _0x5E
0010f9 e000      	LDI  R16,LOW(0)
0010fa c03a      	RJMP _0x5A
                 _0x5E:
                 ;  if ((devaddr&0xF0)==0xA0)//  Serial EEPROM   FIRST WORD ADDRESS  "0"
0010fb 81ef      	LDD  R30,Y+7
0010fc 7fe0      	ANDI R30,LOW(0xF0)
0010fd 3ae0      	CPI  R30,LOW(0xA0)
0010fe f491      	BRNE _0x5F
                 ;   {
                 ;    ok = address>>8;
0010ff 81ed      	LDD  R30,Y+5
001100 81fe      	LDD  R31,Y+5+1
001101 940e 22ba 	CALL __ASRW8
001103 2f0e      	MOV  R16,R30
                 ;    TWDR = ok;//Load DATA into TWDR register. Clear TWINT bit in TWCR to start transmission of address
001104 b903      	OUT  0x3,R16
                 ;    ok = 1;
001105 e001      	LDI  R16,LOW(1)
                 ;    TWCR = 0x84;//(1<<TWINT) | (1<<TWEN)
001106 e8e4      	LDI  R30,LOW(132)
001107 bfe6      	OUT  0x36,R30
                 ;    while (!(TWCR & 0x80));//Wait for TWINT flag set. This indicates that the START condition has been transmitted
                 _0x60:
001108 b7e6      	IN   R30,0x36
001109 78e0      	ANDI R30,LOW(0x80)
00110a f3e9      	BREQ _0x60
                 ;    if ((TWSR & 0xF8) != MT_DATA_ACK){ok=0; goto EXIT_write_clock;};
00110b b1e1      	IN   R30,0x1
00110c 7fe8      	ANDI R30,LOW(0xF8)
00110d 32e8      	CPI  R30,LOW(0x28)
00110e f011      	BREQ _0x63
00110f e000      	LDI  R16,LOW(0)
001110 c024      	RJMP _0x5A
                 _0x63:
                 ;   }
                 ;  TWDR = address;//Load DATA into TWDR register. Clear TWINT bit in TWCR to start transmission of address
                 _0x5F:
001111 81ed      	LDD  R30,Y+5
001112 b9e3      	OUT  0x3,R30
                 ;  TWCR = 0x84;//(1<<TWINT) | (1<<TWEN)
001113 e8e4      	LDI  R30,LOW(132)
001114 bfe6      	OUT  0x36,R30
                 ;  while (!(TWCR & 0x80));//Wait for TWINT flag set. This indicates that the START condition has been transmitted
                 _0x64:
001115 b7e6      	IN   R30,0x36
001116 78e0      	ANDI R30,LOW(0x80)
001117 f3e9      	BREQ _0x64
                 ;  if ((TWSR & 0xF8) != MT_DATA_ACK){ok=0; goto EXIT_write_clock;};
001118 b1e1      	IN   R30,0x1
001119 7fe8      	ANDI R30,LOW(0xF8)
00111a 32e8      	CPI  R30,LOW(0x28)
00111b f011      	BREQ _0x67
00111c e000      	LDI  R16,LOW(0)
00111d c017      	RJMP _0x5A
                 _0x67:
                 ;  for (i=0; i<byte; i++)
00111e e010      	LDI  R17,LOW(0)
                 _0x69:
00111f 81ea      	LDD  R30,Y+2
001120 171e      	CP   R17,R30
001121 f498      	BRSH _0x6A
                 ;  {
                 ;    TWDR = *data++;//Load DATA into TWDR register.
001122 81ab      	LDD  R26,Y+3
001123 81bc      	LDD  R27,Y+3+1
001124 91ed      	LD   R30,X+
001125 83ab      	STD  Y+3,R26
001126 83bc      	STD  Y+3+1,R27
001127 b9e3      	OUT  0x3,R30
                 ;    TWCR = 0x84;//(1<<TWINT) | (1<<TWEN)
001128 e8e4      	LDI  R30,LOW(132)
001129 bfe6      	OUT  0x36,R30
                 ;    //if (wait_int()) goto EXIT_write_clock;
                 ;    while (!(TWCR & 0x80));//Wait for TWINT flag set. This indicates that the START condition has been transmitted
                 _0x6B:
00112a b7e6      	IN   R30,0x36
00112b 78e0      	ANDI R30,LOW(0x80)
00112c f3e9      	BREQ _0x6B
                 ;    if ((TWSR & 0xF8) != MT_DATA_ACK){ok=0; goto EXIT_write_clock;};
00112d b1e1      	IN   R30,0x1
00112e 7fe8      	ANDI R30,LOW(0xF8)
00112f 32e8      	CPI  R30,LOW(0x28)
001130 f011      	BREQ _0x6E
001131 e000      	LDI  R16,LOW(0)
001132 c002      	RJMP _0x5A
                 _0x6E:
                 ;  }
001133 5f1f      	SUBI R17,-1
001134 cfea      	RJMP _0x69
                 _0x6A:
                 ;EXIT_write_clock:
                 _0x5A:
                 ;  TWCR = 0x94;//(1<<TWINT)|(1<<TWEN)|(1<<TWSTO) - Transmit STOP condition
001135 e9e4      	LDI  R30,LOW(148)
001136 bfe6      	OUT  0x36,R30
                 ;  return ok;
001137 2fe0      	MOV  R30,R16
001138 8119      	LDD  R17,Y+1
001139 8108      	LDD  R16,Y+0
00113a c35f      	RJMP _0x20C0006
                 ;}
                 ; .FEND
                 ;/*
                 ;void wait_clock(unsigned char m)    //Wait for TWINT flag set. This indicates that the START condition has been transmit ...
                 ;{
                 ; unsigned char count=0, err=0;
                 ; do
                 ;   {
                 ;     if (m) err = write_clock(clock_buffer);
                 ;     else err = read_clock();
                 ;     count++;
                 ;   } while (sec==1 && count<5);
                 ;}
                 ;*/
                 ;#include "dht.c"
                 ;#define dhtport PORTB.0
                 ;#define dhtddr DDRB.0
                 ;#define dhtpin PINB.0
                 ;
                 ;unsigned char startDHT(void){
                 ; 0000 005F unsigned char startDHT(void){
                 _startDHT:
                 ; .FSTART _startDHT
                 ;   unsigned char flag=0;
                 ;   dhtport = 0;
00113b 931a      	ST   -Y,R17
                 ;	flag -> R17
00113c e010      	LDI  R17,0
00113d 98c0      	CBI  0x18,0
                 ;   dhtddr = 1;   // MCU pull down
00113e 9ab8      	SBI  0x17,0
                 ;   if(typeS) delay_ms(30); // MCU Sends out Start Signal to DHT and pull down voltage for at least 18ms to let DHT11 det ...
00113f fe25      	SBRS R2,5
001140 c002      	RJMP _0x73
001141 e1ae      	LDI  R26,LOW(30)
001142 c001      	RJMP _0x2C5
                 ;   else delay_ms(10); // MCU Sends out Start Signal to DHT and pull down voltage for at least 18ms to let DHT21 detect t ...
                 _0x73:
001143 e0aa      	LDI  R26,LOW(10)
                 _0x2C5:
001144 e0b0      	LDI  R27,0
001145 940e 21b2 	CALL _delay_ms
                 ;   dhtddr = 0;   // MCU pull up
001147 98b8      	CBI  0x17,0
                 ;   delay_us(60); // wait for DHT respond 20-40uS
                +
001148 ef80     +LDI R24 , LOW ( 240 )
001149 e090     +LDI R25 , HIGH ( 240 )
                +__DELAY_USW_LOOP :
00114a 9701     +SBIW R24 , 1
00114b f7f1     +BRNE __DELAY_USW_LOOP
                 	__DELAY_USW 240
                 ;   if(!dhtpin){
00114c 99b0      	SBIC 0x16,0
00114d c013      	RJMP _0x77
                 ;      while(!dhtpin) {flag++;} // low-voltage-level response signal & keeps it for 80us (flag=32 Response to low time fi ...
                 _0x78:
00114e 99b0      	SBIC 0x16,0
00114f c002      	RJMP _0x7A
001150 5f1f      	SUBI R17,-1
001151 cffc      	RJMP _0x78
                 _0x7A:
                 ;      if(flag<10) return 0;
001152 301a      	CPI  R17,10
001153 f410      	BRSH _0x7B
001154 e0e0      	LDI  R30,LOW(0)
001155 c405      	RJMP _0x20C0003
                 ;      else {flag=0; while(dhtpin) {flag++;}}  // hi-voltage-level response signal & keeps it for 80us (flag=55 Response  ...
                 _0x7B:
001156 e010      	LDI  R17,LOW(0)
                 _0x7D:
001157 9bb0      	SBIS 0x16,0
001158 c002      	RJMP _0x7F
001159 5f1f      	SUBI R17,-1
00115a cffc      	RJMP _0x7D
                 _0x7F:
                 ;      if(flag<10) return 0;
00115b 301a      	CPI  R17,10
00115c f410      	BRSH _0x80
00115d e0e0      	LDI  R30,LOW(0)
00115e c3fc      	RJMP _0x20C0003
                 ;      else return 1;
                 _0x80:
00115f e0e1      	LDI  R30,LOW(1)
001160 c3fa      	RJMP _0x20C0003
                 ;   }
                 ;   else return 0;
                 _0x77:
001161 e0e0      	LDI  R30,LOW(0)
001162 c3f8      	RJMP _0x20C0003
                 ;}
                 ; .FEND
                 ;
                 ;unsigned char readDHT(void){
                 _readDHT:
                 ; .FSTART _readDHT
                 ; unsigned char i, j, flag=0, tem[5];
                 ; unsigned int tempRH;
                 ; static unsigned char err;
                 ; if(startDHT()){
001163 9725      	SBIW R28,5
001164 940e 23b3 	CALL __SAVELOCR6
                 ;	i -> R17
                 ;	j -> R16
                 ;	flag -> R19
                 ;	tem -> Y+6
                 ;	tempRH -> R20,R21
001166 e030      	LDI  R19,0
001167 dfd3      	RCALL _startDHT
001168 30e0      	CPI  R30,0
001169 f409      	BRNE PC+2
00116a c092      	RJMP _0x83
                 ;    for(i=0; i<5; i++){
00116b e010      	LDI  R17,LOW(0)
                 _0x85:
00116c 3015      	CPI  R17,5
00116d f528      	BRSH _0x86
                 ;       tem[i]=0;
00116e 940e 1f7d 	CALL SUBOPT_0x1B
001170 e0e0      	LDI  R30,LOW(0)
001171 93ec      	ST   X,R30
                 ;       for(j=0; j<8; j++){
001172 e000      	LDI  R16,LOW(0)
                 _0x88:
001173 3008      	CPI  R16,8
001174 f4e0      	BRSH _0x89
                 ;          tem[i]<<= 1;
001175 940e 1f7d 	CALL SUBOPT_0x1B
001177 91ec      	LD   R30,X
001178 0fee      	LSL  R30
001179 93ec      	ST   X,R30
                 ;          #asm("cli")     // Global enable interrupts
00117a 94f8      	cli
                 ;//        delay_us(30);   // When DHT is sending data to MCU, every bit of data begins with the 50us low-voltage-level
                 ;                          // and the length of the following high-voltage-level signal determines whether data bit is "0 ...
                 ;          while(!dhtpin) {flag++;}//   
                 _0x8A:
00117b 99b0      	SBIC 0x16,0
00117c c002      	RJMP _0x8C
00117d 5f3f      	SUBI R19,-1
00117e cffc      	RJMP _0x8A
                 _0x8C:
                 ;          delay_us(32);   //26-28u voltage-length means data "0" / 70u voltage-length means data "1"
                +
00117f ea8b     +LDI R24 , LOW ( 171 )
                +__DELAY_USB_LOOP :
001180 958a     +DEC R24
001181 f7f1     +BRNE __DELAY_USB_LOOP
                 	__DELAY_USB 171
                 ;          flag=0;
001182 e030      	LDI  R19,LOW(0)
                 ;          while(dhtpin) {flag++;}//   
                 _0x8D:
001183 9bb0      	SBIS 0x16,0
001184 c002      	RJMP _0x8F
001185 5f3f      	SUBI R19,-1
001186 cffc      	RJMP _0x8D
                 _0x8F:
                 ;          if(flag>10) tem[i]|= 1;// data "1"
001187 303b      	CPI  R19,11
001188 f028      	BRLO _0x90
001189 940e 1f7d 	CALL SUBOPT_0x1B
00118b 91ec      	LD   R30,X
00118c 60e1      	ORI  R30,1
00118d 93ec      	ST   X,R30
                 ;          #asm("sei")     // Global enable interrupts
                 _0x90:
00118e 9478      	sei
                 ;       };
00118f 5f0f      	SUBI R16,-1
001190 cfe2      	RJMP _0x88
                 _0x89:
                 ;    };
001191 5f1f      	SUBI R17,-1
001192 cfd9      	RJMP _0x85
                 _0x86:
                 ;    flag=tem[0]+tem[1]+tem[2]+tem[3];
001193 81ef      	LDD  R30,Y+7
001194 81ae      	LDD  R26,Y+6
001195 0fea      	ADD  R30,R26
001196 85a8      	LDD  R26,Y+8
001197 0fea      	ADD  R30,R26
001198 85a9      	LDD  R26,Y+9
001199 0fea      	ADD  R30,R26
00119a 2f3e      	MOV  R19,R30
                 ;    if(flag==tem[4]){
00119b 85ea      	LDD  R30,Y+10
00119c 17e3      	CP   R30,R19
00119d f009      	BREQ PC+2
00119e c054      	RJMP _0x91
                 ;      if(typeS) {tempRH =(int)tem[0]*10; pvT =(int)tem[2]*10;}            // Other = 1 -> DHT11
00119f fe25      	SBRS R2,5
0011a0 c008      	RJMP _0x92
0011a1 81ae      	LDD  R26,Y+6
0011a2 e0ea      	LDI  R30,LOW(10)
0011a3 9fea      	MUL  R30,R26
0011a4 01a0      	MOVW R20,R0
0011a5 85a8      	LDD  R26,Y+8
0011a6 9fea      	MUL  R30,R26
0011a7 01f0      	MOVW R30,R0
0011a8 c00f      	RJMP _0x2C6
                 ;      else {tempRH =(int)tem[0]*256+tem[1]; pvT =(int)tem[2]*256+tem[3];} // Other = 0 -> DHT21
                 _0x92:
0011a9 81ae      	LDD  R26,Y+6
0011aa 940e 1f84 	CALL SUBOPT_0x1C
0011ac 81ef      	LDD  R30,Y+7
0011ad e0f0      	LDI  R31,0
0011ae 0fea      	ADD  R30,R26
0011af 1ffb      	ADC  R31,R27
0011b0 01af      	MOVW R20,R30
0011b1 85a8      	LDD  R26,Y+8
0011b2 940e 1f84 	CALL SUBOPT_0x1C
0011b4 85e9      	LDD  R30,Y+9
0011b5 e0f0      	LDI  R31,0
0011b6 0fea      	ADD  R30,R26
0011b7 1ffb      	ADC  R31,R27
                 _0x2C6:
0011b8 93e0 03c9 	STS  _pvT,R30
0011ba 93f0 03ca 	STS  _pvT+1,R31
                 ;      pvT  += offsetT;
0011bc 91e0 03cb 	LDS  R30,_offsetT
0011be 91f0 03cc 	LDS  R31,_offsetT+1
0011c0 91a0 03c9 	LDS  R26,_pvT
0011c2 91b0 03ca 	LDS  R27,_pvT+1
0011c4 0fea      	ADD  R30,R26
0011c5 1ffb      	ADC  R31,R27
0011c6 93e0 03c9 	STS  _pvT,R30
0011c8 93f0 03ca 	STS  _pvT+1,R31
                 ;      pvRH = tempRH/10;
0011ca 01da      	MOVW R26,R20
0011cb e0ea      	LDI  R30,LOW(10)
0011cc e0f0      	LDI  R31,HIGH(10)
0011cd 940e 22fc 	CALL __DIVW21U
0011cf 940e 1f8b 	CALL SUBOPT_0x1D
                 ;      pvRH += offsetRH;                  //   
0011d1 91e0 03cf 	LDS  R30,_offsetRH
0011d3 91f0 03d0 	LDS  R31,_offsetRH+1
0011d5 940e 1f90 	CALL SUBOPT_0x1E
0011d7 0fea      	ADD  R30,R26
0011d8 1ffb      	ADC  R31,R27
0011d9 940e 1f8b 	CALL SUBOPT_0x1D
                 ;      err = 0;
0011db e0e0      	LDI  R30,LOW(0)
0011dc 93e0 03ff 	STS  _err_S0000013000,R30
                 ;      if(pvRH>100) pvRH=100; else if (pvRH<1) pvRH=1;
0011de 940e 1f90 	CALL SUBOPT_0x1E
0011e0 36a5      	CPI  R26,LOW(0x65)
0011e1 e0e0      	LDI  R30,HIGH(0x65)
0011e2 07be      	CPC  R27,R30
0011e3 f01c      	BRLT _0x94
0011e4 e6e4      	LDI  R30,LOW(100)
0011e5 e0f0      	LDI  R31,HIGH(100)
0011e6 c006      	RJMP _0x2C7
                 _0x94:
0011e7 940e 1f90 	CALL SUBOPT_0x1E
0011e9 9711      	SBIW R26,1
0011ea f434      	BRGE _0x96
0011eb e0e1      	LDI  R30,LOW(1)
0011ec e0f0      	LDI  R31,HIGH(1)
                 _0x2C7:
0011ed 93e0 03cd 	STS  _pvRH,R30
0011ef 93f0 03ce 	STS  _pvRH+1,R31
                 ;      return 1;
                 _0x96:
0011f1 e0e1      	LDI  R30,LOW(1)
0011f2 c175      	RJMP _0x20C0009
                 ;    }
                 ;    else if(++err>3) return 0;  //   CRC    errors |=0x10;
                 _0x91:
0011f3 91a0 03ff 	LDS  R26,_err_S0000013000
0011f5 5faf      	SUBI R26,-LOW(1)
0011f6 93a0 03ff 	STS  _err_S0000013000,R26
0011f8 30a4      	CPI  R26,LOW(0x4)
0011f9 f010      	BRLO _0x98
0011fa e0e0      	LDI  R30,LOW(0)
0011fb c16c      	RJMP _0x20C0009
                 ; }
                 _0x98:
                 ; else return 0;     //   
0011fc c002      	RJMP _0x99
                 _0x83:
0011fd e0e0      	LDI  R30,LOW(0)
0011fe c169      	RJMP _0x20C0009
                 ;}
                 _0x99:
0011ff c168      	RJMP _0x20C0009
                 ; .FEND
                 ;#include "buttons.c"
                 ;#define YP_DIR          DDRA.TFT_WRX   // TFT_WRX=6
                 ;#define YP_PORT         PORTA.TFT_WRX  // TFT_WRX=6
                 ;#define YP_PIN          TFT_WRX        // = 6
                 ;
                 ;#define YM_DIR          DDRC.7
                 ;#define YM_PORT         PORTC.7
                 ;
                 ;#define XP_DIR          DDRC.6
                 ;#define XP_PORT         PORTC.6
                 ;
                 ;#define XM_DIR          DDRA.TFT_DCX   // TFT_DCX=5
                 ;#define XM_PORT         PORTA.TFT_DCX  // TFT_DCX=5
                 ;#define XM_PIN          TFT_DCX        // = 5
                 ;
                 ;#define MINPRESSURE     10
                 ;#define MAXPRESSURE     1000
                 ;#define INPUT           0
                 ;#define OUTPUT          1
                 ;#define LOW             0
                 ;#define HIGH            1
                 ;
                 ;#define TS_MINX        125
                 ;#define TS_MAXX        907
                 ;#define TS_MINY        130
                 ;#define TS_MAXY        935
                 ;
                 ;unsigned char buttonCount, plusCount;
                 ;unsigned int point_X, point_Y, point_Z, bottom_Y, left_X;
                 ;struct ram_structure {int x,y; char w,h;} buttons[4];// Global structure located in RAM
                 ;struct {int x,y; char w,h;} plus[8];// Global structure located in RAM
                 ;
                 ;// Read the AD conversion result
                 ;unsigned int read_adc(unsigned char adc_input)
                 ; 0000 0060 {
                 _read_adc:
                 ; .FSTART _read_adc
                 ;adc_input |= (ADC_VREF_TYPE & 0xff);
001200 93aa      	ST   -Y,R26
                 ;	adc_input -> Y+0
001201 81e8      	LD   R30,Y
001202 64e0      	ORI  R30,0x40
001203 83e8      	ST   Y,R30
                 ;ADMUX=adc_input;
001204 b9e7      	OUT  0x7,R30
                 ;// Delay needed for the stabilization of the ADC input voltage
                 ;delay_us(10);
                +
001205 e385     +LDI R24 , LOW ( 53 )
                +__DELAY_USB_LOOP :
001206 958a     +DEC R24
001207 f7f1     +BRNE __DELAY_USB_LOOP
                 	__DELAY_USB 53
                 ;// Start the AD conversion
                 ;ADCSRA|=0x40;
001208 9a36      	SBI  0x6,6
                 ;// Wait for the AD conversion to complete
                 ;while ((ADCSRA & 0x10)==0);
                 _0x9A:
001209 9b34      	SBIS 0x6,4
00120a cffe      	RJMP _0x9A
                 ;ADCSRA|=0x10;
00120b 9a34      	SBI  0x6,4
                 ;return ADCW;
00120c b1e4      	IN   R30,0x4
00120d b1f5      	IN   R31,0x4+1
00120e c314      	RJMP _0x20C0004
                 ;}
                 ; .FEND
                 ;
                 ;void initializePlus(char y, char row, char h){//  
                 _initializePlus:
                 ; .FSTART _initializePlus
                 ; char i,j,indx, w=40, col=2;
                 ; unsigned int x;
                 ;  if(h<14) h=14;
00120f 93aa      	ST   -Y,R26
001210 9722      	SBIW R28,2
001211 940e 23b3 	CALL __SAVELOCR6
                 ;	y -> Y+10
                 ;	row -> Y+9
                 ;	h -> Y+8
                 ;	i -> R17
                 ;	j -> R16
                 ;	indx -> R19
                 ;	w -> R18
                 ;	col -> R21
                 ;	x -> Y+6
001213 e228      	LDI  R18,40
001214 e052      	LDI  R21,2
001215 85a8      	LDD  R26,Y+8
001216 30ae      	CPI  R26,LOW(0xE)
001217 f410      	BRSH _0x9D
001218 e0ee      	LDI  R30,LOW(14)
001219 87e8      	STD  Y+8,R30
                 ;  y = y - 4;      // Y   
                 _0x9D:
00121a 85ea      	LDD  R30,Y+10
00121b 50e4      	SUBI R30,LOW(4)
00121c 87ea      	STD  Y+10,R30
                 ;  indx = 0;
00121d e030      	LDI  R19,LOW(0)
                 ;  for (j=0; j<row; j++){
00121e e000      	LDI  R16,LOW(0)
                 _0x9F:
00121f 85e9      	LDD  R30,Y+9
001220 170e      	CP   R16,R30
001221 f590      	BRSH _0xA0
                 ;    x = TFTWIDTH-90;// X  1 
001222 eee6      	LDI  R30,LOW(230)
001223 e0f0      	LDI  R31,HIGH(230)
001224 83ee      	STD  Y+6,R30
001225 83ff      	STD  Y+6+1,R31
                 ;#pragma warn-
                 ;    for (i=0; i<col; i++){
001226 e010      	LDI  R17,LOW(0)
                 _0xA2:
001227 1715      	CP   R17,R21
001228 f520      	BRSH _0xA3
                 ;        plus[indx].x = x+i*(w+5);//   
001229 e0a6      	LDI  R26,LOW(6)
00122a 9f3a      	MUL  R19,R26
00122b 01f0      	MOVW R30,R0
00122c 5dec      	SUBI R30,LOW(-_plus)
00122d 4ffb      	SBCI R31,HIGH(-_plus)
00122e 940e 1f95 	CALL SUBOPT_0x1F
001230 81ae      	LDD  R26,Y+6
001231 81bf      	LDD  R27,Y+6+1
001232 0fea      	ADD  R30,R26
001233 1ffb      	ADC  R31,R27
001234 940e 1f9e 	CALL SUBOPT_0x20
                 ;        plus[indx].w = w;
                +
001236 5de8     +SUBI R30 , LOW ( - _plus - ( 4 ) )
001237 4ffb     +SBCI R31 , HIGH ( - _plus - ( 4 ) )
                 	__ADDW1MN _plus,4
001238 8320      	ST   Z,R18
                 ;        plus[indx].h = h;
001239 e0a6      	LDI  R26,LOW(6)
00123a 9f3a      	MUL  R19,R26
00123b 01f0      	MOVW R30,R0
                +
00123c 5de7     +SUBI R30 , LOW ( - _plus - ( 5 ) )
00123d 4ffb     +SBCI R31 , HIGH ( - _plus - ( 5 ) )
                 	__ADDW1MN _plus,5
00123e 85a8      	LDD  R26,Y+8
00123f 83a0      	STD  Z+0,R26
                 ;        plus[indx].y = y;
001240 e0a6      	LDI  R26,LOW(6)
001241 9f3a      	MUL  R19,R26
001242 01f0      	MOVW R30,R0
                +
001243 5dea     +SUBI R30 , LOW ( - _plus - ( 2 ) )
001244 4ffb     +SBCI R31 , HIGH ( - _plus - ( 2 ) )
                 	__ADDW1MN _plus,2
001245 01df      	MOVW R26,R30
001246 85ea      	LDD  R30,Y+10
001247 e0f0      	LDI  R31,0
001248 93ed      	ST   X+,R30
001249 93fc      	ST   X,R31
                 ;        indx++;
00124a 5f3f      	SUBI R19,-1
                 ;    }
00124b 5f1f      	SUBI R17,-1
00124c cfda      	RJMP _0xA2
                 _0xA3:
                 ;    y += (h+6);//   
00124d 85e8      	LDD  R30,Y+8
00124e 5fea      	SUBI R30,-LOW(6)
00124f 85aa      	LDD  R26,Y+10
001250 0fea      	ADD  R30,R26
001251 87ea      	STD  Y+10,R30
                 ;#pragma warn+
                 ;  }
001252 5f0f      	SUBI R16,-1
001253 cfcb      	RJMP _0x9F
                 _0xA0:
                 ;  left_X = x;//       
001254 81ee      	LDD  R30,Y+6
001255 81ff      	LDD  R31,Y+6+1
001256 93e0 040a 	STS  _left_X,R30
001258 93f0 040b 	STS  _left_X+1,R31
                 ;  plusCount = col * row;//   
00125a 85e9      	LDD  R30,Y+9
00125b 02e5      	MULS R30,R21
00125c 01f0      	MOVW R30,R0
00125d 93e0 0401 	STS  _plusCount,R30
                 ;}
00125f c108      	RJMP _0x20C0009
                 ; .FEND
                 ;
                 ;void initializeButtons(char col, char row, char h){//  
                 _initializeButtons:
                 ; .FSTART _initializeButtons
                 ; char i,j,indx, w;
                 ; unsigned int x,y;
                 ;  switch (col)                  //     -   
001260 93aa      	ST   -Y,R26
001261 940e 1fa5 	CALL SUBOPT_0x21
                 ;	col -> Y+10
                 ;	row -> Y+9
                 ;	h -> Y+8
                 ;	i -> R17
                 ;	j -> R16
                 ;	indx -> R19
                 ;	w -> R18
                 ;	x -> R20,R21
                 ;	y -> Y+6
001263 e0f0      	LDI  R31,0
                 ;   {
                 ;    case 4: w = max_X/4-6; break;  // 72
001264 30e4      	CPI  R30,LOW(0x4)
001265 e0a0      	LDI  R26,HIGH(0x4)
001266 07fa      	CPC  R31,R26
001267 f429      	BRNE _0xA7
001268 940e 1faa 	CALL SUBOPT_0x22
00126a 940e 22b5 	CALL __LSRW2
00126c c017      	RJMP _0x2C8
                 ;    case 3: w = max_X/3-6; break;  // 100
                 _0xA7:
00126d 30e3      	CPI  R30,LOW(0x3)
00126e e0a0      	LDI  R26,HIGH(0x3)
00126f 07fa      	CPC  R31,R26
001270 f439      	BRNE _0xA8
001271 940e 1f6b 	CALL SUBOPT_0x17
001273 e0e3      	LDI  R30,LOW(3)
001274 e0f0      	LDI  R31,HIGH(3)
001275 940e 22fc 	CALL __DIVW21U
001277 c00c      	RJMP _0x2C8
                 ;    case 2: w = max_X/2-9; break;  // 150
                 _0xA8:
001278 30e2      	CPI  R30,LOW(0x2)
001279 e0a0      	LDI  R26,HIGH(0x2)
00127a 07fa      	CPC  R31,R26
00127b f431      	BRNE _0xAA
00127c 940e 1faa 	CALL SUBOPT_0x22
00127e 95f6      	LSR  R31
00127f 95e7      	ROR  R30
001280 50e9      	SUBI R30,LOW(9)
001281 c003      	RJMP _0x2C9
                 ;    default: w = max_X-6;
                 _0xAA:
001282 91e0 03c3 	LDS  R30,_max_X
                 _0x2C8:
001284 50e6      	SUBI R30,LOW(6)
                 _0x2C9:
001285 2f2e      	MOV  R18,R30
                 ;   };
                 ;  if(h<20) h=20;
001286 85a8      	LDD  R26,Y+8
001287 31a4      	CPI  R26,LOW(0x14)
001288 f410      	BRSH _0xAB
001289 e1e4      	LDI  R30,LOW(20)
00128a 87e8      	STD  Y+8,R30
                 ;  y = max_Y - h - 4;      //   
                 _0xAB:
00128b 85e8      	LDD  R30,Y+8
00128c e0f0      	LDI  R31,0
00128d 940e 1f70 	CALL SUBOPT_0x18
00128f 1bae      	SUB  R26,R30
001290 0bbf      	SBC  R27,R31
001291 9714      	SBIW R26,4
001292 83ae      	STD  Y+6,R26
001293 83bf      	STD  Y+6+1,R27
                 ;  indx = 0;
001294 e030      	LDI  R19,LOW(0)
                 ;  for (j=0; j<row; j++){
001295 e000      	LDI  R16,LOW(0)
                 _0xAD:
001296 85e9      	LDD  R30,Y+9
001297 170e      	CP   R16,R30
001298 f590      	BRSH _0xAE
                 ;    x = 4;//  1 
                +
001299 e044     +LDI R20 , LOW ( 4 )
00129a e050     +LDI R21 , HIGH ( 4 )
                 	__GETWRN 20,21,4
                 ;    #pragma warn-
                 ;    for (i=0; i<col; i++){
00129b e010      	LDI  R17,LOW(0)
                 _0xB0:
00129c 85ea      	LDD  R30,Y+10
00129d 171e      	CP   R17,R30
00129e f508      	BRSH _0xB1
                 ;        buttons[indx].x = x+i*(w+5);//   
00129f e0a6      	LDI  R26,LOW(6)
0012a0 9f3a      	MUL  R19,R26
0012a1 01f0      	MOVW R30,R0
0012a2 5fe4      	SUBI R30,LOW(-_buttons)
0012a3 4ffb      	SBCI R31,HIGH(-_buttons)
0012a4 940e 1f95 	CALL SUBOPT_0x1F
0012a6 0fe4      	ADD  R30,R20
0012a7 1ff5      	ADC  R31,R21
0012a8 940e 1f9e 	CALL SUBOPT_0x20
                 ;        buttons[indx].w = w;
                +
0012aa 5fe0     +SUBI R30 , LOW ( - _buttons - ( 4 ) )
0012ab 4ffb     +SBCI R31 , HIGH ( - _buttons - ( 4 ) )
                 	__ADDW1MN _buttons,4
0012ac 8320      	ST   Z,R18
                 ;        buttons[indx].h = h;
0012ad e0a6      	LDI  R26,LOW(6)
0012ae 9f3a      	MUL  R19,R26
0012af 01f0      	MOVW R30,R0
                +
0012b0 5eef     +SUBI R30 , LOW ( - _buttons - ( 5 ) )
0012b1 4ffb     +SBCI R31 , HIGH ( - _buttons - ( 5 ) )
                 	__ADDW1MN _buttons,5
0012b2 85a8      	LDD  R26,Y+8
0012b3 83a0      	STD  Z+0,R26
                 ;        buttons[indx].y = y;
0012b4 e0a6      	LDI  R26,LOW(6)
0012b5 9f3a      	MUL  R19,R26
0012b6 01f0      	MOVW R30,R0
                +
0012b7 5fe2     +SUBI R30 , LOW ( - _buttons - ( 2 ) )
0012b8 4ffb     +SBCI R31 , HIGH ( - _buttons - ( 2 ) )
                 	__ADDW1MN _buttons,2
0012b9 81ae      	LDD  R26,Y+6
0012ba 81bf      	LDD  R27,Y+6+1
0012bb 83a0      	STD  Z+0,R26
0012bc 83b1      	STD  Z+1,R27
                 ;        indx++;
0012bd 5f3f      	SUBI R19,-1
                 ;    }
0012be 5f1f      	SUBI R17,-1
0012bf cfdc      	RJMP _0xB0
                 _0xB1:
                 ;    y -= (h+5);//   
0012c0 85e8      	LDD  R30,Y+8
0012c1 e0f0      	LDI  R31,0
0012c2 9635      	ADIW R30,5
0012c3 81ae      	LDD  R26,Y+6
0012c4 81bf      	LDD  R27,Y+6+1
0012c5 1bae      	SUB  R26,R30
0012c6 0bbf      	SBC  R27,R31
0012c7 83ae      	STD  Y+6,R26
0012c8 83bf      	STD  Y+6+1,R27
                 ;    #pragma warn+
                 ;  }
0012c9 5f0f      	SUBI R16,-1
0012ca cfcb      	RJMP _0xAD
                 _0xAE:
                 ;  bottom_Y = y;//        
0012cb 81ee      	LDD  R30,Y+6
0012cc 81ff      	LDD  R31,Y+6+1
0012cd 93e0 0408 	STS  _bottom_Y,R30
0012cf 93f0 0409 	STS  _bottom_Y+1,R31
                 ;  buttonCount = col * row;//   
0012d1 85e9      	LDD  R30,Y+9
0012d2 85aa      	LDD  R26,Y+10
0012d3 02ea      	MULS R30,R26
0012d4 01f0      	MOVW R30,R0
0012d5 93e0 0400 	STS  _buttonCount,R30
                 ;}
0012d7 c090      	RJMP _0x20C0009
                 ; .FEND
                 ;//----------------   -------   --------   ---  ---  ---------
                 ;void drawButton(unsigned int fill, unsigned int bord, unsigned int text, char b, char flash *str){
                 _drawButton:
                 ; .FSTART _drawButton
                 ; int x, y, w, h;//, r;
                 ;   w = buttons[b].w;      //  
0012d8 93ba      	ST   -Y,R27
0012d9 93aa      	ST   -Y,R26
0012da 940e 1fa5 	CALL SUBOPT_0x21
                 ;	fill -> Y+15
                 ;	bord -> Y+13
                 ;	text -> Y+11
                 ;	b -> Y+10
                 ;	*str -> Y+8
                 ;	x -> R16,R17
                 ;	y -> R18,R19
                 ;	w -> R20,R21
                 ;	h -> Y+6
0012dc e0a6      	LDI  R26,LOW(6)
0012dd 9fea      	MUL  R30,R26
0012de 01f0      	MOVW R30,R0
                +
0012df 5fe0     +SUBI R30 , LOW ( - _buttons - ( 4 ) )
0012e0 4ffb     +SBCI R31 , HIGH ( - _buttons - ( 4 ) )
                 	__ADDW1MN _buttons,4
0012e1 940e 1faf 	CALL SUBOPT_0x23
                 ;   h = buttons[b].h;      //  
                +
0012e3 5eef     +SUBI R30 , LOW ( - _buttons - ( 5 ) )
0012e4 4ffb     +SBCI R31 , HIGH ( - _buttons - ( 5 ) )
                 	__ADDW1MN _buttons,5
0012e5 940e 1fb6 	CALL SUBOPT_0x24
                 ;   x = buttons[b].x;      //   
0012e7 5fe4      	SUBI R30,LOW(-_buttons)
0012e8 4ffb      	SBCI R31,HIGH(-_buttons)
0012e9 940e 1fbf 	CALL SUBOPT_0x25
                 ;   y = buttons[b].y;      //   
                +
0012eb 5fe2     +SUBI R30 , LOW ( - _buttons - ( 2 ) )
0012ec 4ffb     +SBCI R31 , HIGH ( - _buttons - ( 2 ) )
                 	__ADDW1MN _buttons,2
0012ed 8120      	LD   R18,Z
0012ee 8131      	LDD  R19,Z+1
                 ;//   r = min(w,h)/4;
                 ;   //TFT_FillRoundRect(x, y, w, h, r, fill);
                 ;   ILI9341_FillRectangle(x, y, w, h, fill);
0012ef 940e 1fc6 	CALL SUBOPT_0x26
0012f1 89af      	LDD  R26,Y+23
0012f2 8db8      	LDD  R27,Y+23+1
0012f3 daa8      	RCALL _ILI9341_FillRectangle
                 ;   //TFT_DrawRoundRect(x, y, w, h, r, bord);
                 ;   ILI9341_DrawRectangle(x, y, w, h, bord);
0012f4 940e 1fc6 	CALL SUBOPT_0x26
0012f6 89ad      	LDD  R26,Y+21
0012f7 89be      	LDD  R27,Y+21+1
0012f8 db40      	RCALL _ILI9341_DrawRectangle
                 ;#pragma warn-
                 ;   x = x + w/2 - strlenf(str)*5;
0012f9 940e 1fcd 	CALL SUBOPT_0x27
0012fb 93ff      	PUSH R31
0012fc 93ef      	PUSH R30
0012fd 85a8      	LDD  R26,Y+8
0012fe 85b9      	LDD  R27,Y+8+1
0012ff 940e 1ead 	CALL _strlenf
001301 e0a5      	LDI  R26,LOW(5)
001302 e0b0      	LDI  R27,HIGH(5)
001303 940e 22ca 	CALL __MULW12U
001305 91af      	POP  R26
001306 91bf      	POP  R27
001307 1bae      	SUB  R26,R30
001308 0bbf      	SBC  R27,R31
001309 018d      	MOVW R16,R26
                 ;   y = y + h/2 - 8;
00130a 940e 1fd5 	CALL SUBOPT_0x28
                 ;#pragma warn+
                 ;   sprintf(buff,str); ILI9341_WriteString(x, y, buff, Font_11x18, text, fill, 1);
00130c 940e 1fe0 	CALL SUBOPT_0x29
00130e 85ea      	LDD  R30,Y+10
00130f 85fb      	LDD  R31,Y+10+1
001310 940e 1fe5 	CALL SUBOPT_0x2A
001312 940e 1fec 	CALL SUBOPT_0x2B
001314 940e 1fe0 	CALL SUBOPT_0x29
001316 940e 1ff1 	CALL SUBOPT_0x2C
001318 89ed      	LDD  R30,Y+21
001319 89fe      	LDD  R31,Y+21+1
00131a 93fa      	ST   -Y,R31
00131b 93ea      	ST   -Y,R30
00131c 8deb      	LDD  R30,Y+27
00131d 8dfc      	LDD  R31,Y+27+1
00131e 940e 1ffc 	CALL SUBOPT_0x2D
                 ;}
001320 940e 23ba 	CALL __LOADLOCR6
001322 9661      	ADIW R28,17
001323 9508      	RET
                 ; .FEND
                 ;
                 ;void drawPlus(char i, unsigned int fill){
                 _drawPlus:
                 ; .FSTART _drawPlus
                 ; int x, y, w, h;
                 ;   w = plus[i].w;      //  
001324 93ba      	ST   -Y,R27
001325 93aa      	ST   -Y,R26
001326 940e 1fa5 	CALL SUBOPT_0x21
                 ;	i -> Y+10
                 ;	fill -> Y+8
                 ;	x -> R16,R17
                 ;	y -> R18,R19
                 ;	w -> R20,R21
                 ;	h -> Y+6
001328 e0a6      	LDI  R26,LOW(6)
001329 9fea      	MUL  R30,R26
00132a 01f0      	MOVW R30,R0
                +
00132b 5de8     +SUBI R30 , LOW ( - _plus - ( 4 ) )
00132c 4ffb     +SBCI R31 , HIGH ( - _plus - ( 4 ) )
                 	__ADDW1MN _plus,4
00132d 940e 1faf 	CALL SUBOPT_0x23
                 ;   h = plus[i].h;      //  
                +
00132f 5de7     +SUBI R30 , LOW ( - _plus - ( 5 ) )
001330 4ffb     +SBCI R31 , HIGH ( - _plus - ( 5 ) )
                 	__ADDW1MN _plus,5
001331 940e 1fb6 	CALL SUBOPT_0x24
                 ;   x = plus[i].x;      //   
001333 5dec      	SUBI R30,LOW(-_plus)
001334 4ffb      	SBCI R31,HIGH(-_plus)
001335 940e 1fbf 	CALL SUBOPT_0x25
                 ;   y = plus[i].y;      //   
                +
001337 5dea     +SUBI R30 , LOW ( - _plus - ( 2 ) )
001338 4ffb     +SBCI R31 , HIGH ( - _plus - ( 2 ) )
                 	__ADDW1MN _plus,2
001339 8120      	LD   R18,Z
00133a 8131      	LDD  R19,Z+1
                 ;   if(i%2) ILI9341_DrawRectangle(x, y, w, h, BLUE);
00133b 940e 2001 	CALL SUBOPT_0x2E
00133d f029      	BREQ _0xB2
00133e 940e 1fc6 	CALL SUBOPT_0x26
001340 eea0      	LDI  R26,LOW(65504)
001341 efbf      	LDI  R27,HIGH(65504)
001342 c004      	RJMP _0x2CA
                 ;   else ILI9341_DrawRectangle(x, y, w, h, RED);
                 _0xB2:
001343 940e 1fc6 	CALL SUBOPT_0x26
001345 efaf      	LDI  R26,LOW(2047)
001346 e0b7      	LDI  R27,HIGH(2047)
                 _0x2CA:
001347 daf1      	RCALL _ILI9341_DrawRectangle
                 ;#pragma warn-
                 ;   x = x + w/2 - 5;
001348 940e 1fcd 	CALL SUBOPT_0x27
00134a 9735      	SBIW R30,5
00134b 018f      	MOVW R16,R30
                 ;   y = y + h/2 - 8;
00134c 940e 1fd5 	CALL SUBOPT_0x28
                 ;#pragma warn+
                 ;   if(i%2) ILI9341_WriteString(x, y, "-", Font_11x18, BLUE, fill, 1);
00134e 940e 2001 	CALL SUBOPT_0x2E
001350 f049      	BREQ _0xB4
001351 940e 1fec 	CALL SUBOPT_0x2B
                +
001353 e6e0     +LDI R30 , LOW ( _0xB5 + ( 0 ) )
001354 e0f2     +LDI R31 , HIGH ( _0xB5 + ( 0 ) )
                 	__POINTW1MN _0xB5,0
001355 940e 2009 	CALL SUBOPT_0x2F
001357 eee0      	LDI  R30,LOW(65504)
001358 efff      	LDI  R31,HIGH(65504)
001359 c008      	RJMP _0x2CB
                 ;   else ILI9341_WriteString(x, y, "+", Font_11x18, RED, fill, 1);
                 _0xB4:
00135a 940e 1fec 	CALL SUBOPT_0x2B
                +
00135c e6e2     +LDI R30 , LOW ( _0xB5 + ( 2 ) )
00135d e0f2     +LDI R31 , HIGH ( _0xB5 + ( 2 ) )
                 	__POINTW1MN _0xB5,2
00135e 940e 2009 	CALL SUBOPT_0x2F
001360 efef      	LDI  R30,LOW(2047)
001361 e0f7      	LDI  R31,HIGH(2047)
                 _0x2CB:
001362 93fa      	ST   -Y,R31
001363 93ea      	ST   -Y,R30
001364 89ec      	LDD  R30,Y+20
001365 89fd      	LDD  R31,Y+20+1
001366 940e 1ffc 	CALL SUBOPT_0x2D
                 ;}
                 _0x20C0009:
001368 940e 23ba 	CALL __LOADLOCR6
                 _0x20C000A:
00136a 962b      	ADIW R28,11
00136b 9508      	RET
                 ; .FEND
                 
                 	.DSEG
                 _0xB5:
000260           	.BYTE 0x4
                 ;
                 ;//x:    ,    
                 ;//in_min:       value
                 ;//in_max:      value
                 ;//out_min:         value
                 ;//out_max:        value
                 ;unsigned int map(unsigned int x, char in_min, unsigned int in_max, char out_min, unsigned int out_max)
                 ;{
                 
                 	.CSEG
                 _map:
                 ; .FSTART _map
                 ;long val;
                 ; val = (x - in_min); val *= (out_max - out_min); val /= (in_max - in_min); val += out_min;
00136c 93ba      	ST   -Y,R27
00136d 93aa      	ST   -Y,R26
00136e 9724      	SBIW R28,4
                 ;	x -> Y+10
                 ;	in_min -> Y+9
                 ;	in_max -> Y+7
                 ;	out_min -> Y+6
                 ;	out_max -> Y+4
                 ;	val -> Y+0
00136f 85e9      	LDD  R30,Y+9
001370 e0f0      	LDI  R31,0
001371 85aa      	LDD  R26,Y+10
001372 85bb      	LDD  R27,Y+10+1
001373 940e 200c 	CALL SUBOPT_0x30
001375 2766      	CLR  R22
001376 2777      	CLR  R23
001377 940e 2011 	CALL SUBOPT_0x31
001379 81ee      	LDD  R30,Y+6
00137a e0f0      	LDI  R31,0
00137b 81ac      	LDD  R26,Y+4
00137c 81bd      	LDD  R27,Y+4+1
00137d 940e 200c 	CALL SUBOPT_0x30
00137f 940e 1f0f 	CALL SUBOPT_0xD
001381 2766      	CLR  R22
001382 2777      	CLR  R23
001383 940e 22f7 	CALL __MULD12
001385 940e 2011 	CALL SUBOPT_0x31
001387 85e9      	LDD  R30,Y+9
001388 e0f0      	LDI  R31,0
001389 81af      	LDD  R26,Y+7
00138a 85b8      	LDD  R27,Y+7+1
00138b 940e 200c 	CALL SUBOPT_0x30
00138d 940e 1f0f 	CALL SUBOPT_0xD
00138f 2766      	CLR  R22
001390 2777      	CLR  R23
001391 940e 2339 	CALL __DIVD21
001393 940e 2011 	CALL SUBOPT_0x31
001395 81ee      	LDD  R30,Y+6
001396 e0f0      	LDI  R31,0
001397 940e 1f0f 	CALL SUBOPT_0xD
001399 940e 22c5 	CALL __CWD1
00139b 940e 2298 	CALL __ADDD12
00139d 940e 2011 	CALL SUBOPT_0x31
                 ; return val;
00139f 81e8      	LD   R30,Y
0013a0 81f9      	LDD  R31,Y+1
0013a1 962c      	ADIW R28,12
0013a2 9508      	RET
                 ;}
                 ; .FEND
                 ;
                 ;char contains(char b)//       .
                 ; {
                 _contains:
                 ; .FSTART _contains
                 ; int beg, end;
                 ;   beg = buttons[b].x;
0013a3 940e 2014 	CALL SUBOPT_0x32
                 ;	b -> Y+4
                 ;	beg -> R16,R17
                 ;	end -> R18,R19
0013a5 5fe4      	SUBI R30,LOW(-_buttons)
0013a6 4ffb      	SBCI R31,HIGH(-_buttons)
0013a7 940e 201c 	CALL SUBOPT_0x33
                 ;   end = beg + buttons[b].w-3;
                +
0013a9 5fe0     +SUBI R30 , LOW ( - _buttons - ( 4 ) )
0013aa 4ffb     +SBCI R31 , HIGH ( - _buttons - ( 4 ) )
                 	__ADDW1MN _buttons,4
0013ab 940e 2023 	CALL SUBOPT_0x34
                 ;   if ((point_X < beg)||(point_X > end)) return 0;
0013ad 940e 202a 	CALL SUBOPT_0x35
0013af 17a0      	CP   R26,R16
0013b0 07b1      	CPC  R27,R17
0013b1 f028      	BRLO _0xB8
0013b2 940e 202a 	CALL SUBOPT_0x35
0013b4 172a      	CP   R18,R26
0013b5 073b      	CPC  R19,R27
0013b6 f410      	BRSH _0xB7
                 _0xB8:
0013b7 e0e0      	LDI  R30,LOW(0)
0013b8 c044      	RJMP _0x20C0007
                 ;   beg = buttons[b].y;
                 _0xB7:
0013b9 940e 202f 	CALL SUBOPT_0x36
                +
0013bb 5fe2     +SUBI R30 , LOW ( - _buttons - ( 2 ) )
0013bc 4ffb     +SBCI R31 , HIGH ( - _buttons - ( 2 ) )
                 	__ADDW1MN _buttons,2
0013bd 940e 201c 	CALL SUBOPT_0x33
                 ;   end = beg + buttons[b].h-3;
                +
0013bf 5eef     +SUBI R30 , LOW ( - _buttons - ( 5 ) )
0013c0 4ffb     +SBCI R31 , HIGH ( - _buttons - ( 5 ) )
                 	__ADDW1MN _buttons,5
0013c1 940e 2023 	CALL SUBOPT_0x34
                 ;   if ((point_Y < beg)||(point_Y > end)) return 0;
0013c3 940e 2034 	CALL SUBOPT_0x37
0013c5 17a0      	CP   R26,R16
0013c6 07b1      	CPC  R27,R17
0013c7 f028      	BRLO _0xBB
0013c8 940e 2034 	CALL SUBOPT_0x37
0013ca 172a      	CP   R18,R26
0013cb 073b      	CPC  R19,R27
0013cc f410      	BRSH _0xBA
                 _0xBB:
0013cd e0e0      	LDI  R30,LOW(0)
0013ce c02e      	RJMP _0x20C0007
                 ;   return 1;
                 _0xBA:
0013cf c02c      	RJMP _0x20C0008
                 ; }
                 ; .FEND
                 ;
                 ;char containsPlus(char b)//       .
                 ; {
                 _containsPlus:
                 ; .FSTART _containsPlus
                 ; int beg, end;
                 ;   beg = plus[b].x-3;
0013d0 940e 2014 	CALL SUBOPT_0x32
                 ;	b -> Y+4
                 ;	beg -> R16,R17
                 ;	end -> R18,R19
0013d2 5dec      	SUBI R30,LOW(-_plus)
0013d3 4ffb      	SBCI R31,HIGH(-_plus)
0013d4 940e 2039 	CALL SUBOPT_0x38
                 ;   end = beg + plus[b].w+3;
                +
0013d6 5de8     +SUBI R30 , LOW ( - _plus - ( 4 ) )
0013d7 4ffb     +SBCI R31 , HIGH ( - _plus - ( 4 ) )
                 	__ADDW1MN _plus,4
0013d8 940e 203f 	CALL SUBOPT_0x39
                 ;   if ((point_X < beg)||(point_X > end)) return 0;
0013da 940e 202a 	CALL SUBOPT_0x35
0013dc 17a0      	CP   R26,R16
0013dd 07b1      	CPC  R27,R17
0013de f028      	BRLO _0xBE
0013df 940e 202a 	CALL SUBOPT_0x35
0013e1 172a      	CP   R18,R26
0013e2 073b      	CPC  R19,R27
0013e3 f410      	BRSH _0xBD
                 _0xBE:
0013e4 e0e0      	LDI  R30,LOW(0)
0013e5 c017      	RJMP _0x20C0007
                 ;   beg = plus[b].y-3;
                 _0xBD:
0013e6 940e 202f 	CALL SUBOPT_0x36
                +
0013e8 5dea     +SUBI R30 , LOW ( - _plus - ( 2 ) )
0013e9 4ffb     +SBCI R31 , HIGH ( - _plus - ( 2 ) )
                 	__ADDW1MN _plus,2
0013ea 940e 2039 	CALL SUBOPT_0x38
                 ;   end = beg + plus[b].h+3;
                +
0013ec 5de7     +SUBI R30 , LOW ( - _plus - ( 5 ) )
0013ed 4ffb     +SBCI R31 , HIGH ( - _plus - ( 5 ) )
                 	__ADDW1MN _plus,5
0013ee 940e 203f 	CALL SUBOPT_0x39
                 ;   if ((point_Y < beg)||(point_Y > end)) return 0;
0013f0 940e 2034 	CALL SUBOPT_0x37
0013f2 17a0      	CP   R26,R16
0013f3 07b1      	CPC  R27,R17
0013f4 f028      	BRLO _0xC1
0013f5 940e 2034 	CALL SUBOPT_0x37
0013f7 172a      	CP   R18,R26
0013f8 073b      	CPC  R19,R27
0013f9 f410      	BRSH _0xC0
                 _0xC1:
0013fa e0e0      	LDI  R30,LOW(0)
0013fb c001      	RJMP _0x20C0007
                 ;   return 1;
                 _0xC0:
                 _0x20C0008:
0013fc e0e1      	LDI  R30,LOW(1)
                 _0x20C0007:
0013fd 940e 23bc 	CALL __LOADLOCR4
0013ff 9625      	ADIW R28,5
001400 9508      	RET
                 ; }
                 ; .FEND
                 ;
                 ;char checkTouch(void)//      (point_Y, point_X)
                 ;{
                 _checkTouch:
                 ; .FSTART _checkTouch
                 ;char i;
                 ;int val, samples[2];
                 ;//------- Set X+ to ground --------------------
                 ;  XP_DIR = OUTPUT; // DDRC.6 ??????????????????
001401 9724      	SBIW R28,4
001402 940e 23b5 	CALL __SAVELOCR4
                 ;	i -> R17
                 ;	val -> R18,R19
                 ;	samples -> Y+4
001404 9aa6      	SBI  0x14,6
                 ;  XP_PORT = LOW;   // DDRC.6
001405 98ae      	CBI  0x15,6
                 ;//------- Set Y- to VCC -----------------------
                 ;  YM_DIR = OUTPUT; // DDRC.7 ??????????????????
001406 9aa7      	SBI  0x14,7
                 ;  YM_PORT = HIGH;  // DDRC.7 ??????????????????
001407 9aaf      	SBI  0x15,7
                 ;//------- Hi-Z X- and Y+ ----------------------
                 ;  YP_DIR = INPUT;  // TFT_WRX
001408 98d6      	CBI  0x1A,6
                 ;  YP_PORT = LOW;   // TFT_WRX
001409 98de      	CBI  0x1B,6
                 ;  XM_DIR = INPUT;  // TFT_DCX
00140a 98d5      	CBI  0x1A,5
                 ;  XM_PORT = LOW;   // TFT_DCX
00140b 98dd      	CBI  0x1B,5
                 ;  val = read_adc(YP_PIN);  // y
00140c e0a6      	LDI  R26,LOW(6)
00140d ddf2      	RCALL _read_adc
00140e 019f      	MOVW R18,R30
                 ;  val-= read_adc(XM_PIN);  //(y-x)
00140f e0a5      	LDI  R26,LOW(5)
001410 ddef      	RCALL _read_adc
                +
001411 1b2e     +SUB R18 , R30
001412 0b3f     +SBC R19 , R31
                 	__SUBWRR 18,19,30,31
                 ;  val = 1023-val;          // z
001413 efef      	LDI  R30,LOW(1023)
001414 e0f3      	LDI  R31,HIGH(1023)
001415 1be2      	SUB  R30,R18
001416 0bf3      	SBC  R31,R19
001417 019f      	MOVW R18,R30
                 ;  point_Z = val;
                +
001418 9320 0406+STS _point_Z + ( 0 ) , R18
00141a 9330 0407+STS _point_Z + ( 0 ) + 1 , R19
                 	__PUTWMRN _point_Z,0,18,19
                 ;
                 ;  if(val < 200){
                +
00141c 3c28     +CPI R18 , LOW ( 200 )
00141d e0e0     +LDI R30 , HIGH ( 200 )
00141e 073e     +CPC R19 , R30
                 	__CPWRN 18,19,200
00141f f41c      	BRGE _0xD3
                 ;    InitInterface();
001420 db03      	RCALL _InitInterface
                 ;//    sprintf(buff,"  v=%3u",val);
                 ;//    ILI9341_WriteString(5,TFTBUTTON-45,buff,Font_11x18,WHITE,BLACK,1);
                 ;    return 0;         //     
001421 e0e0      	LDI  R30,LOW(0)
001422 c075      	RJMP _0x20C0005
                 ;  }
                 ;  else                //   
                 _0xD3:
                 ;   {
                 ;     YP_DIR = INPUT;   // TFT_WRX ?????????????
001423 98d6      	CBI  0x1A,6
                 ;     YP_PORT = LOW;    // TFT_WRX ?????????????
001424 98de      	CBI  0x1B,6
                 ;     YM_DIR = INPUT;   // DDRC.7
001425 98a7      	CBI  0x14,7
                 ;     YM_PORT = LOW;    // DDRC.7
001426 98af      	CBI  0x15,7
                 ;     XP_DIR = OUTPUT;  // DDRC.6  ?????????????
001427 9aa6      	SBI  0x14,6
                 ;     XP_PORT = HIGH;   // DDRC.6
001428 9aae      	SBI  0x15,6
                 ;     XM_DIR = OUTPUT;  // TFT_DCX
001429 9ad5      	SBI  0x1A,5
                 ;     XM_PORT = LOW;    // TFT_DCX ?????????????
00142a 98dd      	CBI  0x1B,5
                 ;     do{
                 _0xE6:
                 ;        for (i=0; i<2; i++){samples[i] = read_adc(YP_PIN);}
00142b e010      	LDI  R17,LOW(0)
                 _0xE9:
00142c 3012      	CPI  R17,2
00142d f460      	BRSH _0xEA
00142e 940e 2046 	CALL SUBOPT_0x3A
001430 93ff      	PUSH R31
001431 93ef      	PUSH R30
001432 e0a6      	LDI  R26,LOW(6)
001433 ddcc      	RCALL _read_adc
001434 91af      	POP  R26
001435 91bf      	POP  R27
001436 93ed      	ST   X+,R30
001437 93fc      	ST   X,R31
001438 5f1f      	SUBI R17,-1
001439 cff2      	RJMP _0xE9
                 _0xEA:
                 ;        val = abs(samples[0]-samples[1]);
00143a 940e 204b 	CALL SUBOPT_0x3B
                 ;       } while (val>4);
                +
00143c 3025     +CPI R18 , LOW ( 5 )
00143d e0e0     +LDI R30 , HIGH ( 5 )
00143e 073e     +CPC R19 , R30
                 	__CPWRN 18,19,5
00143f f75c      	BRGE _0xE6
                 ;    //point_Y = (1023-(samples[0]+samples[1])/2);  // Orientation=0
                 ;     point_X = (samples[0]+samples[1])/2;           // Orientation=3
001440 940e 2056 	CALL SUBOPT_0x3C
001442 93e0 0402 	STS  _point_X,R30
001444 93f0 0403 	STS  _point_X+1,R31
                 ;
                 ;     XP_DIR = INPUT;  // DDRC.6
001446 98a6      	CBI  0x14,6
                 ;     XP_PORT = LOW;   // DDRC.6
001447 98ae      	CBI  0x15,6
                 ;     XM_DIR = INPUT;  // TFT_DCX
001448 98d5      	CBI  0x1A,5
                 ;     XM_PORT = LOW;   // TFT_DCX ?????????????
001449 98dd      	CBI  0x1B,5
                 ;     YP_DIR = OUTPUT; // TFT_WRX
00144a 9ad6      	SBI  0x1A,6
                 ;     YP_PORT = HIGH;  // TFT_WRX
00144b 9ade      	SBI  0x1B,6
                 ;     YM_DIR = OUTPUT; // DDRC.7
00144c 9aa7      	SBI  0x14,7
                 ;     YM_PORT = LOW;   // DDRC.7  ?????????????
00144d 98af      	CBI  0x15,7
                 ;     do{
                 _0xFC:
                 ;        for (i=0; i<2; i++){samples[i] = read_adc(XM_PIN);}
00144e e010      	LDI  R17,LOW(0)
                 _0xFF:
00144f 3012      	CPI  R17,2
001450 f460      	BRSH _0x100
001451 940e 2046 	CALL SUBOPT_0x3A
001453 93ff      	PUSH R31
001454 93ef      	PUSH R30
001455 e0a5      	LDI  R26,LOW(5)
001456 dda9      	RCALL _read_adc
001457 91af      	POP  R26
001458 91bf      	POP  R27
001459 93ed      	ST   X+,R30
00145a 93fc      	ST   X,R31
00145b 5f1f      	SUBI R17,-1
00145c cff2      	RJMP _0xFF
                 _0x100:
                 ;        val = abs(samples[0]-samples[1]);
00145d 940e 204b 	CALL SUBOPT_0x3B
                 ;       } while (val>4);
                +
00145f 3025     +CPI R18 , LOW ( 5 )
001460 e0e0     +LDI R30 , HIGH ( 5 )
001461 073e     +CPC R19 , R30
                 	__CPWRN 18,19,5
001462 f75c      	BRGE _0xFC
                 ;     //point_X = (1023-(samples[0]+samples[1])/2);   // Orientation=0
                 ;     point_Y = (1023-(samples[0]+samples[1])/2);     // Orientation=3
001463 940e 2056 	CALL SUBOPT_0x3C
001465 efaf      	LDI  R26,LOW(1023)
001466 e0b3      	LDI  R27,HIGH(1023)
001467 1bae      	SUB  R26,R30
001468 0bbf      	SBC  R27,R31
001469 93a0 0404 	STS  _point_Y,R26
00146b 93b0 0405 	STS  _point_Y+1,R27
                 ;
                 ;     InitInterface();
00146d dab6      	RCALL _InitInterface
                 ;     point_X = map(point_X, TS_MINX, TS_MAXX, 0, max_X);//       
00146e 940e 2061 	CALL SUBOPT_0x3D
001470 e7ed      	LDI  R30,LOW(125)
001471 93ea      	ST   -Y,R30
001472 e8eb      	LDI  R30,LOW(907)
001473 e0f3      	LDI  R31,HIGH(907)
001474 940e 2068 	CALL SUBOPT_0x3E
001476 940e 1f6b 	CALL SUBOPT_0x17
001478 def3      	RCALL _map
001479 93e0 0402 	STS  _point_X,R30
00147b 93f0 0403 	STS  _point_X+1,R31
                 ;     point_Y = map(point_Y, TS_MINY, TS_MAXY, 0, max_Y);//       
00147d 940e 206d 	CALL SUBOPT_0x3F
00147f e8e2      	LDI  R30,LOW(130)
001480 93ea      	ST   -Y,R30
001481 eae7      	LDI  R30,LOW(935)
001482 e0f3      	LDI  R31,HIGH(935)
001483 940e 2068 	CALL SUBOPT_0x3E
001485 940e 1f70 	CALL SUBOPT_0x18
001487 dee4      	RCALL _map
001488 93e0 0404 	STS  _point_Y,R30
00148a 93f0 0405 	STS  _point_Y+1,R31
                 ;ILI9341_FillRectangle(point_X, point_Y, 5, 5, RED);
00148c 940e 2061 	CALL SUBOPT_0x3D
00148e 940e 206d 	CALL SUBOPT_0x3F
001490 940e 2074 	CALL SUBOPT_0x40
001492 940e 2074 	CALL SUBOPT_0x40
001494 efaf      	LDI  R26,LOW(2047)
001495 e0b7      	LDI  R27,HIGH(2047)
001496 d905      	RCALL _ILI9341_FillRectangle
                 ;//sprintf(buff,"X%4u; Y%4u",point_X,point_Y);
                 ;//ILI9341_WriteString(5,TFTBUTTON-15,buff,Font_11x18,WHITE,BLACK,1);
                 ;     return 1;
001497 e0e1      	LDI  R30,LOW(1)
                 ;   }
                 ;}
                 _0x20C0005:
001498 940e 23bc 	CALL __LOADLOCR4
                 _0x20C0006:
00149a 9628      	ADIW R28,8
00149b 9508      	RET
                 ; .FEND
                 ;
                 ;#include "proc.c"
                 ;#define TUNING    170
                 ;
                 ;void temperature_check(void)
                 ; 0000 0061 {
                 _temperature_check:
                 ; .FSTART _temperature_check
                 ; int val;
                 ; unsigned char item, byte, crc, try=0;
                 ;  for (item=0; item < ds18b20;)
00149c 940e 23b3 	CALL __SAVELOCR6
                 ;	val -> R16,R17
                 ;	item -> R19
                 ;	byte -> R18
                 ;	crc -> R21
                 ;	try -> R20
00149e e040      	LDI  R20,0
00149f e030      	LDI  R19,LOW(0)
                 _0x102:
0014a0 1536      	CP   R19,R6
0014a1 f008      	BRLO PC+2
0014a2 c06f      	RJMP _0x103
                 ;   {
                 ;     w1_init();                 // 1 Wire Bus initialization
0014a3 940e 21bc 	CALL _w1_init
                 ;     w1_write(0x55);            // Load MATCH ROM [55H] comand
0014a5 e5a5      	LDI  R26,LOW(85)
0014a6 940e 2205 	CALL _w1_write
                 ;     ptr_char = &familycode[item][0];
0014a8 e0a9      	LDI  R26,LOW(9)
0014a9 9f3a      	MUL  R19,R26
0014aa 01f0      	MOVW R30,R0
0014ab 56e3      	SUBI R30,LOW(-_familycode)
0014ac 4ffc      	SBCI R31,HIGH(-_familycode)
0014ad 940e 2079 	CALL SUBOPT_0x41
                 ;     for (byte=0; byte < 8; byte++) w1_write(*ptr_char++);
0014af e020      	LDI  R18,LOW(0)
                 _0x105:
0014b0 3028      	CPI  R18,8
0014b1 f438      	BRSH _0x106
0014b2 940e 207e 	CALL SUBOPT_0x42
0014b4 81a0      	LD   R26,Z
0014b5 940e 2205 	CALL _w1_write
0014b7 5f2f      	SUBI R18,-1
0014b8 cff7      	RJMP _0x105
                 _0x106:
0014b9 eee7      	LDI  R30,LOW(_ds)
0014ba e0f3      	LDI  R31,HIGH(_ds)
0014bb 940e 2079 	CALL SUBOPT_0x41
                 ;     w1_write(0xBE);            // Read Scratchpad command [BE]
0014bd ebae      	LDI  R26,LOW(190)
0014be 940e 2205 	CALL _w1_write
                 ;     for (byte=0; byte < 8; byte++) *ptr_char++ = w1_read(); // Read cont. byte
0014c0 e020      	LDI  R18,LOW(0)
                 _0x108:
0014c1 3028      	CPI  R18,8
0014c2 f458      	BRSH _0x109
0014c3 940e 207e 	CALL SUBOPT_0x42
0014c5 93ff      	PUSH R31
0014c6 93ef      	PUSH R30
0014c7 940e 2200 	CALL _w1_read
0014c9 91af      	POP  R26
0014ca 91bf      	POP  R27
0014cb 93ec      	ST   X,R30
0014cc 5f2f      	SUBI R18,-1
0014cd cff3      	RJMP _0x108
                 _0x109:
0014ce 940e 2200 	CALL _w1_read
0014d0 2f5e      	MOV  R21,R30
                 ;     ptr_char = ds.buffer;
0014d1 eee7      	LDI  R30,LOW(_ds)
0014d2 e0f3      	LDI  R31,HIGH(_ds)
0014d3 940e 2079 	CALL SUBOPT_0x41
                 ;     if (w1_dow_crc8(ptr_char, 8)==crc){
0014d5 91e0 03df 	LDS  R30,_ptr_char
0014d7 91f0 03e0 	LDS  R31,_ptr_char+1
0014d9 93fa      	ST   -Y,R31
0014da 93ea      	ST   -Y,R30
0014db e0a8      	LDI  R26,LOW(8)
0014dc 940e 227e 	CALL _w1_dow_crc8
0014de 175e      	CP   R21,R30
0014df f501      	BRNE _0x10A
                 ;       try = 0; val = ds.pvT;
0014e0 e040      	LDI  R20,LOW(0)
                +
0014e1 9100 03e7+LDS R16 , 0 + ( _ds )
0014e3 9110 03e8+LDS R17 , 0 + ( _ds ) + 1
                 	__GETWRMN 16,17,0,_ds
                 ;       if (val<0) {val=-val; val = val*10/16; val=-val;} //     !!
0014e5 2311      	TST  R17
0014e6 f452      	BRPL _0x10B
0014e7 01f8      	MOVW R30,R16
0014e8 940e 229d 	CALL __ANEGW1
0014ea 018f      	MOVW R16,R30
0014eb 940e 2087 	CALL SUBOPT_0x43
0014ed 018f      	MOVW R16,R30
0014ee 940e 229d 	CALL __ANEGW1
0014f0 c002      	RJMP _0x2CC
                 ;       else val = val*10/16; //     !!
                 _0x10B:
0014f1 940e 2087 	CALL SUBOPT_0x43
                 _0x2CC:
0014f3 018f      	MOVW R16,R30
                 ;       //-----   DS18B20 ----------
                 ;       if(ds.buffer[2]==TUNING) val +=(signed char)ds.buffer[3]; //   
                +
0014f4 91a0 03e9+LDS R26 , _ds + ( 2 )
                 	__GETB2MN _ds,2
0014f6 3aaa      	CPI  R26,LOW(0xAA)
0014f7 f439      	BRNE _0x10D
                +
0014f8 91e0 03ea+LDS R30 , _ds + ( 3 )
                 	__GETB1MN _ds,3
0014fa e0f0      	LDI  R31,0
0014fb fde7      	SBRC R30,7
0014fc efff      	SER  R31
                +
0014fd 0f0e     +ADD R16 , R30
0014fe 1f1f     +ADC R17 , R31
                 	__ADDWRR 16,17,30,31
                 ;     }
                 _0x10D:
                 ;     else if (++try > 2) {val = 1990; try = 0;}// (199.0)    X     
0014ff c006      	RJMP _0x10E
                 _0x10A:
001500 5f4f      	SUBI R20,-LOW(1)
001501 3043      	CPI  R20,3
001502 f018      	BRLO _0x10F
                +
001503 ec06     +LDI R16 , LOW ( 1990 )
001504 e017     +LDI R17 , HIGH ( 1990 )
                 	__GETWRN 16,17,1990
001505 e040      	LDI  R20,LOW(0)
                 ;     t.point[item] = val;
                 _0x10F:
                 _0x10E:
001506 2fe3      	MOV  R30,R19
001507 eea1      	LDI  R26,LOW(_t)
001508 e0b3      	LDI  R27,HIGH(_t)
001509 e0f0      	LDI  R31,0
00150a 940e 1f03 	CALL SUBOPT_0xB
00150c 8300      	ST   Z,R16
00150d 8311      	STD  Z+1,R17
                 ;     if (try==0) item++;
00150e 3040      	CPI  R20,0
00150f f409      	BRNE _0x110
001510 5f3f      	SUBI R19,-1
                 ;   }
                 _0x110:
001511 cf8e      	RJMP _0x102
                 _0x103:
                 ;  w1_init();                    // 1 Wire Bus initialization
001512 940e 2092 	CALL SUBOPT_0x44
                 ;  w1_write(0xCC);               // Load Skip ROM [CCH] command
                 ;  w1_write(0x44);               // Load Convert T [44H] command
                 ;}
001514 940e 23ba 	CALL __LOADLOCR6
001516 9626      	ADIW R28,6
001517 9508      	RET
                 ; .FEND
                 ;
                 ;unsigned char module_check(unsigned char fc)
                 ;{
                 ; unsigned char *p, try, byte;
                 ;  p = out.buffer;
                 ;	fc -> Y+4
                 ;	*p -> R16,R17
                 ;	try -> R19
                 ;	byte -> R18
                 ;  out.buffer[3]=w1_dow_crc8(p,3);//  
                 ;  for (try=0; try<3; try++)
                 ;   {
                 ;    w1_init();            // 1 Wire Bus initialization
                 ;    w1_write(fc);         // Family code
                 ;    p = out.buffer;
                 ;    for (byte=0; byte<4; byte++) w1_write(*p++);
                 ;    p = in.buffer;
                 ;    for (byte=0; byte<4; byte++) *p++ = w1_read();// Read 4 byte
                 ;    p = in.buffer;
                 ;    if(byte==w1_dow_crc8(p,4)) break;
                 ;    delay_ms(10);
                 ;   };
                 ;  if(try>2) byte=0; else byte=1;
                 ;  return byte;
                 ;}
                 ;
                 ;//#define ID_CO2          0xF5    //  
                 ;//#define DATAREAD        0xA1    // Read Scratchpad
                 ;//unsigned char readCO2(void) //   2
                 ;//{
                 ;// unsigned char byte;
                 ;// static unsigned char try;
                 ;//  out.buffer[0]=DATAREAD;       // Function Command
                 ;//  out.buffer[1]=0x00;           // Data 1
                 ;//  out.buffer[2]=displCO2;       // Data 2 1-> ; 2->  ; 3-> ;
                 ;//  byte = module_check(ID_CO2); //  
                 ;//  if(byte){                     //    ...
                 ;//     pvCO2 = in.val[1];// CO2
                 ;//     try = 0;
                 ;//  }
                 ;//  else if(++try>5){pvCO2=0; error|=0x08;}//   CO2
                 ;//  return byte;
                 ;//}
                 ;
                 ;//- Converts a 2 digit decimal to BCD format. ---------
                 ;char ByteToBcd2(char Value){
                 ; char bcdhigh = 0;
                 ;  while (Value >= 10){
                 ;	Value -> Y+1
                 ;	bcdhigh -> R17
                 ;    bcdhigh++;
                 ;    Value -= 10;
                 ;  }
                 ;  return ((bcdhigh << 4U) | Value);
                 ;}
                 ;
                 ;// - Converts from 2 digit BCD to Binary. -----------
                 ;char Bcd2ToByte(char Value)
                 ;{
                 ;  char tmp = 0;
                 ;  tmp = ((Value & 0xF0) >> 0x4) * 10;
                 ;	Value -> Y+1
                 ;	tmp -> R17
                 ;  return (tmp + (Value & 0x0F));
                 ;}
                 ;
                 ;//signed int LowPassF2(signed int t,unsigned char i)
                 ;//{
                 ;//float val;
                 ;//  val = A1*Told1[i]-A2*Told2[i]+A3*t;
                 ;//  Told2[i] = Told1[i];
                 ;//  Told1[i] = val;
                 ;//  return val;
                 ;//}
                 ;
                 ;void setDAC(void) // V = Vref x (255/256)
                 ;{
                 ;unsigned char i, val;
                 ;  for (i=0; i<4; i++){
                 ;	i -> R17
                 ;	val -> R16
                 ;     switch (i){
                 ;        case 0: CSDAC1 = 0; break;
                 ;        case 1: CSDAC2 = 0; break;
                 ;        case 2: CSDAC3 = 0; break;
                 ;        case 3: CSDAC4 = 0; break;
                 ;     }
                 ;     SPCR = SPI_MOUD_FL;// SPI port enabled
                 ;     val = dacU[i]>>4;
                 ;     SPDR = val & 0x0F; // Load Register to DAC
                 ;     while (!(SPSR & (1<<SPIF)));     //     SPI Opcode
                 ;     val = dacU[i]<<4;
                 ;     SPDR = val & 0xF0;
                 ;     while (!(SPSR & (1<<SPIF)));     //     SPI Opcode
                 ;     PORTD|=0xF0;       // INSTRUCTION EXECUTED
                 ;  };
                 ;  SPCR = 0;             //disable SPI
                 ;}
                 ;
                 ;unsigned char adapt(unsigned char n)
                 ;{
                 _adapt:
                 ; .FSTART _adapt
                 ;  if (n>100) n=100;
001518 93aa      	ST   -Y,R26
                 ;	n -> Y+0
001519 81a8      	LD   R26,Y
00151a 36a5      	CPI  R26,LOW(0x65)
00151b f010      	BRLO _0x138
00151c e6e4      	LDI  R30,LOW(100)
00151d 83e8      	ST   Y,R30
                 ;  n <<= 1; n += ZERO;
                 _0x138:
00151e 81e8      	LD   R30,Y
00151f 0fee      	LSL  R30
001520 83e8      	ST   Y,R30
001521 5cee      	SUBI R30,-LOW(50)
001522 83e8      	ST   Y,R30
                 ;  return n;
                 _0x20C0004:
001523 9621      	ADIW R28,1
001524 9508      	RET
                 ;}
                 ; .FEND
                 ;#include "touchpad.c"
                 ;void touchpad(char byte){
                 ; 0000 0062 void touchpad(char byte){
                 ;  char max = MAX_SET-1;
                 ;     switch (displ_num){
                 ;	byte -> Y+1
                 ;	max -> R17
                 ;        case 0: if(byte<buttonCount){displ_num = byte; newSetButt = 1;} break;
                 ;        //-   -
                 ;        case 1: if(byte<buttonCount){displ_num = byte; newSetButt = 1;}
                 ;                if(displ_num==3) displ_num = 6;
                 ;        break;
                 ;        //-   -
                 ;        case 2: if(byte<buttonCount){displ_num = byte; newSetButt = 1;}
                 ;                if(displ_num==3) displ_num = 7;
                 ;        break;
                 ;        //-    -
                 ;        case 3:
                 ;          switch (byte){
                 ;            case 0: displ_num = 0; newSetButt = 1; break;
                 ;            case 1: if (--numMenu<0) numMenu = 0;    break;
                 ;            case 2: if (++numMenu>MAX_MENU-1) numMenu = MAX_MENU-1;    break;
                 ;            case 3: displ_num = 4; newSetButt = 1; break;
                 ;          }
                 ;          byte = 10;
                 ;        break;
                 ;        //-   -
                 ;        case 4:
                 ;          if (numMenu==4) max++;
                 ;          switch (byte){
                 ;            case 0: displ_num = 3; newSetButt = 1; break;
                 ;            case 1: if (--numSet<0) numSet = 0;    break;
                 ;            case 2: if (++numSet>max) numSet = max;    break;
                 ;            case 3: displ_num = 5; newSetButt = 1;
                 ;              switch (numMenu){
                 ;                case 0: for (byte=0;byte<MAX_SET;byte++) newval[byte] = set[0][byte]; break; // ""
                 ;                case 1: for (byte=0;byte<MAX_SET;byte++){                                     // ""
                 ;                            if (Dht) newval[byte] = set[1][byte];
                 ;                            else newval[byte] = set[2][byte];
                 ;                        }
                 ;                  break;
                 ;                case 2: for (byte=0;byte<MAX_SET;byte++) newval[byte] = set[3][byte]; break; // ""
                 ;                case 3: for (byte=0;byte<MAX_SET;byte++) newval[byte] = set[4][byte]; break; // ""
                 ;                case 4: for (byte=0;byte<2;byte++) newval[byte] = Bcd2ToByte(clock_buffer[byte+1]);
                 ;              };
                 ;            break;
                 ;          }
                 ;          byte = 10;
                 ;        break;
                 ;        //-  -
                 ;        case 5:
                 ;          switch (byte){
                 ;               case 0: displ_num = 4; newSetButt = 1; break;
                 ;            case 1: ++newval[numSet];
                 ;                 switch (numMenu) {
                 ;                    case 0:  // 
                 ;                        switch (numSet) {
                 ;                            case 0: if(newval[numSet]>1200) newval[numSet]=1200; break;   // 
                 ;                            case 1: if(newval[numSet]>500) newval[numSet]=500; break;   // 
                 ;                            case 2: if(newval[numSet]>100) newval[numSet]=100; break;   // 
                 ;                            case 3: if(newval[numSet]>1)  newval[numSet]=1;    break;   // 
                 ;                        };
                 ;                    break;
                 ;                    case 1:  // 
                 ;                        if (Dht){
                 ;                            switch (numSet) {
                 ;                                case 0: if(newval[numSet]>100) newval[numSet]=100; break;   // 
                 ;                                case 1: if(newval[numSet]>90) newval[numSet]=90; break;   // 
                 ;                                case 2: if(newval[numSet]>50) newval[numSet]=50; break;   // 
                 ;                                case 3: if(newval[numSet]>1)  newval[numSet]=1;  break;   // 
                 ;                            };
                 ;                        }
                 ;                        else {
                 ;                            switch (numSet) {
                 ;                                case 0: if(newval[numSet]>1200) newval[numSet]=1200; break;   // 
                 ;                                case 1: if(newval[numSet]>500) newval[numSet]=500; break;   // 
                 ;                                case 2: if(newval[numSet]>100) newval[numSet]=100; break;   // 
                 ;                                case 3: if(newval[numSet]>1)  newval[numSet]=1;  break;   // 
                 ;                            };
                 ;                        }
                 ;                    break;
                 ;                    case 2:  // 
                 ;                        switch (numSet) {
                 ;                            case 0: if(newval[numSet]>3600) newval[numSet]=3600; break;   // 
                 ;                            case 1: if(newval[numSet]>3600) newval[numSet]=3600; break;   // 
                 ;                            case 2: if(newval[numSet]>1) newval[numSet]=1; break;   // 
                 ;                            case 3: if(newval[numSet]>100) newval[numSet]=100; break;   // 
                 ;                        };
                 ;                    break;
                 ;                    case 3:  // 
                 ;                        switch (numSet) {
                 ;                            case 0:    break;   //
                 ;                            case 1:    break;   //
                 ;                            case 2:    break;   //
                 ;                            case 3:    break;   //
                 ;                            case 4:    break;   //
                 ;                        };
                 ;                    break;
                 ;                    case 4:  //   
                 ;                        switch (numSet) {
                 ;                            case 0:    break;   //
                 ;                            case 1:    break;   //
                 ;                            case 2:    break;   //
                 ;                            case 3:    break;   //
                 ;                            case 4:    break;   //
                 ;                        };
                 ;                    break;
                 ;                  };
                 ;            break;
                 ;            case 2: --newval[numSet];
                 ;                 switch (numMenu) {
                 ;                    case 0:  // 
                 ;                        switch (numSet) {
                 ;                            case 0: if(newval[numSet]<-500) newval[numSet]=-500; break;   // 
                 ;                            case 1: if(newval[numSet]<1) newval[numSet]=1; break;   // 
                 ;                            case 2: if(newval[numSet]<1) newval[numSet]=1; break;   // 
                 ;                            case 3: if(newval[numSet]<0) newval[numSet]=0; break;   // 
                 ;                        };
                 ;                    break;
                 ;                    case 1:  // 
                 ;                        switch (numSet) {
                 ;                            case 0: if(newval[numSet]<10) newval[numSet]=10; break;   // 
                 ;                            case 1: if(newval[numSet]<1) newval[numSet]=1; break;   // 
                 ;                            case 2: if(newval[numSet]<1) newval[numSet]=1; break;   // 
                 ;                            case 3: if(newval[numSet]<0) newval[numSet]=0; break;   // 
                 ;                        };
                 ;                    break;
                 ;                    case 2:  // 
                 ;                        switch (numSet) {
                 ;                            case 0: if(newval[numSet]<1) newval[numSet]=1; break;   // 
                 ;                            case 1: if(newval[numSet]<1) newval[numSet]=1; break;   // 
                 ;                            case 2: if(newval[numSet]<0) newval[numSet]=0; break;   // 
                 ;                            case 3: if(newval[numSet]<1) newval[numSet]=1; break;   // 
                 ;                        };
                 ;                    break;
                 ;                    case 3:  // 
                 ;                        switch (numSet) {
                 ;                            case 0:    break;   //
                 ;                            case 1:    break;   //
                 ;                            case 2:    break;   //
                 ;                            case 3:    break;   //
                 ;                        };
                 ;                    break;
                 ;                    case 4:  //   
                 ;                        switch (numSet) {
                 ;                            case 0:    break;   //
                 ;                            case 1:    break;   //
                 ;                            case 2:    break;   //
                 ;                            case 3:    break;   //
                 ;                        };
                 ;                    break;
                 ;                  };
                 ;            break;
                 ;            case 3: ILI9341_FillScreen(0, max_X, 0, max_Y, fillScreen);
                 ;                  ILI9341_WriteString(5,100,"  ",Font_11x18,GREEN,fillScreen,1);
                 ;                  switch (numMenu){
                 ;                    case 0: set[0][numSet] = newval[numSet]; break; // ""
                 ;                    case 1: if (Dht) set[1][numSet] = newval[numSet];  // ""
                 ;                            else set[2][numSet] = newval[numSet];
                 ;                      break;
                 ;                    case 2: set[3][numSet] = newval[numSet]; break; // ""
                 ;                    case 3: set[4][numSet] = newval[numSet]; break; // ""
                 ;                    case 4: for (byte=0;byte<2;byte++) clock_buffer[byte+1] = ByteToBcd2(newval[byte]);
                 ;                            Clock_Ok = write_TWI(DS3231,0,clock_buffer,7);
                 ;                      break; // "  "
                 ;                  }
                 ;                  delay_ms(500);
                 ;                  displ_num = 4; newSetButt = 1; break;
                 ;          }
                 ;          byte = 10;
                 ;        break;
                 ;        //-    -
                 ;        case 6:
                 ;          switch (byte){
                 ;               case 0: displ_num = 1; newSetButt = 1; break;
                 ;            case 1: if (--numSet<0) numSet = 0;    break;
                 ;            case 2: if (++numSet>MAX_SET-1) numSet = MAX_SET-1;    break;
                 ;            case 3: displ_num = 8; newSetButt = 1;
                 ;                for (byte=0;byte<MAX_SET;byte++) newval[byte] = analog[byte]; break;
                 ;            break;
                 ;          }
                 ;          byte = 10;
                 ;        break;
                 ;        //-    -
                 ;        case 7:
                 ;          switch (byte){
                 ;            case 0: displ_num = 2; newSetButt = 1; break;
                 ;            case 1: if (--numSet<0) numSet = 0;    break;
                 ;            case 2: if (++numSet>MAX_SET-1) numSet = MAX_SET-1;    break;
                 ;            case 3: displ_num = 9; newSetButt = 1;
                 ;                for (byte=0;byte<MAX_SET;byte++) newval[byte] = relay[byte]; break;
                 ;            break;
                 ;          }
                 ;          byte = 10;
                 ;        break;
                 ;        //- .   -
                 ;        case 8:
                 ;          switch (byte){
                 ;            case 0: displ_num = 6; newSetButt = 1; break;
                 ;            case 1: if(++newval[numSet]>100) newval[numSet]=100; break;
                 ;            case 2: if(--newval[numSet]<-1) newval[numSet] = -1; break;
                 ;            case 3: ILI9341_FillScreen(0, max_X, 0, max_Y, fillScreen);
                 ;                  ILI9341_WriteString(5,100,"  ",Font_11x18,GREEN,fillScreen,1);
                 ;                  analog[numSet] = newval[numSet];
                 ;                  delay_ms(1000);
                 ;                  displ_num = 6; newSetButt = 1; break;
                 ;          }
                 ;          byte = 10;
                 ;        break;
                 ;        //- .   -
                 ;        case 9:
                 ;          switch (byte){
                 ;               case 0: displ_num = 6; newSetButt = 1; break;
                 ;            case 1: if(++newval[numSet]>2) newval[numSet]= 2; break;
                 ;            case 2: if(--newval[numSet]<0) newval[numSet]= 0; break;
                 ;            case 3: ILI9341_FillScreen(0, max_X, 0, max_Y, fillScreen);
                 ;                  ILI9341_WriteString(5,100,"  ",Font_11x18,GREEN,fillScreen,1);
                 ;                  relay[numSet] = newval[numSet];
                 ;                  delay_ms(1000);
                 ;                  displ_num = 7; newSetButt = 1; break;
                 ;          }
                 ;          byte = 10;
                 ;        break;
                 ;        default: displ_num = 0; newSetButt = 1;
                 ;     }
                 ;}
                 
                 	.DSEG
                 _0x1FA:
000264           	.BYTE 0x33
                 ;
                 ;#include "displ.c"
                 ;unsigned char txt[10];
                 ;
                 ;void fraction(signed int t){
                 ; 0000 0063 void fraction(signed int t){
                 
                 	.CSEG
                 _fraction:
                 ; .FSTART _fraction
                 ;  if (t<0) {t = -t; signchar = '-';} else signchar = ' ';
001525 93ba      	ST   -Y,R27
001526 93aa      	ST   -Y,R26
                 ;	t -> Y+0
001527 81a9      	LDD  R26,Y+1
001528 23aa      	TST  R26
001529 f442      	BRPL _0x23B
00152a 81e8      	LD   R30,Y
00152b 81f9      	LDD  R31,Y+1
00152c 940e 229d 	CALL __ANEGW1
00152e 83e8      	ST   Y,R30
00152f 83f9      	STD  Y+1,R31
001530 e2ed      	LDI  R30,LOW(45)
001531 c001      	RJMP _0x2D3
                 _0x23B:
001532 e2e0      	LDI  R30,LOW(32)
                 _0x2D3:
001533 2ebe      	MOV  R11,R30
                 ;  frcval = t%10; intval = t/10;
001534 81a8      	LD   R26,Y
001535 81b9      	LDD  R27,Y+1
001536 e0ea      	LDI  R30,LOW(10)
001537 e0f0      	LDI  R31,HIGH(10)
001538 940e 233e 	CALL __MODW21
00153a 2ede      	MOV  R13,R30
00153b 81a8      	LD   R26,Y
00153c 81b9      	LDD  R27,Y+1
00153d e0ea      	LDI  R30,LOW(10)
00153e e0f0      	LDI  R31,HIGH(10)
00153f 940e 230f 	CALL __DIVW21
001541 2eae      	MOV  R10,R30
                 ;}
001542 9622      	ADIW R28,2
001543 9508      	RET
                 ; .FEND
                 ;
                 ;void checkDisplNum(void){
                 _checkDisplNum:
                 ; .FSTART _checkDisplNum
                 ;  unsigned char i;
                 ;    if(point_Y>200){
001544 931a      	ST   -Y,R17
                 ;	i -> R17
001545 940e 2034 	CALL SUBOPT_0x37
001547 3ca9      	CPI  R26,LOW(0xC9)
001548 e0e0      	LDI  R30,HIGH(0xC9)
001549 07be      	CPC  R27,R30
00154a f080      	BRLO _0x23D
                 ;        for (i=0; i<4; i++){if(contains(i)) break;}//       
00154b e010      	LDI  R17,LOW(0)
                 _0x23F:
00154c 3014      	CPI  R17,4
00154d f430      	BRSH _0x240
00154e 2fa1      	MOV  R26,R17
00154f de53      	RCALL _contains
001550 30e0      	CPI  R30,0
001551 f411      	BRNE _0x240
001552 5f1f      	SUBI R17,-1
001553 cff8      	RJMP _0x23F
                 _0x240:
                 ;        if(i<4){BeepT = 20; displ_num = i; newSetButt = 1;}
001554 3014      	CPI  R17,4
001555 f428      	BRSH _0x242
001556 e1e4      	LDI  R30,LOW(20)
001557 2e5e      	MOV  R5,R30
001558 2e41      	MOV  R4,R17
001559 e0e1      	LDI  R30,LOW(1)
00155a 2e7e      	MOV  R7,R30
                 ;    }
                 _0x242:
                 ;}
                 _0x23D:
                 _0x20C0003:
00155b 9119      	LD   R17,Y+
00155c 9508      	RET
                 ; .FEND
                 ;
                 ;//void drawButtEdit(unsigned int fW){
                 ;//    newSetButt = 0;
                 ;//    ILI9341_FillScreen(0, max_X, 0, max_Y, fW);
                 ;//    initializeButtons(2,1,25);// 2 ;  ;  25
                 ;//    //----------  ------- a ---  -  - ---------
                 ;//    drawButton(BLUE, WHITE, WHITE, 0, "");
                 ;//    drawButton(MAGENTA, BLACK, BLACK, 1, ".");
                 ;//}
                 ;
                 ;//--------------------------------  . ----------------------------------------
                 ;void displ_0(void){
                 _displ_0:
                 ; .FSTART _displ_0
                 ; unsigned char i;
                 ; unsigned int fillWindow = BLUE1, bordWindow = BLACK, temp;
                 ;    if(newSetButt){
00155d 9722      	SBIW R28,2
00155e 940e 23b3 	CALL __SAVELOCR6
                 ;	i -> R17
                 ;	fillWindow -> R18,R19
                 ;	bordWindow -> R20,R21
                 ;	temp -> Y+6
                +
001560 e020     +LDI R18 , LOW ( - 1536 )
001561 ef3a     +LDI R19 , HIGH ( - 1536 )
                 	__GETWRN 18,19,-1536
                +
001562 ef4f     +LDI R20 , LOW ( - 1 )
001563 ef5f     +LDI R21 , HIGH ( - 1 )
                 	__GETWRN 20,21,-1
001564 2077      	TST  R7
001565 f109      	BREQ _0x243
                 ;        newSetButt = 0;
001566 2477      	CLR  R7
                 ;        ILI9341_FillScreen(0, max_X, 0, max_Y, fillWindow);
001567 940e 1f66 	CALL SUBOPT_0x16
001569 940e 209a 	CALL SUBOPT_0x45
00156b 940e 209e 	CALL SUBOPT_0x46
                 ;        initializeButtons(4,1,25);// 4 ;  ;  25
                 ;        //----------  ------- a ---  -  - ---------
                 ;        drawButton(fillWindow, fillWindow, bordWindow, 0, "");
00156d 940e 20ae 	CALL SUBOPT_0x47
00156f e0e0      	LDI  R30,LOW(0)
001570 93ea      	ST   -Y,R30
001571 940e 20b5 	CALL SUBOPT_0x48
                 ;        drawButton(WHITE, WHITE, BLACK, 1, "");
001573 940e 1f66 	CALL SUBOPT_0x16
001575 940e 1f66 	CALL SUBOPT_0x16
001577 940e 20b9 	CALL SUBOPT_0x49
001579 940e 20be 	CALL SUBOPT_0x4A
                 ;        drawButton(WHITE, WHITE, BLACK, 2, "");
00157b 940e 1f66 	CALL SUBOPT_0x16
00157d 940e 20b9 	CALL SUBOPT_0x49
00157f 940e 20c5 	CALL SUBOPT_0x4B
                 ;        drawButton(WHITE, WHITE, BLACK, 3, "");
001581 940e 1f66 	CALL SUBOPT_0x16
001583 940e 20b9 	CALL SUBOPT_0x49
001585 940e 20cc 	CALL SUBOPT_0x4C
                 ;    }
                 ;//---   ------
                 ;    pointY = 3;
                 _0x243:
001587 e0e3      	LDI  R30,LOW(3)
001588 2e9e      	MOV  R9,R30
                 ;    if(Clock_Ok){
001589 fe21      	SBRS R2,1
00158a c03c      	RJMP _0x244
                 ;        read_TWI(DS3231,0,clock_buffer,7);//    
00158b ede0      	LDI  R30,LOW(208)
00158c 93ea      	ST   -Y,R30
00158d 940e 1f66 	CALL SUBOPT_0x16
00158f ebe8      	LDI  R30,LOW(_clock_buffer)
001590 e0f3      	LDI  R31,HIGH(_clock_buffer)
001591 93fa      	ST   -Y,R31
001592 93ea      	ST   -Y,R30
001593 e0a7      	LDI  R26,LOW(7)
001594 e0b0      	LDI  R27,0
001595 dab7      	RCALL _read_TWI
                 ;        sprintf(buff,"%02x:%02x   %02x.%02x.20%02x",clock_buffer[2],clock_buffer[1],clock_buffer[4],clock_buffer[5],cloc ...
001596 940e 1fe0 	CALL SUBOPT_0x29
                +
001598 eeec     +LDI R30 , LOW ( 2 * _0x0 + ( 228 ) )
001599 e1f7     +LDI R31 , HIGH ( 2 * _0x0 + ( 228 ) )
                 	__POINTW1FN _0x0,228
00159a 93fa      	ST   -Y,R31
00159b 93ea      	ST   -Y,R30
                +
00159c 91e0 03ba+LDS R30 , _clock_buffer + ( 2 )
                 	__GETB1MN _clock_buffer,2
00159e 940e 20d2 	CALL SUBOPT_0x4D
                +
0015a0 91e0 03b9+LDS R30 , _clock_buffer + ( 1 )
                 	__GETB1MN _clock_buffer,1
0015a2 940e 20d2 	CALL SUBOPT_0x4D
                +
0015a4 91e0 03bc+LDS R30 , _clock_buffer + ( 4 )
                 	__GETB1MN _clock_buffer,4
0015a6 940e 20d2 	CALL SUBOPT_0x4D
                +
0015a8 91e0 03bd+LDS R30 , _clock_buffer + ( 5 )
                 	__GETB1MN _clock_buffer,5
0015aa 940e 20d2 	CALL SUBOPT_0x4D
                +
0015ac 91e0 03be+LDS R30 , _clock_buffer + ( 6 )
                 	__GETB1MN _clock_buffer,6
0015ae 940e 20d2 	CALL SUBOPT_0x4D
0015b0 e184      	LDI  R24,20
0015b1 940e 1ced 	CALL _sprintf
0015b3 9668      	ADIW R28,24
                 ;        ILI9341_WriteString(70,pointY,buff,Font_11x18,BLACK,WHITE,1); ILI9341_WriteString(70,pointY,buff,Font_11x18,WHIT ...
0015b4 940e 20d8 	CALL SUBOPT_0x4E
0015b6 940e 1ff1 	CALL SUBOPT_0x2C
0015b8 940e 20b9 	CALL SUBOPT_0x49
0015ba 940e 1f66 	CALL SUBOPT_0x16
0015bc e0a1      	LDI  R26,LOW(1)
0015bd d900      	RCALL _ILI9341_WriteString
0015be 940e 20d8 	CALL SUBOPT_0x4E
0015c0 940e 1ff1 	CALL SUBOPT_0x2C
0015c2 940e 1f66 	CALL SUBOPT_0x16
0015c4 efef      	LDI  R30,LOW(65535)
0015c5 efff      	LDI  R31,HIGH(65535)
0015c6 c018      	RJMP _0x2D4
                 ;    }
                 ;    else {
                 _0x244:
                 ;        sprintf(buff," !");
0015c7 940e 1fe0 	CALL SUBOPT_0x29
                +
0015c9 e0e9     +LDI R30 , LOW ( 2 * _0x0 + ( 257 ) )
0015ca e1f8     +LDI R31 , HIGH ( 2 * _0x0 + ( 257 ) )
                 	__POINTW1FN _0x0,257
0015cb 940e 1fe5 	CALL SUBOPT_0x2A
                 ;        ILI9341_WriteString(70,pointY,buff,Font_11x18,YELLOW,RED,1); ILI9341_WriteString(70,pointY,buff,Font_11x18,RED,Y ...
0015cd 940e 20d8 	CALL SUBOPT_0x4E
0015cf 940e 1ff1 	CALL SUBOPT_0x2C
0015d1 940e 20e1 	CALL SUBOPT_0x4F
0015d3 940e 1ffc 	CALL SUBOPT_0x2D
0015d5 940e 20d8 	CALL SUBOPT_0x4E
0015d7 940e 1ff1 	CALL SUBOPT_0x2C
0015d9 efef      	LDI  R30,LOW(2047)
0015da e0f7      	LDI  R31,HIGH(2047)
0015db 93fa      	ST   -Y,R31
0015dc 93ea      	ST   -Y,R30
0015dd e1ef      	LDI  R30,LOW(31)
0015de e0f0      	LDI  R31,HIGH(31)
                 _0x2D4:
0015df 93fa      	ST   -Y,R31
0015e0 93ea      	ST   -Y,R30
0015e1 e0a1      	LDI  R26,LOW(1)
0015e2 d8db      	RCALL _ILI9341_WriteString
                 ;    }
                 ;    pointY += 22;
0015e3 e1e6      	LDI  R30,LOW(22)
0015e4 0e9e      	ADD  R9,R30
                 ;    if(checkTouch()) checkDisplNum();//*****************************    *************************** ...
0015e5 de1b      	RCALL _checkTouch
0015e6 30e0      	CPI  R30,0
0015e7 f009      	BREQ _0x246
0015e8 df5b      	RCALL _checkDisplNum
                 ;//---  t  -----
                 ;    temp = set[0][0]; fraction(temp);     //   
                 _0x246:
0015e9 e0a0      	LDI  R26,LOW(_set)
0015ea e0b0      	LDI  R27,HIGH(_set)
0015eb 940e 2395 	CALL __EEPROMRDW
0015ed 940e 20e8 	CALL SUBOPT_0x50
                 ;    sprintf(buff,"[%2u.%u]",intval,frcval); //  T    
                +
0015ef e1e8     +LDI R30 , LOW ( 2 * _0x0 + ( 272 ) )
0015f0 e1f8     +LDI R31 , HIGH ( 2 * _0x0 + ( 272 ) )
                 	__POINTW1FN _0x0,272
0015f1 940e 20ef 	CALL SUBOPT_0x51
0015f3 2ded      	MOV  R30,R13
0015f4 940e 20d2 	CALL SUBOPT_0x4D
0015f6 940e 20f3 	CALL SUBOPT_0x52
                 ;    ILI9341_WriteString(5,pointY+5,buff,Font_11x18,bordWindow,fillWindow,1);
0015f8 940e 2074 	CALL SUBOPT_0x40
0015fa 940e 20f8 	CALL SUBOPT_0x53
0015fc 940e 1ff1 	CALL SUBOPT_0x2C
0015fe 940e 20fe 	CALL SUBOPT_0x54
                 ;    ILI9341_WriteString(5,pointY+25,"",Font_11x18,bordWindow,fillWindow,1);
001600 940e 2074 	CALL SUBOPT_0x40
001602 2de9      	MOV  R30,R9
001603 e0f0      	LDI  R31,0
001604 9679      	ADIW R30,25
001605 93fa      	ST   -Y,R31
001606 93ea      	ST   -Y,R30
                +
001607 e9e7     +LDI R30 , LOW ( _0x247 + ( 0 ) )
001608 e0f2     +LDI R31 , HIGH ( _0x247 + ( 0 ) )
                 	__POINTW1MN _0x247,0
001609 940e 2009 	CALL SUBOPT_0x2F
00160b 940e 20fe 	CALL SUBOPT_0x54
                 ;    if (pvT>1250) sprintf(buff,"**.*");
00160d 91a0 03c9 	LDS  R26,_pvT
00160f 91b0 03ca 	LDS  R27,_pvT+1
001611 3ea3      	CPI  R26,LOW(0x4E3)
001612 e0e4      	LDI  R30,HIGH(0x4E3)
001613 07be      	CPC  R27,R30
001614 f03c      	BRLT _0x248
001615 940e 1fe0 	CALL SUBOPT_0x29
                +
001617 e2ed     +LDI R30 , LOW ( 2 * _0x0 + ( 293 ) )
001618 e1f8     +LDI R31 , HIGH ( 2 * _0x0 + ( 293 ) )
                 	__POINTW1FN _0x0,293
001619 940e 1fe5 	CALL SUBOPT_0x2A
                 ;    else {
00161b c00f      	RJMP _0x249
                 _0x248:
                 ;        temp = pvT; fraction(temp);     //   
00161c 91e0 03c9 	LDS  R30,_pvT
00161e 91f0 03ca 	LDS  R31,_pvT+1
001620 940e 20e8 	CALL SUBOPT_0x50
                 ;        sprintf(buff,"%2u.%u",intval,frcval); // T     
                +
001622 e3e2     +LDI R30 , LOW ( 2 * _0x0 + ( 298 ) )
001623 e1f8     +LDI R31 , HIGH ( 2 * _0x0 + ( 298 ) )
                 	__POINTW1FN _0x0,298
001624 940e 20ef 	CALL SUBOPT_0x51
001626 2ded      	MOV  R30,R13
001627 940e 20d2 	CALL SUBOPT_0x4D
001629 940e 20f3 	CALL SUBOPT_0x52
                 ;    }
                 _0x249:
                 ;    ILI9341_WriteString(140,pointY,buff,Font_11x18,bordWindow,fillWindow,3);
00162b e8ec      	LDI  R30,LOW(140)
00162c e0f0      	LDI  R31,HIGH(140)
00162d 940e 2105 	CALL SUBOPT_0x55
00162f 940e 210a 	CALL SUBOPT_0x56
001631 940e 1ff1 	CALL SUBOPT_0x2C
001633 940e 210d 	CALL SUBOPT_0x57
                 ;    //   alarm[0]
                 ;    switch (alarm[0]) {
001635 91e0 03bf 	LDS  R30,_alarm
001637 e0f0      	LDI  R31,0
                 ;        case 0: temp=GREEN; break;
001638 9730      	SBIW R30,0
001639 f039      	BREQ _0x2D5
                 ;        case 1: temp=RED;   break;
00163a 30e1      	CPI  R30,LOW(0x1)
00163b e0a0      	LDI  R26,HIGH(0x1)
00163c 07fa      	CPC  R31,R26
00163d f419      	BRNE _0x24F
00163e efef      	LDI  R30,LOW(2047)
00163f e0f7      	LDI  R31,HIGH(2047)
001640 c002      	RJMP _0x2D6
                 ;        default: temp=GREEN;
                 _0x24F:
                 _0x2D5:
001641 e1ef      	LDI  R30,LOW(63519)
001642 eff8      	LDI  R31,HIGH(63519)
                 _0x2D6:
001643 83ee      	STD  Y+6,R30
001644 83ff      	STD  Y+6+1,R31
                 ;    };
                 ;    ILI9341_FillRectangle(280,pointY+2,30,45,temp);
001645 e1e8      	LDI  R30,LOW(280)
001646 e0f1      	LDI  R31,HIGH(280)
001647 940e 2105 	CALL SUBOPT_0x55
001649 940e 2114 	CALL SUBOPT_0x58
                 ;    pointY += 55;
00164b e3e7      	LDI  R30,LOW(55)
00164c 0e9e      	ADD  R9,R30
                 ;    if(checkTouch()) checkDisplNum();//*****************************    *************************** ...
00164d ddb3      	RCALL _checkTouch
00164e 30e0      	CPI  R30,0
00164f f009      	BREQ _0x250
001650 def3      	RCALL _checkDisplNum
                 ;//---  RH ------
                 ;    sprintf(buff,"[%3u%%]",set[1][0]); //  RH
                 _0x250:
001651 940e 1fe0 	CALL SUBOPT_0x29
                +
001653 e3e9     +LDI R30 , LOW ( 2 * _0x0 + ( 305 ) )
001654 e1f8     +LDI R31 , HIGH ( 2 * _0x0 + ( 305 ) )
                 	__POINTW1FN _0x0,305
001655 93fa      	ST   -Y,R31
001656 93ea      	ST   -Y,R30
                +
001657 e0a8     +LDI R26 , LOW ( _set + ( 8 ) )
001658 e0b0     +LDI R27 , HIGH ( _set + ( 8 ) )
                 	__POINTW2MN _set,8
001659 940e 2395 	CALL __EEPROMRDW
00165b 940e 2123 	CALL SUBOPT_0x59
                 ;    ILI9341_WriteString(5,pointY+5,buff,Font_11x18,bordWindow,fillWindow,1);
00165d 940e 2074 	CALL SUBOPT_0x40
00165f 940e 20f8 	CALL SUBOPT_0x53
001661 940e 1ff1 	CALL SUBOPT_0x2C
001663 940e 20fe 	CALL SUBOPT_0x54
                 ;    ILI9341_WriteString(5,pointY+25,"",Font_11x18,bordWindow,fillWindow,1);
001665 940e 2074 	CALL SUBOPT_0x40
001667 2de9      	MOV  R30,R9
001668 e0f0      	LDI  R31,0
001669 9679      	ADIW R30,25
00166a 93fa      	ST   -Y,R31
00166b 93ea      	ST   -Y,R30
                +
00166c eae3     +LDI R30 , LOW ( _0x247 + ( 12 ) )
00166d e0f2     +LDI R31 , HIGH ( _0x247 + ( 12 ) )
                 	__POINTW1MN _0x247,12
00166e 940e 2009 	CALL SUBOPT_0x2F
001670 940e 20fe 	CALL SUBOPT_0x54
                 ;    if (pvRH>100) sprintf(buff,"***%%",pvRH); else sprintf(buff,"%3u%% ",pvRH);
001672 940e 1f90 	CALL SUBOPT_0x1E
001674 36a5      	CPI  R26,LOW(0x65)
001675 e0e0      	LDI  R30,HIGH(0x65)
001676 07be      	CPC  R27,R30
001677 f02c      	BRLT _0x251
001678 940e 1fe0 	CALL SUBOPT_0x29
                +
00167a e4eb     +LDI R30 , LOW ( 2 * _0x0 + ( 323 ) )
00167b e1f8     +LDI R31 , HIGH ( 2 * _0x0 + ( 323 ) )
                 	__POINTW1FN _0x0,323
00167c c004      	RJMP _0x2D7
                 _0x251:
00167d 940e 1fe0 	CALL SUBOPT_0x29
                +
00167f e5e1     +LDI R30 , LOW ( 2 * _0x0 + ( 329 ) )
001680 e1f8     +LDI R31 , HIGH ( 2 * _0x0 + ( 329 ) )
                 	__POINTW1FN _0x0,329
                 _0x2D7:
001681 93fa      	ST   -Y,R31
001682 93ea      	ST   -Y,R30
001683 91e0 03cd 	LDS  R30,_pvRH
001685 91f0 03ce 	LDS  R31,_pvRH+1
001687 940e 2123 	CALL SUBOPT_0x59
                 ;    ILI9341_WriteString(142,pointY,buff,Font_11x18,bordWindow,fillWindow,3);
001689 e8ee      	LDI  R30,LOW(142)
00168a e0f0      	LDI  R31,HIGH(142)
00168b 940e 2105 	CALL SUBOPT_0x55
00168d 940e 210a 	CALL SUBOPT_0x56
00168f 940e 1ff1 	CALL SUBOPT_0x2C
001691 940e 210d 	CALL SUBOPT_0x57
                 ;    //   alarm[1]
                 ;    switch (alarm[1]) {
                +
001693 91e0 03c0+LDS R30 , _alarm + ( 1 )
                 	__GETB1MN _alarm,1
001695 e0f0      	LDI  R31,0
                 ;        case 0: temp=GREEN; break;
001696 9730      	SBIW R30,0
001697 f039      	BREQ _0x2D8
                 ;        case 1: temp=RED;   break;
001698 30e1      	CPI  R30,LOW(0x1)
001699 e0a0      	LDI  R26,HIGH(0x1)
00169a 07fa      	CPC  R31,R26
00169b f419      	BRNE _0x258
00169c efef      	LDI  R30,LOW(2047)
00169d e0f7      	LDI  R31,HIGH(2047)
00169e c002      	RJMP _0x2D9
                 ;        default: temp=GREEN;
                 _0x258:
                 _0x2D8:
00169f e1ef      	LDI  R30,LOW(63519)
0016a0 eff8      	LDI  R31,HIGH(63519)
                 _0x2D9:
0016a1 83ee      	STD  Y+6,R30
0016a2 83ff      	STD  Y+6+1,R31
                 ;    };
                 ;    ILI9341_FillRectangle(280,pointY+2,30,45,temp);
0016a3 e1e8      	LDI  R30,LOW(280)
0016a4 e0f1      	LDI  R31,HIGH(280)
0016a5 940e 2105 	CALL SUBOPT_0x55
0016a7 940e 2114 	CALL SUBOPT_0x58
                 ;    if(checkTouch()) checkDisplNum();//*****************************    *************************** ...
0016a9 dd57      	RCALL _checkTouch
0016aa 30e0      	CPI  R30,0
0016ab f009      	BREQ _0x259
0016ac de97      	RCALL _checkDisplNum
                 ;//---  CO2 ----
                 ;//CO2module = 1;
                 ;//pHsensor = 1;
                 ;//pvCO2 = 2500;
                 ;//pvPH = 75;
                 ;    pointY += 55;
                 _0x259:
0016ad e3e7      	LDI  R30,LOW(55)
0016ae 0e9e      	ADD  R9,R30
                 ;    if(CO2module){
0016af fe26      	SBRS R2,6
0016b0 c039      	RJMP _0x25A
                 ;    if(error&0x08) ILI9341_WriteString(10,pointY,"CO2  !",Font_11x18,YELLOW,RED,1);
0016b1 fec3      	SBRS R12,3
0016b2 c00d      	RJMP _0x25B
0016b3 940e 212c 	CALL SUBOPT_0x5A
0016b5 93fa      	ST   -Y,R31
0016b6 93ea      	ST   -Y,R30
                +
0016b7 eaed     +LDI R30 , LOW ( _0x247 + ( 22 ) )
0016b8 e0f2     +LDI R31 , HIGH ( _0x247 + ( 22 ) )
                 	__POINTW1MN _0x247,22
0016b9 940e 2009 	CALL SUBOPT_0x2F
0016bb 940e 20e1 	CALL SUBOPT_0x4F
0016bd 93fa      	ST   -Y,R31
0016be 93ea      	ST   -Y,R30
0016bf c026      	RJMP _0x2DA
                 ;    else {
                 _0x25B:
                 ;        sprintf(buff,"CO2   %4u",pvCO2);
0016c0 940e 1fe0 	CALL SUBOPT_0x29
                +
0016c2 e6ec     +LDI R30 , LOW ( 2 * _0x0 + ( 356 ) )
0016c3 e1f8     +LDI R31 , HIGH ( 2 * _0x0 + ( 356 ) )
                 	__POINTW1FN _0x0,356
0016c4 93fa      	ST   -Y,R31
0016c5 93ea      	ST   -Y,R30
0016c6 91e0 03d1 	LDS  R30,_pvCO2
0016c8 91f0 03d2 	LDS  R31,_pvCO2+1
0016ca 940e 2123 	CALL SUBOPT_0x59
                 ;        ILI9341_WriteString(20,pointY,buff,Font_11x18,bordWindow,fillWindow,2);
0016cc e1e4      	LDI  R30,LOW(20)
0016cd e0f0      	LDI  R31,HIGH(20)
0016ce 940e 2105 	CALL SUBOPT_0x55
0016d0 940e 210a 	CALL SUBOPT_0x56
0016d2 940e 1ff1 	CALL SUBOPT_0x2C
0016d4 940e 212f 	CALL SUBOPT_0x5B
0016d6 e0a2      	LDI  R26,LOW(2)
0016d7 940e 0ebe 	CALL _ILI9341_WriteString
                 ;        ILI9341_WriteString(250,pointY+10,"ppm",Font_11x18,bordWindow,fillWindow,1);
0016d9 efea      	LDI  R30,LOW(250)
0016da e0f0      	LDI  R31,HIGH(250)
0016db 940e 2105 	CALL SUBOPT_0x55
0016dd 963a      	ADIW R30,10
0016de 93fa      	ST   -Y,R31
0016df 93ea      	ST   -Y,R30
                +
0016e0 ece1     +LDI R30 , LOW ( _0x247 + ( 42 ) )
0016e1 e0f2     +LDI R31 , HIGH ( _0x247 + ( 42 ) )
                 	__POINTW1MN _0x247,42
0016e2 940e 2009 	CALL SUBOPT_0x2F
0016e4 940e 212f 	CALL SUBOPT_0x5B
                 _0x2DA:
0016e6 e0a1      	LDI  R26,LOW(1)
0016e7 940e 0ebe 	CALL _ILI9341_WriteString
                 ;    }
                 ;    }
                 ;    else ILI9341_WriteString(10,pointY,"CO2  .",Font_11x18,bordWindow,fillWindow,1);
0016e9 c00a      	RJMP _0x25D
                 _0x25A:
0016ea 940e 212c 	CALL SUBOPT_0x5A
0016ec 93fa      	ST   -Y,R31
0016ed 93ea      	ST   -Y,R30
                +
0016ee ece5     +LDI R30 , LOW ( _0x247 + ( 46 ) )
0016ef e0f2     +LDI R31 , HIGH ( _0x247 + ( 46 ) )
                 	__POINTW1MN _0x247,46
0016f0 940e 2009 	CALL SUBOPT_0x2F
0016f2 940e 20fe 	CALL SUBOPT_0x54
                 ;//---  H-4502 -----
                 ;    pointY += 35;
                 _0x25D:
0016f4 e2e3      	LDI  R30,LOW(35)
0016f5 0e9e      	ADD  R9,R30
                 ;    if(pHsensor){
0016f6 fe24      	SBRS R2,4
0016f7 c03c      	RJMP _0x25E
                 ;        if(error&0x08) ILI9341_WriteString(10,pointY,"  !",Font_11x18,YELLOW,RED,1);
0016f8 fec3      	SBRS R12,3
0016f9 c00d      	RJMP _0x25F
0016fa 940e 212c 	CALL SUBOPT_0x5A
0016fc 93fa      	ST   -Y,R31
0016fd 93ea      	ST   -Y,R30
                +
0016fe edeb     +LDI R30 , LOW ( _0x247 + ( 68 ) )
0016ff e0f2     +LDI R31 , HIGH ( _0x247 + ( 68 ) )
                 	__POINTW1MN _0x247,68
001700 940e 2009 	CALL SUBOPT_0x2F
001702 940e 20e1 	CALL SUBOPT_0x4F
001704 93fa      	ST   -Y,R31
001705 93ea      	ST   -Y,R30
001706 c029      	RJMP _0x2DB
                 ;        else {
                 _0x25F:
                 ;          temp = pvPH; fraction(temp);
001707 91e0 03d3 	LDS  R30,_pvPH
001709 91f0 03d4 	LDS  R31,_pvPH+1
00170b 940e 20e8 	CALL SUBOPT_0x50
                 ;          sprintf(buff,"   %2u.%u",intval,frcval);
                +
00170d eae3     +LDI R30 , LOW ( 2 * _0x0 + ( 411 ) )
00170e e1f8     +LDI R31 , HIGH ( 2 * _0x0 + ( 411 ) )
                 	__POINTW1FN _0x0,411
00170f 940e 20ef 	CALL SUBOPT_0x51
001711 2ded      	MOV  R30,R13
001712 940e 20d2 	CALL SUBOPT_0x4D
001714 940e 20f3 	CALL SUBOPT_0x52
                 ;          ILI9341_WriteString(20,pointY,buff,Font_11x18,bordWindow,fillWindow,2);
001716 e1e4      	LDI  R30,LOW(20)
001717 e0f0      	LDI  R31,HIGH(20)
001718 940e 2105 	CALL SUBOPT_0x55
00171a 940e 210a 	CALL SUBOPT_0x56
00171c 940e 1ff1 	CALL SUBOPT_0x2C
00171e 940e 212f 	CALL SUBOPT_0x5B
001720 e0a2      	LDI  R26,LOW(2)
001721 940e 0ebe 	CALL _ILI9341_WriteString
                 ;          ILI9341_WriteString(230,pointY+10,"",Font_11x18,bordWindow,fillWindow,1);
001723 eee6      	LDI  R30,LOW(230)
001724 e0f0      	LDI  R31,HIGH(230)
001725 940e 2105 	CALL SUBOPT_0x55
001727 963a      	ADIW R30,10
001728 93fa      	ST   -Y,R31
001729 93ea      	ST   -Y,R30
                +
00172a eeee     +LDI R30 , LOW ( _0x247 + ( 87 ) )
00172b e0f2     +LDI R31 , HIGH ( _0x247 + ( 87 ) )
                 	__POINTW1MN _0x247,87
00172c 940e 2009 	CALL SUBOPT_0x2F
00172e 940e 212f 	CALL SUBOPT_0x5B
                 _0x2DB:
001730 e0a1      	LDI  R26,LOW(1)
001731 940e 0ebe 	CALL _ILI9341_WriteString
                 ;        }
                 ;    }
                 ;    else ILI9341_WriteString(10,pointY,"   .",Font_11x18,bordWindow,fillWindow,1);
001733 c00a      	RJMP _0x261
                 _0x25E:
001734 940e 212c 	CALL SUBOPT_0x5A
001736 93fa      	ST   -Y,R31
001737 93ea      	ST   -Y,R30
                +
001738 efe6     +LDI R30 , LOW ( _0x247 + ( 95 ) )
001739 e0f2     +LDI R31 , HIGH ( _0x247 + ( 95 ) )
                 	__POINTW1MN _0x247,95
00173a 940e 2009 	CALL SUBOPT_0x2F
00173c 940e 20fe 	CALL SUBOPT_0x54
                 ;    if(checkTouch()) checkDisplNum();//*****************************    *************************** ...
                 _0x261:
00173e dcc2      	RCALL _checkTouch
00173f 30e0      	CPI  R30,0
001740 f009      	BREQ _0x262
001741 de02      	RCALL _checkDisplNum
                 ;}
                 _0x262:
001742 c282      	RJMP _0x20C0002
                 ; .FEND
                 
                 	.DSEG
                 _0x247:
000297           	.BYTE 0x75
                 ;
                 ;//--------------------------------  . -------------------------------------------
                 ;void displ_1(void){
                 
                 	.CSEG
                 _displ_1:
                 ; .FSTART _displ_1
                 ; unsigned char i, num = 1;
                 ; unsigned int fillWindow = YELLOW2, bordWindow = BLACK, temp;
                 ;    pointY = 7;
001743 9722      	SBIW R28,2
001744 940e 23b3 	CALL __SAVELOCR6
                 ;	i -> R17
                 ;	num -> R16
                 ;	fillWindow -> R18,R19
                 ;	bordWindow -> R20,R21
                 ;	temp -> Y+6
001746 e001      	LDI  R16,1
                +
001747 ef20     +LDI R18 , LOW ( 752 )
001748 e032     +LDI R19 , HIGH ( 752 )
                 	__GETWRN 18,19,752
                +
001749 ef4f     +LDI R20 , LOW ( - 1 )
00174a ef5f     +LDI R21 , HIGH ( - 1 )
                 	__GETWRN 20,21,-1
00174b e0e7      	LDI  R30,LOW(7)
00174c 2e9e      	MOV  R9,R30
                 ;    if(newSetButt){
00174d 2077      	TST  R7
00174e f169      	BREQ _0x263
                 ;        newSetButt = 0;
00174f 2477      	CLR  R7
                 ;        ILI9341_FillScreen(0, max_X, 0, max_Y, fillWindow);
001750 940e 1f66 	CALL SUBOPT_0x16
001752 940e 209a 	CALL SUBOPT_0x45
001754 940e 209e 	CALL SUBOPT_0x46
                 ;        initializeButtons(4,1,25);// 4 ;  ;  25
                 ;        //----------  ------- a ---  -  - ---------
                 ;        drawButton(WHITE, WHITE, BLACK, 0, "");
001756 940e 1f66 	CALL SUBOPT_0x16
001758 940e 1f66 	CALL SUBOPT_0x16
00175a efef      	LDI  R30,LOW(65535)
00175b efff      	LDI  R31,HIGH(65535)
00175c 940e 2068 	CALL SUBOPT_0x3E
00175e 940e 20b5 	CALL SUBOPT_0x48
                 ;        drawButton(fillWindow, fillWindow, bordWindow, 1, "");
001760 940e 20ae 	CALL SUBOPT_0x47
001762 940e 20be 	CALL SUBOPT_0x4A
                 ;        drawButton(WHITE, WHITE, BLACK, 2, "");
001764 940e 1f66 	CALL SUBOPT_0x16
001766 940e 20b9 	CALL SUBOPT_0x49
001768 940e 20c5 	CALL SUBOPT_0x4B
                 ;        drawButton(WHITE, WHITE, BLACK, 3, "");
00176a 940e 1f66 	CALL SUBOPT_0x16
00176c 940e 20b9 	CALL SUBOPT_0x49
00176e 940e 20cc 	CALL SUBOPT_0x4C
                 ;        ILI9341_WriteString(100,pointY," ",Font_11x18,bordWindow,fillWindow,1);
001770 e6e4      	LDI  R30,LOW(100)
001771 e0f0      	LDI  R31,HIGH(100)
001772 940e 2105 	CALL SUBOPT_0x55
001774 93fa      	ST   -Y,R31
001775 93ea      	ST   -Y,R30
                +
001776 e0ec     +LDI R30 , LOW ( _0x264 + ( 0 ) )
001777 e0f3     +LDI R31 , HIGH ( _0x264 + ( 0 ) )
                 	__POINTW1MN _0x264,0
001778 940e 2009 	CALL SUBOPT_0x2F
00177a 940e 20fe 	CALL SUBOPT_0x54
                 ;    }
                 ;//---  t  ---
                 ;    pointY += 20;
                 _0x263:
00177c e1e4      	LDI  R30,LOW(20)
00177d 0e9e      	ADD  R9,R30
                 ;    for (i=0;i<ds18b20;i++){
00177e e010      	LDI  R17,LOW(0)
                 _0x266:
00177f 1516      	CP   R17,R6
001780 f008      	BRLO PC+2
001781 c04a      	RJMP _0x267
                 ;        sprintf(buff," %u",i+1);
001782 940e 1fe0 	CALL SUBOPT_0x29
                +
001784 ede9     +LDI R30 , LOW ( 2 * _0x0 + ( 465 ) )
001785 e1f8     +LDI R31 , HIGH ( 2 * _0x0 + ( 465 ) )
                 	__POINTW1FN _0x0,465
001786 93fa      	ST   -Y,R31
001787 93ea      	ST   -Y,R30
001788 2fe1      	MOV  R30,R17
001789 e0f0      	LDI  R31,0
00178a 9631      	ADIW R30,1
00178b 940e 2123 	CALL SUBOPT_0x59
                 ;        ILI9341_WriteString(5,pointY+12,buff,Font_11x18,bordWindow,fillWindow,1);
00178d 940e 2074 	CALL SUBOPT_0x40
00178f 2de9      	MOV  R30,R9
001790 e0f0      	LDI  R31,0
001791 963c      	ADIW R30,12
001792 940e 210a 	CALL SUBOPT_0x56
001794 940e 1ff1 	CALL SUBOPT_0x2C
001796 940e 20fe 	CALL SUBOPT_0x54
                 ;        temp = t.point[i];
001798 2fe1      	MOV  R30,R17
001799 eea1      	LDI  R26,LOW(_t)
00179a e0b3      	LDI  R27,HIGH(_t)
00179b e0f0      	LDI  R31,0
00179c 0fee      	LSL  R30
00179d 1fff      	ROL  R31
00179e 0fae      	ADD  R26,R30
00179f 1fbf      	ADC  R27,R31
0017a0 940e 2134 	CALL SUBOPT_0x5C
                 ;        if(temp>1250) sprintf(buff,"**.*");
0017a2 3ea3      	CPI  R26,LOW(0x4E3)
0017a3 e0e4      	LDI  R30,HIGH(0x4E3)
0017a4 07be      	CPC  R27,R30
0017a5 f038      	BRLO _0x268
0017a6 940e 1fe0 	CALL SUBOPT_0x29
                +
0017a8 e2ed     +LDI R30 , LOW ( 2 * _0x0 + ( 293 ) )
0017a9 e1f8     +LDI R31 , HIGH ( 2 * _0x0 + ( 293 ) )
                 	__POINTW1FN _0x0,293
0017aa 940e 1fe5 	CALL SUBOPT_0x2A
                 ;        else {
0017ac c00e      	RJMP _0x269
                 _0x268:
                 ;            fraction(temp);     //   
0017ad 81ae      	LDD  R26,Y+6
0017ae 81bf      	LDD  R27,Y+6+1
0017af dd75      	RCALL _fraction
                 ;            sprintf(buff,"%2u.%u",intval,frcval); // T     
0017b0 940e 1fe0 	CALL SUBOPT_0x29
                +
0017b2 e3e2     +LDI R30 , LOW ( 2 * _0x0 + ( 298 ) )
0017b3 e1f8     +LDI R31 , HIGH ( 2 * _0x0 + ( 298 ) )
                 	__POINTW1FN _0x0,298
0017b4 940e 20ef 	CALL SUBOPT_0x51
0017b6 2ded      	MOV  R30,R13
0017b7 940e 20d2 	CALL SUBOPT_0x4D
0017b9 940e 20f3 	CALL SUBOPT_0x52
                 ;        }
                 _0x269:
                 ;        ILI9341_WriteString(120,pointY,buff,Font_11x18,bordWindow,fillWindow,2);
0017bb e7e8      	LDI  R30,LOW(120)
0017bc e0f0      	LDI  R31,HIGH(120)
0017bd 940e 2105 	CALL SUBOPT_0x55
0017bf 940e 210a 	CALL SUBOPT_0x56
0017c1 940e 1ff1 	CALL SUBOPT_0x2C
0017c3 940e 212f 	CALL SUBOPT_0x5B
0017c5 e0a2      	LDI  R26,LOW(2)
0017c6 940e 0ebe 	CALL _ILI9341_WriteString
                 ;        pointY += 35;
0017c8 e2e3      	LDI  R30,LOW(35)
0017c9 0e9e      	ADD  R9,R30
                 ;    };
0017ca 5f1f      	SUBI R17,-1
0017cb cfb3      	RJMP _0x266
                 _0x267:
                 ;    if(checkTouch()) checkDisplNum();//*****************************    *************************** ...
0017cc dc34      	RCALL _checkTouch
0017cd 30e0      	CPI  R30,0
0017ce f009      	BREQ _0x26A
0017cf dd74      	RCALL _checkDisplNum
                 ;}
                 _0x26A:
0017d0 c1f4      	RJMP _0x20C0002
                 ; .FEND
                 
                 	.DSEG
                 _0x264:
00030c           	.BYTE 0xC
                 ;
                 ;//------------------------------   --------------------------------------------
                 ;void displ_2(void){
                 
                 	.CSEG
                 _displ_2:
                 ; .FSTART _displ_2
                 ; signed char i,x;
                 ; unsigned int fillWindow = GRAY1, bordWindow = BLACK, color_box;
                 ;    pointY=7;
0017d1 9722      	SBIW R28,2
0017d2 940e 23b3 	CALL __SAVELOCR6
                 ;	i -> R17
                 ;	x -> R16
                 ;	fillWindow -> R18,R19
                 ;	bordWindow -> R20,R21
                 ;	color_box -> Y+6
                +
0017d4 ee2f     +LDI R18 , LOW ( 31727 )
0017d5 e73b     +LDI R19 , HIGH ( 31727 )
                 	__GETWRN 18,19,31727
                +
0017d6 ef4f     +LDI R20 , LOW ( - 1 )
0017d7 ef5f     +LDI R21 , HIGH ( - 1 )
                 	__GETWRN 20,21,-1
0017d8 e0e7      	LDI  R30,LOW(7)
0017d9 2e9e      	MOV  R9,R30
                 ;    if(newSetButt){
0017da 2077      	TST  R7
0017db f409      	BRNE PC+2
0017dc c047      	RJMP _0x26B
                 ;        newSetButt = 0;
0017dd 2477      	CLR  R7
                 ;        ILI9341_FillScreen(0, max_X, 0, max_Y, fillWindow);
0017de 940e 1f66 	CALL SUBOPT_0x16
0017e0 940e 209a 	CALL SUBOPT_0x45
0017e2 940e 209e 	CALL SUBOPT_0x46
                 ;        initializeButtons(4,1,25);// 4 ;  ;  25
                 ;        //----------  ------- a ---  -  - ---------
                 ;        drawButton(WHITE, WHITE, BLACK, 0, "");
0017e4 940e 1f66 	CALL SUBOPT_0x16
0017e6 940e 1f66 	CALL SUBOPT_0x16
0017e8 efef      	LDI  R30,LOW(65535)
0017e9 efff      	LDI  R31,HIGH(65535)
0017ea 940e 2068 	CALL SUBOPT_0x3E
0017ec 940e 20b5 	CALL SUBOPT_0x48
                 ;        drawButton(WHITE, WHITE, BLACK, 1, "");
0017ee 940e 1f66 	CALL SUBOPT_0x16
0017f0 940e 1f66 	CALL SUBOPT_0x16
0017f2 940e 20b9 	CALL SUBOPT_0x49
0017f4 e0e1      	LDI  R30,LOW(1)
0017f5 93ea      	ST   -Y,R30
                +
0017f6 eda8     +LDI R26 , LOW ( 2 * _0x0 + ( 208 ) )
0017f7 e1b7     +LDI R27 , HIGH ( 2 * _0x0 + ( 208 ) )
                 	__POINTW2FN _0x0,208
0017f8 dadf      	RCALL _drawButton
                 ;        drawButton(fillWindow, fillWindow, bordWindow, 2, "");
0017f9 940e 20ae 	CALL SUBOPT_0x47
0017fb 940e 20c5 	CALL SUBOPT_0x4B
                 ;        drawButton(WHITE, WHITE, BLACK, 3, "");
0017fd 940e 1f66 	CALL SUBOPT_0x16
0017ff 940e 20b9 	CALL SUBOPT_0x49
001801 940e 20cc 	CALL SUBOPT_0x4C
                 ;        //--
                 ;        initializePlus(pointY+25, 8, 16);
001803 2de9      	MOV  R30,R9
001804 5ee7      	SUBI R30,-LOW(25)
001805 93ea      	ST   -Y,R30
001806 e0e8      	LDI  R30,LOW(8)
001807 93ea      	ST   -Y,R30
001808 e1a0      	LDI  R26,LOW(16)
001809 da05      	RCALL _initializePlus
                 ;        for (i=0;i<plusCount;i++) drawPlus(i, fillWindow);
00180a e010      	LDI  R17,LOW(0)
                 _0x26D:
00180b 91e0 0401 	LDS  R30,_plusCount
00180d 940e 213b 	CALL SUBOPT_0x5D
00180f e0f0      	LDI  R31,0
001810 17ae      	CP   R26,R30
001811 07bf      	CPC  R27,R31
001812 f42c      	BRGE _0x26E
001813 931a      	ST   -Y,R17
001814 01d9      	MOVW R26,R18
001815 db0e      	RCALL _drawPlus
001816 5f1f      	SUBI R17,-1
001817 cff3      	RJMP _0x26D
                 _0x26E:
001818 e5ea      	LDI  R30,LOW(90)
001819 e0f0      	LDI  R31,HIGH(90)
00181a 940e 2105 	CALL SUBOPT_0x55
00181c 93fa      	ST   -Y,R31
00181d 93ea      	ST   -Y,R30
                +
00181e e1e8     +LDI R30 , LOW ( _0x26F + ( 0 ) )
00181f e0f3     +LDI R31 , HIGH ( _0x26F + ( 0 ) )
                 	__POINTW1MN _0x26F,0
001820 940e 2009 	CALL SUBOPT_0x2F
001822 940e 20fe 	CALL SUBOPT_0x54
                 ;    }
                 ;//*****************************     ***************************************
                 ;    if(checkTouch()){
                 _0x26B:
001824 dbdc      	RCALL _checkTouch
001825 30e0      	CPI  R30,0
001826 f409      	BRNE PC+2
001827 c047      	RJMP _0x270
                 ;//      sprintf(buff,"X%4u; Y%4u",point_X,point_Y);
                 ;//      ILI9341_WriteString(5,TFTBUTTON-60,buff,Font_11x18,WHITE,BLACK,1);
                 ;      if(point_X>220&&point_Y<100){
001828 940e 202a 	CALL SUBOPT_0x35
00182a 3dad      	CPI  R26,LOW(0xDD)
00182b e0e0      	LDI  R30,HIGH(0xDD)
00182c 07be      	CPC  R27,R30
00182d f030      	BRLO _0x272
00182e 940e 2034 	CALL SUBOPT_0x37
001830 36a4      	CPI  R26,LOW(0x64)
001831 e0e0      	LDI  R30,HIGH(0x64)
001832 07be      	CPC  R27,R30
001833 f008      	BRLO _0x273
                 _0x272:
001834 c039      	RJMP _0x271
                 _0x273:
                 ;        for (i=0; i<8; i++){if(containsPlus(i)) break;}//    
001835 e010      	LDI  R17,LOW(0)
                 _0x275:
001836 3018      	CPI  R17,8
001837 f434      	BRGE _0x276
001838 2fa1      	MOV  R26,R17
001839 db96      	RCALL _containsPlus
00183a 30e0      	CPI  R30,0
00183b f411      	BRNE _0x276
00183c 5f1f      	SUBI R17,-1
00183d cff8      	RJMP _0x275
                 _0x276:
                 ;        if(i<8){
00183e 3018      	CPI  R17,8
00183f f56c      	BRGE _0x278
                 ;            BeepT = 20;
001840 e1e4      	LDI  R30,LOW(20)
001841 2e5e      	MOV  R5,R30
                 ;            if(i%2) x=-1; else x=1;   //  "+"   "-"
001842 940e 213b 	CALL SUBOPT_0x5D
001844 e0e2      	LDI  R30,LOW(2)
001845 e0f0      	LDI  R31,HIGH(2)
001846 940e 233e 	CALL __MODW21
001848 9730      	SBIW R30,0
001849 f011      	BREQ _0x279
00184a ef0f      	LDI  R16,LOW(255)
00184b c001      	RJMP _0x27A
                 _0x279:
00184c e001      	LDI  R16,LOW(1)
                 ;            i /= 2;
                 _0x27A:
00184d 940e 213b 	CALL SUBOPT_0x5D
00184f e0e2      	LDI  R30,LOW(2)
001850 e0f0      	LDI  R31,HIGH(2)
001851 940e 230f 	CALL __DIVW21
001853 2f1e      	MOV  R17,R30
                 ;            relay[i]+=x; if(relay[i]>2) relay[i]=0; else if(relay[i]<0) relay[i]=2;}
001854 2fa1      	MOV  R26,R17
001855 e0b0      	LDI  R27,0
001856 50a5      	SUBI R26,LOW(-_relay)
001857 4fbc      	SBCI R27,HIGH(-_relay)
001858 91ec      	LD   R30,X
001859 0fe0      	ADD  R30,R16
00185a 93ec      	ST   X,R30
00185b 940e 2140 	CALL SUBOPT_0x5E
00185d 81a0      	LD   R26,Z
00185e 30a3      	CPI  R26,LOW(0x3)
00185f f024      	BRLT _0x27B
001860 940e 2140 	CALL SUBOPT_0x5E
001862 e0a0      	LDI  R26,LOW(0)
001863 c008      	RJMP _0x2DC
                 _0x27B:
001864 940e 2140 	CALL SUBOPT_0x5E
001866 81a0      	LD   R26,Z
001867 30a0      	CPI  R26,0
001868 f424      	BRGE _0x27D
001869 940e 2140 	CALL SUBOPT_0x5E
00186b e0a2      	LDI  R26,LOW(2)
                 _0x2DC:
00186c 83a0      	STD  Z+0,R26
                 _0x27D:
                 ;      }
                 _0x278:
                 ;      else checkDisplNum();
00186d c001      	RJMP _0x27E
                 _0x271:
00186e dcd5      	RCALL _checkDisplNum
                 ;    }
                 _0x27E:
                 ;//----   ----
                 ;    pointY += 20;
                 _0x270:
00186f e1e4      	LDI  R30,LOW(20)
001870 0e9e      	ADD  R9,R30
                 ;    for (i=0;i<4;i++){
001871 e010      	LDI  R17,LOW(0)
                 _0x280:
001872 3014      	CPI  R17,4
001873 f00c      	BRLT PC+2
001874 c05b      	RJMP _0x281
                 ;    sprintf(buff,"  N%u: ",i+1);
001875 940e 1fe0 	CALL SUBOPT_0x29
                +
001877 efe3     +LDI R30 , LOW ( 2 * _0x0 + ( 491 ) )
001878 e1f8     +LDI R31 , HIGH ( 2 * _0x0 + ( 491 ) )
                 	__POINTW1FN _0x0,491
001879 940e 2145 	CALL SUBOPT_0x5F
                 ;    switch (relay[i]){
00187b 940e 2140 	CALL SUBOPT_0x5E
00187d 81e0      	LD   R30,Z
00187e e0f0      	LDI  R31,0
00187f fde7      	SBRC R30,7
001880 efff      	SER  R31
                 ;      case 2: strcat(buff,""); break;
001881 30e2      	CPI  R30,LOW(0x2)
001882 e0a0      	LDI  R26,HIGH(0x2)
001883 07fa      	CPC  R31,R26
001884 f439      	BRNE _0x285
001885 940e 1fe0 	CALL SUBOPT_0x29
                +
001887 e2a8     +LDI R26 , LOW ( _0x26F + ( 16 ) )
001888 e0b3     +LDI R27 , HIGH ( _0x26F + ( 16 ) )
                 	__POINTW2MN _0x26F,16
001889 940e 1e90 	CALL _strcat
00188b c016      	RJMP _0x284
                 ;      case 1: strcat(buff,"ON "); relOut[i]=1; break;
                 _0x285:
00188c 30e1      	CPI  R30,LOW(0x1)
00188d e0a0      	LDI  R26,HIGH(0x1)
00188e 07fa      	CPC  R31,R26
00188f f441      	BRNE _0x286
001890 940e 1fe0 	CALL SUBOPT_0x29
                +
001892 e2ac     +LDI R26 , LOW ( _0x26F + ( 20 ) )
001893 e0b3     +LDI R27 , HIGH ( _0x26F + ( 20 ) )
                 	__POINTW2MN _0x26F,20
001894 940e 214d 	CALL SUBOPT_0x60
001896 e0a1      	LDI  R26,LOW(1)
001897 c009      	RJMP _0x2DD
                 ;      case 0: strcat(buff,"OFF"); relOut[i]=0; break;
                 _0x286:
001898 9730      	SBIW R30,0
001899 f441      	BRNE _0x284
00189a 940e 1fe0 	CALL SUBOPT_0x29
                +
00189c e3a0     +LDI R26 , LOW ( _0x26F + ( 24 ) )
00189d e0b3     +LDI R27 , HIGH ( _0x26F + ( 24 ) )
                 	__POINTW2MN _0x26F,24
00189e 940e 214d 	CALL SUBOPT_0x60
0018a0 e0a0      	LDI  R26,LOW(0)
                 _0x2DD:
0018a1 83a0      	STD  Z+0,R26
                 ;    };
                 _0x284:
                 ;    ILI9341_WriteString(5,pointY,buff,Font_11x18,bordWindow,fillWindow,1);
0018a2 940e 2074 	CALL SUBOPT_0x40
0018a4 2de9      	MOV  R30,R9
0018a5 e0f0      	LDI  R31,0
0018a6 940e 210a 	CALL SUBOPT_0x56
0018a8 940e 1ff1 	CALL SUBOPT_0x2C
0018aa 940e 20fe 	CALL SUBOPT_0x54
                 ;    if(relOut[i]) color_box=YELLOW; else color_box=BLACK;
0018ac 2fe1      	MOV  R30,R17
0018ad e0f0      	LDI  R31,0
0018ae 59e7      	SUBI R30,LOW(-_relOut)
0018af 4ffc      	SBCI R31,HIGH(-_relOut)
0018b0 81e0      	LD   R30,Z
0018b1 30e0      	CPI  R30,0
0018b2 f019      	BREQ _0x288
0018b3 e1ef      	LDI  R30,LOW(31)
0018b4 e0f0      	LDI  R31,HIGH(31)
0018b5 c002      	RJMP _0x2DE
                 _0x288:
0018b6 efef      	LDI  R30,LOW(65535)
0018b7 efff      	LDI  R31,HIGH(65535)
                 _0x2DE:
0018b8 83ee      	STD  Y+6,R30
0018b9 83ff      	STD  Y+6+1,R31
                 ;    ILI9341_FillRectangle(160,pointY,40,18,color_box);
0018ba eae0      	LDI  R30,LOW(160)
0018bb e0f0      	LDI  R31,HIGH(160)
0018bc 940e 2105 	CALL SUBOPT_0x55
0018be 93fa      	ST   -Y,R31
0018bf 93ea      	ST   -Y,R30
0018c0 e2e8      	LDI  R30,LOW(40)
0018c1 e0f0      	LDI  R31,HIGH(40)
0018c2 93fa      	ST   -Y,R31
0018c3 93ea      	ST   -Y,R30
0018c4 e1e2      	LDI  R30,LOW(18)
0018c5 e0f0      	LDI  R31,HIGH(18)
0018c6 93fa      	ST   -Y,R31
0018c7 93ea      	ST   -Y,R30
0018c8 85ae      	LDD  R26,Y+14
0018c9 85bf      	LDD  R27,Y+14+1
0018ca 940e 0d9c 	CALL _ILI9341_FillRectangle
                 ;    pointY = pointY+22;
0018cc e1e6      	LDI  R30,LOW(22)
0018cd 0e9e      	ADD  R9,R30
                 ;    }
0018ce 5f1f      	SUBI R17,-1
0018cf cfa2      	RJMP _0x280
                 _0x281:
                 ;
                 ;//*****************************    0-10v ***************************************
                 ;    if(checkTouch()){
0018d0 db30      	RCALL _checkTouch
0018d1 30e0      	CPI  R30,0
0018d2 f409      	BRNE PC+2
0018d3 c0ae      	RJMP _0x28A
                 ;      sprintf(buff,"X%4u; Y%4u",point_X,point_Y);
0018d4 940e 1fe0 	CALL SUBOPT_0x29
                +
0018d6 e0eb     +LDI R30 , LOW ( 2 * _0x0 + ( 515 ) )
0018d7 e1f9     +LDI R31 , HIGH ( 2 * _0x0 + ( 515 ) )
                 	__POINTW1FN _0x0,515
0018d8 93fa      	ST   -Y,R31
0018d9 93ea      	ST   -Y,R30
0018da 91e0 0402 	LDS  R30,_point_X
0018dc 91f0 0403 	LDS  R31,_point_X+1
0018de 2766      	CLR  R22
0018df 2777      	CLR  R23
0018e0 940e 2389 	CALL __PUTPARD1
0018e2 91e0 0404 	LDS  R30,_point_Y
0018e4 91f0 0405 	LDS  R31,_point_Y+1
0018e6 2766      	CLR  R22
0018e7 2777      	CLR  R23
0018e8 940e 2389 	CALL __PUTPARD1
0018ea 940e 20f3 	CALL SUBOPT_0x52
                 ;      ILI9341_WriteString(5,TFTBUTTON-60,buff,Font_11x18,WHITE,BLACK,1);
0018ec 940e 2074 	CALL SUBOPT_0x40
0018ee e8ec      	LDI  R30,LOW(140)
0018ef e0f0      	LDI  R31,HIGH(140)
0018f0 940e 210a 	CALL SUBOPT_0x56
0018f2 940e 1ff1 	CALL SUBOPT_0x2C
0018f4 940e 1f66 	CALL SUBOPT_0x16
0018f6 940e 2154 	CALL SUBOPT_0x61
                 ;      if(point_X>220&&point_Y>100&&point_Y<200){
0018f8 940e 202a 	CALL SUBOPT_0x35
0018fa 3dad      	CPI  R26,LOW(0xDD)
0018fb e0e0      	LDI  R30,HIGH(0xDD)
0018fc 07be      	CPC  R27,R30
0018fd f060      	BRLO _0x28C
0018fe 940e 2034 	CALL SUBOPT_0x37
001900 36a5      	CPI  R26,LOW(0x65)
001901 e0e0      	LDI  R30,HIGH(0x65)
001902 07be      	CPC  R27,R30
001903 f030      	BRLO _0x28C
001904 940e 2034 	CALL SUBOPT_0x37
001906 3ca8      	CPI  R26,LOW(0xC8)
001907 e0e0      	LDI  R30,HIGH(0xC8)
001908 07be      	CPC  R27,R30
001909 f008      	BRLO _0x28D
                 _0x28C:
00190a c076      	RJMP _0x28B
                 _0x28D:
                 ;        for (i=8; i<16; i++){if(containsPlus(i)) break;}//    
00190b e018      	LDI  R17,LOW(8)
                 _0x28F:
00190c 3110      	CPI  R17,16
00190d f434      	BRGE _0x290
00190e 2fa1      	MOV  R26,R17
00190f dac0      	RCALL _containsPlus
001910 30e0      	CPI  R30,0
001911 f411      	BRNE _0x290
001912 5f1f      	SUBI R17,-1
001913 cff8      	RJMP _0x28F
                 _0x290:
                 ;        sprintf(buff,"i=%2u",i);
001914 940e 1fe0 	CALL SUBOPT_0x29
                +
001916 e1e6     +LDI R30 , LOW ( 2 * _0x0 + ( 526 ) )
001917 e1f9     +LDI R31 , HIGH ( 2 * _0x0 + ( 526 ) )
                 	__POINTW1FN _0x0,526
001918 940e 2157 	CALL SUBOPT_0x62
00191a 940e 215f 	CALL SUBOPT_0x63
                 ;        ILI9341_WriteString(5,TFTBUTTON-30,buff,Font_11x18,WHITE,BLACK,1);
00191c 940e 2074 	CALL SUBOPT_0x40
00191e eaea      	LDI  R30,LOW(170)
00191f e0f0      	LDI  R31,HIGH(170)
001920 940e 210a 	CALL SUBOPT_0x56
001922 940e 1ff1 	CALL SUBOPT_0x2C
001924 940e 1f66 	CALL SUBOPT_0x16
001926 940e 2154 	CALL SUBOPT_0x61
                 ;        if(i<16){
001928 3110      	CPI  R17,16
001929 f00c      	BRLT PC+2
00192a c055      	RJMP _0x292
                 ;            BeepT = 20;
00192b e1e4      	LDI  R30,LOW(20)
00192c 2e5e      	MOV  R5,R30
                 ;            if(i%2) x=-1; else x=1;   //  "+"   "-"
00192d 940e 213b 	CALL SUBOPT_0x5D
00192f e0e2      	LDI  R30,LOW(2)
001930 e0f0      	LDI  R31,HIGH(2)
001931 940e 233e 	CALL __MODW21
001933 9730      	SBIW R30,0
001934 f011      	BREQ _0x293
001935 ef0f      	LDI  R16,LOW(255)
001936 c001      	RJMP _0x294
                 _0x293:
001937 e001      	LDI  R16,LOW(1)
                 ;            i /= 2; i -= 4;
                 _0x294:
001938 940e 213b 	CALL SUBOPT_0x5D
00193a e0e2      	LDI  R30,LOW(2)
00193b e0f0      	LDI  R31,HIGH(2)
00193c 940e 230f 	CALL __DIVW21
00193e 2f1e      	MOV  R17,R30
00193f 5014      	SUBI R17,LOW(4)
                 ;            sprintf(buff,"i=%2u; x=%2i",i,x);
001940 940e 1fe0 	CALL SUBOPT_0x29
                +
001942 e1ec     +LDI R30 , LOW ( 2 * _0x0 + ( 532 ) )
001943 e1f9     +LDI R31 , HIGH ( 2 * _0x0 + ( 532 ) )
                 	__POINTW1FN _0x0,532
001944 940e 2157 	CALL SUBOPT_0x62
001946 2fe0      	MOV  R30,R16
001947 940e 22bf 	CALL __CBD1
001949 940e 2389 	CALL __PUTPARD1
00194b 940e 20f3 	CALL SUBOPT_0x52
                 ;            ILI9341_WriteString(5,TFTBUTTON-45,buff,Font_11x18,WHITE,BLACK,1);
00194d 940e 2074 	CALL SUBOPT_0x40
00194f e9eb      	LDI  R30,LOW(155)
001950 e0f0      	LDI  R31,HIGH(155)
001951 940e 210a 	CALL SUBOPT_0x56
001953 940e 1ff1 	CALL SUBOPT_0x2C
001955 940e 1f66 	CALL SUBOPT_0x16
001957 940e 2154 	CALL SUBOPT_0x61
                 ;            analog[i]+=x*10; if(analog[i]>100) analog[i]=100; else if(analog[i]==9) analog[i]=10; else if(analog[i]<-1)  ...
001959 940e 2164 	CALL SUBOPT_0x64
                +
00195b 2f7e     +MOV R23 , R30
00195c 2f8f     +MOV R24 , R31
                 	__PUTW1R 23,24
00195d 8160      	LD   R22,Z
00195e e0aa      	LDI  R26,LOW(10)
00195f 020a      	MULS R16,R26
001960 01f0      	MOVW R30,R0
001961 0fe6      	ADD  R30,R22
                +
001962 2fa7     +MOV R26 , R23
001963 2fb8     +MOV R27 , R24
                 	__GETW2R 23,24
001964 93ec      	ST   X,R30
001965 940e 2164 	CALL SUBOPT_0x64
001967 81a0      	LD   R26,Z
001968 36a5      	CPI  R26,LOW(0x65)
001969 f024      	BRLT _0x295
00196a 940e 2164 	CALL SUBOPT_0x64
00196c e6a4      	LDI  R26,LOW(100)
00196d c011      	RJMP _0x2DF
                 _0x295:
00196e 940e 2164 	CALL SUBOPT_0x64
001970 81a0      	LD   R26,Z
001971 30a9      	CPI  R26,LOW(0x9)
001972 f421      	BRNE _0x297
001973 940e 2164 	CALL SUBOPT_0x64
001975 e0aa      	LDI  R26,LOW(10)
001976 c008      	RJMP _0x2DF
                 _0x297:
001977 940e 2164 	CALL SUBOPT_0x64
001979 81a0      	LD   R26,Z
00197a 3faf      	CPI  R26,LOW(0xFF)
00197b f424      	BRGE _0x299
00197c 940e 2164 	CALL SUBOPT_0x64
00197e efaf      	LDI  R26,LOW(255)
                 _0x2DF:
00197f 83a0      	STD  Z+0,R26
                 _0x299:
                 ;      }
                 _0x292:
                 ;      else checkDisplNum();
001980 c001      	RJMP _0x29A
                 _0x28B:
001981 dbc2      	RCALL _checkDisplNum
                 ;    }
                 _0x29A:
                 ;//----   ----
                 ;    for (i=0;i<4;i++){
                 _0x28A:
001982 e010      	LDI  R17,LOW(0)
                 _0x29C:
001983 3014      	CPI  R17,4
001984 f00c      	BRLT PC+2
001985 c03f      	RJMP _0x29D
                 ;    sprintf(buff," N%u: ",i+1);
001986 940e 1fe0 	CALL SUBOPT_0x29
                +
001988 e2e9     +LDI R30 , LOW ( 2 * _0x0 + ( 545 ) )
001989 e1f9     +LDI R31 , HIGH ( 2 * _0x0 + ( 545 ) )
                 	__POINTW1FN _0x0,545
00198a 940e 2145 	CALL SUBOPT_0x5F
                 ;    if(analog[i]==-1) strcat(buff,""); else {strcat(buff,""); analogOut[i]=analog[i];}
00198c 940e 2164 	CALL SUBOPT_0x64
00198e 81a0      	LD   R26,Z
00198f 3faf      	CPI  R26,LOW(0xFF)
001990 f439      	BRNE _0x29E
001991 940e 1fe0 	CALL SUBOPT_0x29
                +
001993 e3a4     +LDI R26 , LOW ( _0x26F + ( 28 ) )
001994 e0b3     +LDI R27 , HIGH ( _0x26F + ( 28 ) )
                 	__POINTW2MN _0x26F,28
001995 940e 1e90 	CALL _strcat
001997 c00a      	RJMP _0x29F
                 _0x29E:
001998 940e 1fe0 	CALL SUBOPT_0x29
                +
00199a e3a8     +LDI R26 , LOW ( _0x26F + ( 32 ) )
00199b e0b3     +LDI R27 , HIGH ( _0x26F + ( 32 ) )
                 	__POINTW2MN _0x26F,32
00199c 940e 1e90 	CALL _strcat
00199e 940e 2169 	CALL SUBOPT_0x65
0019a0 81e0      	LD   R30,Z
0019a1 93ec      	ST   X,R30
                 _0x29F:
                 ;    sprintf(txt," %3u%% ",analogOut[i]);
0019a2 e5e4      	LDI  R30,LOW(_txt)
0019a3 e0f4      	LDI  R31,HIGH(_txt)
0019a4 93fa      	ST   -Y,R31
0019a5 93ea      	ST   -Y,R30
                +
0019a6 e3e9     +LDI R30 , LOW ( 2 * _0x0 + ( 561 ) )
0019a7 e1f9     +LDI R31 , HIGH ( 2 * _0x0 + ( 561 ) )
                 	__POINTW1FN _0x0,561
0019a8 93fa      	ST   -Y,R31
0019a9 93ea      	ST   -Y,R30
0019aa 940e 216e 	CALL SUBOPT_0x66
0019ac 81e0      	LD   R30,Z
0019ad 940e 20d2 	CALL SUBOPT_0x4D
0019af 940e 215f 	CALL SUBOPT_0x63
                 ;    strcat(buff,txt);
0019b1 940e 1fe0 	CALL SUBOPT_0x29
0019b3 e5a4      	LDI  R26,LOW(_txt)
0019b4 e0b4      	LDI  R27,HIGH(_txt)
0019b5 940e 1e90 	CALL _strcat
                 ;    ILI9341_WriteString(5,pointY,buff,Font_11x18,bordWindow,fillWindow,1);
0019b7 940e 2074 	CALL SUBOPT_0x40
0019b9 2de9      	MOV  R30,R9
0019ba e0f0      	LDI  R31,0
0019bb 940e 210a 	CALL SUBOPT_0x56
0019bd 940e 1ff1 	CALL SUBOPT_0x2C
0019bf 940e 20fe 	CALL SUBOPT_0x54
                 ;    pointY = pointY+22;
0019c1 e1e6      	LDI  R30,LOW(22)
0019c2 0e9e      	ADD  R9,R30
                 ;    };
0019c3 5f1f      	SUBI R17,-1
0019c4 cfbe      	RJMP _0x29C
                 _0x29D:
                 ;
                 ;}
                 _0x20C0002:
0019c5 940e 23ba 	CALL __LOADLOCR6
0019c7 9628      	ADIW R28,8
0019c8 9508      	RET
                 ; .FEND
                 
                 	.DSEG
                 _0x26F:
000318           	.BYTE 0x24
                 ;
                 ;void displ_3(void){
                 
                 	.CSEG
                 _displ_3:
                 ; .FSTART _displ_3
                 ; char item, X_left;
                 ; signed char x;
                 ; unsigned int fillWindow = GREEN1, bordWindow = BLACK, temp;
                 ;  pointY=7;
0019c9 9724      	SBIW R28,4
0019ca efef      	LDI  R30,LOW(255)
0019cb 83ea      	STD  Y+2,R30
0019cc 83eb      	STD  Y+3,R30
0019cd 940e 23b3 	CALL __SAVELOCR6
                 ;	item -> R17
                 ;	X_left -> R16
                 ;	x -> R19
                 ;	fillWindow -> R20,R21
                 ;	bordWindow -> Y+8
                 ;	temp -> Y+6
                +
0019cf e84f     +LDI R20 , LOW ( - 1393 )
0019d0 ef5a     +LDI R21 , HIGH ( - 1393 )
                 	__GETWRN 20,21,-1393
0019d1 e0e7      	LDI  R30,LOW(7)
0019d2 2e9e      	MOV  R9,R30
                 ;  if (newSetButt){
0019d3 2077      	TST  R7
0019d4 f161      	BREQ _0x2A0
                 ;//    drawButtEdit(fillWindow);
                 ;    initializePlus(pointY+25, 4, 30);
0019d5 5ee7      	SUBI R30,-LOW(25)
0019d6 93ea      	ST   -Y,R30
0019d7 e0e4      	LDI  R30,LOW(4)
0019d8 93ea      	ST   -Y,R30
0019d9 e1ae      	LDI  R26,LOW(30)
0019da d834      	RCALL _initializePlus
                 ;    for (item=0;item<plusCount;item++) drawPlus(item, fillWindow);
0019db e010      	LDI  R17,LOW(0)
                 _0x2A2:
0019dc 91e0 0401 	LDS  R30,_plusCount
0019de 171e      	CP   R17,R30
0019df f428      	BRSH _0x2A3
0019e0 931a      	ST   -Y,R17
0019e1 01da      	MOVW R26,R20
0019e2 d941      	RCALL _drawPlus
0019e3 5f1f      	SUBI R17,-1
0019e4 cff7      	RJMP _0x2A2
                 _0x2A3:
0019e5 940e 1fe0 	CALL SUBOPT_0x29
                +
0019e7 e4e1     +LDI R30 , LOW ( 2 * _0x0 + ( 569 ) )
0019e8 e1f9     +LDI R31 , HIGH ( 2 * _0x0 + ( 569 ) )
                 	__POINTW1FN _0x0,569
0019e9 93fa      	ST   -Y,R31
0019ea 93ea      	ST   -Y,R30
0019eb 2de9      	MOV  R30,R9
0019ec 940e 20d2 	CALL SUBOPT_0x4D
0019ee 940e 215f 	CALL SUBOPT_0x63
                 ;    ILI9341_WriteString(50,pointY,buff,Font_11x18,bordWindow,fillWindow,1);
0019f0 e3e2      	LDI  R30,LOW(50)
0019f1 e0f0      	LDI  R31,HIGH(50)
0019f2 940e 2105 	CALL SUBOPT_0x55
0019f4 940e 210a 	CALL SUBOPT_0x56
0019f6 940e 1ff1 	CALL SUBOPT_0x2C
0019f8 89ea      	LDD  R30,Y+18
0019f9 89fb      	LDD  R31,Y+18+1
0019fa 93fa      	ST   -Y,R31
0019fb 93ea      	ST   -Y,R30
0019fc 935a      	ST   -Y,R21
0019fd 934a      	ST   -Y,R20
0019fe e0a1      	LDI  R26,LOW(1)
0019ff 940e 0ebe 	CALL _ILI9341_WriteString
                 ;  }
                 ;  //++++++++++++++++++++++++++++++++++++++++++++++++++++++++++++++++++++++++++++++++++++++++++++++++++++++
                 ;
                 ;}
                 _0x2A0:
001a01 940e 23ba 	CALL __LOADLOCR6
001a03 962a      	ADIW R28,10
001a04 9508      	RET
                 ; .FEND
                 ;
                 ;void display(void){
                 _display:
                 ; .FSTART _display
                 ; switch (displ_num){
001a05 2de4      	MOV  R30,R4
001a06 e0f0      	LDI  R31,0
                 ;    case 0: displ_0(); break;
001a07 9730      	SBIW R30,0
001a08 f091      	BREQ _0x2E0
                 ;    case 1: displ_1(); break;
001a09 30e1      	CPI  R30,LOW(0x1)
001a0a e0a0      	LDI  R26,HIGH(0x1)
001a0b 07fa      	CPC  R31,R26
001a0c f411      	BRNE _0x2A8
001a0d dd35      	RCALL _displ_1
001a0e c00d      	RJMP _0x2A6
                 ;    case 2: displ_2(); break;
                 _0x2A8:
001a0f 30e2      	CPI  R30,LOW(0x2)
001a10 e0a0      	LDI  R26,HIGH(0x2)
001a11 07fa      	CPC  R31,R26
001a12 f411      	BRNE _0x2A9
001a13 ddbd      	RCALL _displ_2
001a14 c007      	RJMP _0x2A6
                 ;    case 3: displ_3(); break;
                 _0x2A9:
001a15 30e3      	CPI  R30,LOW(0x3)
001a16 e0a0      	LDI  R26,HIGH(0x3)
001a17 07fa      	CPC  R31,R26
001a18 f411      	BRNE _0x2AB
001a19 dfaf      	RCALL _displ_3
001a1a c001      	RJMP _0x2A6
                 ;//    case 4: displ_4(); break;
                 ;//    case 5: displ_5(); break;
                 ;//    case 6: displ_6(); break;
                 ;//    case 7: displ_7(); break;
                 ;//    case 8: displ_8(); break;
                 ;//    case 9: displ_9(); break;
                 ;    default: displ_0(); break;
                 _0x2AB:
                 _0x2E0:
001a1b db41      	RCALL _displ_0
                 ;  }
                 _0x2A6:
                 ;}
001a1c 9508      	RET
                 ; .FEND
                 ;
                 ;// External Interrupt 0 service routine
                 ;interrupt [EXT_INT0] void ext_int0_isr(void){
                 ; 0000 0066 interrupt [2] void ext_int0_isr(void){
                 _ext_int0_isr:
                 ; .FSTART _ext_int0_isr
001a1d 93aa      	ST   -Y,R26
001a1e 93ba      	ST   -Y,R27
001a1f 93ea      	ST   -Y,R30
001a20 93fa      	ST   -Y,R31
001a21 b7ef      	IN   R30,SREG
001a22 93ea      	ST   -Y,R30
                 ; 0000 0067  static unsigned int count1;
                 ; 0000 0068  count1++;
001a23 e5ae      	LDI  R26,LOW(_count1_S000002B000)
001a24 e0b4      	LDI  R27,HIGH(_count1_S000002B000)
001a25 940e 2173 	CALL SUBOPT_0x67
                 ; 0000 0069 }
001a27 91e9      	LD   R30,Y+
001a28 bfef      	OUT  SREG,R30
001a29 91f9      	LD   R31,Y+
001a2a 91e9      	LD   R30,Y+
001a2b 91b9      	LD   R27,Y+
001a2c 91a9      	LD   R26,Y+
001a2d 9518      	RETI
                 ; .FEND
                 ;// 0.25 Hz timer interrupt generated by Timer1 overflow;  Timer Period: 4,1943 s
                 ;interrupt [TIM1_OVF] void timer_comp_isr(void){
                 ; 0000 006B interrupt [10] void timer_comp_isr(void){
                 _timer_comp_isr:
                 ; .FSTART _timer_comp_isr
001a2e 93ea      	ST   -Y,R30
001a2f b7ef      	IN   R30,SREG
                 ; 0000 006C  Sec=1;
001a30 9468      	SET
001a31 f820      	BLD  R2,0
                 ; 0000 006D }
001a32 bfef      	OUT  SREG,R30
001a33 91e9      	LD   R30,Y+
001a34 9518      	RETI
                 ; .FEND
                 ;
                 ;
                 ;void main(void){
                 ; 0000 0070 void main(void){
                 _main:
                 ; .FSTART _main
                 ; 0000 0071 // Declare your local variables here
                 ; 0000 0072 char byte;
                 ; 0000 0073 #include "init.c"
                 ;// Port D initialization
                 ;PORTD=0x00;// State7=0 State6=T State5=T State4=T State3=T State2=T State1=T State0=T
                 ;	byte -> R17
001a35 e0e0      	LDI  R30,LOW(0)
001a36 bbe2      	OUT  0x12,R30
                 ;DDRD=0x00;// Func7=In Func6=In Func5=In Func4=In Func3=In Func2=In Func1=In Func0=In
001a37 bbe1      	OUT  0x11,R30
                 ;
                 ;// Timer/Counter 0 initialization
                 ;
                 ;// Timer/Counter 1 initialization
                 ;
                 ;TCCR1A=0x00;// initialize Timer1 overflow interrupts in Mode 0 (Normal)
001a38 bdef      	OUT  0x2F,R30
                 ;TCCR1B=(1<<CS12)|(1<<CS10);// clkio/1024; Clock value: 15,625 kHz
001a39 e0e5      	LDI  R30,LOW(5)
001a3a bdee      	OUT  0x2E,R30
                 ;TCNT1H=0;
001a3b e0e0      	LDI  R30,LOW(0)
001a3c bded      	OUT  0x2D,R30
                 ;TCNT1L=0;// timer overflow interrupts will occur with 0.25Hz frequency
001a3d bdec      	OUT  0x2C,R30
                 ;
                 ;// Timer/Counter 2 initialization
                 ;
                 ;// External Interrupt(s) initialization
                 ;// INT0: On Mode: Falling Edge INT1: Off INT2: Off
                 ;GICR|=0x40;
001a3e b7eb      	IN   R30,0x3B
001a3f 64e0      	ORI  R30,0x40
001a40 bfeb      	OUT  0x3B,R30
                 ;MCUCR=0x02;
001a41 e0e2      	LDI  R30,LOW(2)
001a42 bfe5      	OUT  0x35,R30
                 ;MCUCSR=0x00;
001a43 e0e0      	LDI  R30,LOW(0)
001a44 bfe4      	OUT  0x34,R30
                 ;GIFR=0x40;
001a45 e4e0      	LDI  R30,LOW(64)
001a46 bfea      	OUT  0x3A,R30
                 ;
                 ;// Timer(s)/Counter(s) Interrupt(s) initialization
                 ;//TIMSK=0x10;
                 ;TIMSK=1<<TOIE1;// enable Timer1 overflow interrupt
001a47 e0e4      	LDI  R30,LOW(4)
001a48 bfe9      	OUT  0x39,R30
                 ;
                 ;// USART initialization
                 ;// Communication Parameters: 8 Data, 1 Stop, No Parity
                 ;// USART Receiver: On
                 ;// USART Transmitter: On
                 ;// USART Mode: Asynchronous
                 ;// USART Baud Rate: 9600
                 ;UCSRA=0x00;
001a49 e0e0      	LDI  R30,LOW(0)
001a4a b9eb      	OUT  0xB,R30
                 ;UCSRB=0xD8;
001a4b ede8      	LDI  R30,LOW(216)
001a4c b9ea      	OUT  0xA,R30
                 ;UCSRC=0x86;
001a4d e8e6      	LDI  R30,LOW(134)
001a4e bde0      	OUT  0x20,R30
                 ;UBRRH=0x00;
001a4f e0e0      	LDI  R30,LOW(0)
001a50 bde0      	OUT  0x20,R30
                 ;UBRRL=0x67;
001a51 e6e7      	LDI  R30,LOW(103)
001a52 b9e9      	OUT  0x9,R30
                 ;
                 ;// Analog Comparator initialization
                 ;ACSR=0x80;// Analog Comparator: Off
001a53 e8e0      	LDI  R30,LOW(128)
001a54 b9e8      	OUT  0x8,R30
                 ;SFIOR=0x00;
001a55 e0e0      	LDI  R30,LOW(0)
001a56 bfe0      	OUT  0x30,R30
                 ;
                 ;// TWI initialization
                 ;//TWBR=0x0C;// Bit Rate: 400,000 kHz
                 ;TWBR=0x48;// Bit Rate: 100,000 kHz
001a57 e4e8      	LDI  R30,LOW(72)
001a58 b9e0      	OUT  0x0,R30
                 ;TWAR=0x00;// Two Wire Bus Slave Address: 0x0; General Call Recognition: Off
001a59 e0e0      	LDI  R30,LOW(0)
001a5a b9e2      	OUT  0x2,R30
                 ;TWCR=0x44;// Generate Acknowledge Pulse: On; TWI Interrupt: Off
001a5b e4e4      	LDI  R30,LOW(68)
001a5c bfe6      	OUT  0x36,R30
                 ;TWSR=0x00;
001a5d e0e0      	LDI  R30,LOW(0)
001a5e b9e1      	OUT  0x1,R30
                 ;
                 ;// ADC initialization
                 ;// ADC Clock frequency: 125,000 kHz
                 ;// ADC Voltage Reference: AREF pin
                 ;ADMUX=ADC_VREF_TYPE & 0xff;
001a5f e4e0      	LDI  R30,LOW(64)
001a60 b9e7      	OUT  0x7,R30
                 ;ADCSRA=0x84;
001a61 e8e4      	LDI  R30,LOW(132)
001a62 b9e6      	OUT  0x6,R30
                 ;
                 ;offsetT = set[4][0];
                +
001a63 e2a0     +LDI R26 , LOW ( _set + ( 32 ) )
001a64 e0b0     +LDI R27 , HIGH ( _set + ( 32 ) )
                 	__POINTW2MN _set,32
001a65 940e 2395 	CALL __EEPROMRDW
001a67 93e0 03cb 	STS  _offsetT,R30
001a69 93f0 03cc 	STS  _offsetT+1,R31
                 ;offsetRH = set[4][1];
                +
001a6b e2a2     +LDI R26 , LOW ( _set + ( 34 ) )
001a6c e0b0     +LDI R27 , HIGH ( _set + ( 34 ) )
                 	__POINTW2MN _set,34
001a6d 940e 2395 	CALL __EEPROMRDW
001a6f 93e0 03cf 	STS  _offsetRH,R30
001a71 93f0 03d0 	STS  _offsetRH+1,R31
                 ;typeS = set[4][2];
                +
001a73 e2a4     +LDI R26 , LOW ( _set + ( 36 ) )
001a74 e0b0     +LDI R27 , HIGH ( _set + ( 36 ) )
                 	__POINTW2MN _set,36
001a75 940e 2399 	CALL __EEPROMRDB
001a77 940e 23ae 	CALL __BSTB1
001a79 f825      	BLD  R2,5
                 ;//setDAC();           //     
                 ;delay_ms(1000);
001a7a eea8      	LDI  R26,LOW(1000)
001a7b e0b3      	LDI  R27,HIGH(1000)
001a7c 940e 21b2 	CALL _delay_ms
                 ;Dht = readDHT();    // detect DHT-21/11
001a7e 940e 1163 	CALL _readDHT
001a80 940e 23ae 	CALL __BSTB1
001a82 f822      	BLD  R2,2
                 ;//------ 1 Wire Protocol Functions ----------------------------------------------------------------------
                 ;ds18b20 = w1_search(0xf0,familycode);// detect how many DS1820/DS18S20 devices are connected to the 1 Wire bus
001a83 efe0      	LDI  R30,LOW(240)
001a84 93ea      	ST   -Y,R30
001a85 e9ad      	LDI  R26,LOW(_familycode)
001a86 e0b3      	LDI  R27,HIGH(_familycode)
001a87 940e 220f 	CALL _w1_search
001a89 2e6e      	MOV  R6,R30
                 ;if((ds18b20+Dht)>MAX_DEVICES) ds18b20=(MAX_DEVICES-Dht);
001a8a 940e 2179 	CALL SUBOPT_0x68
001a8c 0fae      	ADD  R26,R30
001a8d 1fbf      	ADC  R27,R31
001a8e 9714      	SBIW R26,4
001a8f f034      	BRLT _0x2AC
001a90 e0e0      	LDI  R30,0
001a91 fc22      	SBRC R2,2
001a92 e0e1      	LDI  R30,1
001a93 e0a3      	LDI  R26,LOW(3)
001a94 1bae      	SUB  R26,R30
001a95 2e6a      	MOV  R6,R26
                 ;if(ds18b20)           //    
                 _0x2AC:
001a96 2066      	TST  R6
001a97 f011      	BREQ _0x2AD
                 ; {
                 ;   w1_init();      // 1 Wire Bus initialization
001a98 940e 2092 	CALL SUBOPT_0x44
                 ;   w1_write(0xCC); // Load Skip ROM [CCH] command
                 ;   w1_write(0x44); // Load Convert T [44H] command
                 ; }
                 ;//------------------------ once per second --------------------------------------
                 ;clock_buffer[0] = 0;// EOSC=0 BBSQW=0 CONV=0 RS2=0 RS1=0 INTCN=0 A2IE=0 A1IE=0
                 _0x2AD:
001a9a e0e0      	LDI  R30,LOW(0)
001a9b 93e0 03b8 	STS  _clock_buffer,R30
                 ;clock_buffer[1] = 0;//  EN32kHz=0 BSY=0 A2F=0 A1F=0
                +
001a9d 93e0 03b9+STS _clock_buffer + ( 1 ) , R30
                 	__PUTB1MN _clock_buffer,1
                 ;Clock_Ok = write_TWI(DS3231,0x0E,clock_buffer,2);
001a9f ede0      	LDI  R30,LOW(208)
001aa0 93ea      	ST   -Y,R30
001aa1 e0ee      	LDI  R30,LOW(14)
001aa2 e0f0      	LDI  R31,HIGH(14)
001aa3 93fa      	ST   -Y,R31
001aa4 93ea      	ST   -Y,R30
001aa5 ebe8      	LDI  R30,LOW(_clock_buffer)
001aa6 e0f3      	LDI  R31,HIGH(_clock_buffer)
001aa7 93fa      	ST   -Y,R31
001aa8 93ea      	ST   -Y,R30
001aa9 e0a2      	LDI  R26,LOW(2)
001aaa 940e 10df 	CALL _write_TWI
001aac 940e 23ae 	CALL __BSTB1
001aae f821      	BLD  R2,1
                 ;
                 ;// Global enable interrupts
                 ;#asm("sei")
001aaf 9478      	sei
                 ;
                 ;InitInterface();
001ab0 940e 0f24 	CALL _InitInterface
                 ;ILI9341_Init();
001ab2 940e 0fe0 	CALL _ILI9341_Init
                 ;//TFT_SetOrientation(3);  //0
                 ;ILI9341_FillScreen(0, max_X, 0, max_Y, fillScreen);
001ab4 940e 1f66 	CALL SUBOPT_0x16
001ab6 940e 209a 	CALL SUBOPT_0x45
001ab8 91e0 03c5 	LDS  R30,_max_Y
001aba 91f0 03c6 	LDS  R31,_max_Y+1
001abc 93fa      	ST   -Y,R31
001abd 93ea      	ST   -Y,R30
001abe 91a0 03c7 	LDS  R26,_fillScreen
001ac0 91b0 03c8 	LDS  R27,_fillScreen+1
001ac2 940e 0f4c 	CALL _ILI9341_FillScreen
                 ;pointY = 10;
001ac4 e0ea      	LDI  R30,LOW(10)
001ac5 2e9e      	MOV  R9,R30
                 ;ILI9341_WriteString(60, pointY, "www.graviton.com.ua", Font_11x18, WHITE, fillScreen, 1);
001ac6 e3ec      	LDI  R30,LOW(60)
001ac7 e0f0      	LDI  R31,HIGH(60)
001ac8 940e 2105 	CALL SUBOPT_0x55
001aca 93fa      	ST   -Y,R31
001acb 93ea      	ST   -Y,R30
                +
001acc e3ec     +LDI R30 , LOW ( _0x2AE + ( 0 ) )
001acd e0f3     +LDI R31 , HIGH ( _0x2AE + ( 0 ) )
                 	__POINTW1MN _0x2AE,0
001ace 940e 2009 	CALL SUBOPT_0x2F
001ad0 940e 1f66 	CALL SUBOPT_0x16
001ad2 940e 2180 	CALL SUBOPT_0x69
001ad4 940e 1ffc 	CALL SUBOPT_0x2D
                 ;pointY += 30;
001ad6 940e 2185 	CALL SUBOPT_0x6A
                 ;ILI9341_WriteString(80, pointY, "", Font_11x18, WHITE, fillScreen, 2);
001ad8 93fa      	ST   -Y,R31
001ad9 93ea      	ST   -Y,R30
                +
001ada e5e0     +LDI R30 , LOW ( _0x2AE + ( 20 ) )
001adb e0f3     +LDI R31 , HIGH ( _0x2AE + ( 20 ) )
                 	__POINTW1MN _0x2AE,20
001adc 940e 2009 	CALL SUBOPT_0x2F
001ade 940e 1f66 	CALL SUBOPT_0x16
001ae0 940e 218a 	CALL SUBOPT_0x6B
                 ;pointY += 30;
001ae2 940e 2185 	CALL SUBOPT_0x6A
                 ;ILI9341_WriteString(80, pointY, "", Font_11x18, WHITE, fillScreen, 2);
001ae4 93fa      	ST   -Y,R31
001ae5 93ea      	ST   -Y,R30
                +
001ae6 e5e8     +LDI R30 , LOW ( _0x2AE + ( 28 ) )
001ae7 e0f3     +LDI R31 , HIGH ( _0x2AE + ( 28 ) )
                 	__POINTW1MN _0x2AE,28
001ae8 940e 2009 	CALL SUBOPT_0x2F
001aea 940e 1f66 	CALL SUBOPT_0x16
001aec 940e 218a 	CALL SUBOPT_0x6B
                 ;pointY = pointY+45;
001aee e2ed      	LDI  R30,LOW(45)
001aef 0e9e      	ADD  R9,R30
                 ;sprintf(buff,"  %u",ds18b20+Dht);    //  
001af0 940e 1fe0 	CALL SUBOPT_0x29
                +
001af2 e7e5     +LDI R30 , LOW ( 2 * _0x0 + ( 621 ) )
001af3 e1f9     +LDI R31 , HIGH ( 2 * _0x0 + ( 621 ) )
                 	__POINTW1FN _0x0,621
001af4 93fa      	ST   -Y,R31
001af5 93ea      	ST   -Y,R30
001af6 940e 2179 	CALL SUBOPT_0x68
001af8 0fea      	ADD  R30,R26
001af9 1ffb      	ADC  R31,R27
001afa 940e 2123 	CALL SUBOPT_0x59
                 ;ILI9341_WriteString(10, pointY, buff, Font_11x18, WHITE, fillScreen, 1);
001afc 940e 212c 	CALL SUBOPT_0x5A
001afe 940e 210a 	CALL SUBOPT_0x56
001b00 940e 1ff1 	CALL SUBOPT_0x2C
001b02 940e 1f66 	CALL SUBOPT_0x16
001b04 940e 2180 	CALL SUBOPT_0x69
001b06 940e 1ffc 	CALL SUBOPT_0x2D
                 ;pointY = pointY+20;
001b08 e1e4      	LDI  R30,LOW(20)
001b09 0e9e      	ADD  R9,R30
                 ;sprintf(buff,"  %u",Dht);                //  AM2301
001b0a 940e 1fe0 	CALL SUBOPT_0x29
                +
001b0c e8ed     +LDI R30 , LOW ( 2 * _0x0 + ( 645 ) )
001b0d e1f9     +LDI R31 , HIGH ( 2 * _0x0 + ( 645 ) )
                 	__POINTW1FN _0x0,645
001b0e 93fa      	ST   -Y,R31
001b0f 93ea      	ST   -Y,R30
001b10 e0e0      	LDI  R30,0
001b11 fc22      	SBRC R2,2
001b12 e0e1      	LDI  R30,1
001b13 940e 20d2 	CALL SUBOPT_0x4D
001b15 940e 215f 	CALL SUBOPT_0x63
                 ;ILI9341_WriteString(10, pointY, buff, Font_11x18, WHITE, fillScreen, 1);
001b17 940e 212c 	CALL SUBOPT_0x5A
001b19 940e 210a 	CALL SUBOPT_0x56
001b1b 940e 1ff1 	CALL SUBOPT_0x2C
001b1d 940e 1f66 	CALL SUBOPT_0x16
001b1f 940e 2180 	CALL SUBOPT_0x69
001b21 940e 1ffc 	CALL SUBOPT_0x2D
                 ;//  pointY = pointY+20;
                 ;
                 ;newSetButt = 1;
001b23 e0e1      	LDI  R30,LOW(1)
001b24 2e7e      	MOV  R7,R30
                 ;temperature_check();
001b25 d976      	RCALL _temperature_check
                 ;//display();
                 ; 0000 0074 
                 ; 0000 0075 while (1){
                 _0x2AF:
                 ; 0000 0076    //-----------  1  ---------------------------
                 ; 0000 0077    if(Sec){
001b26 fe20      	SBRS R2,0
001b27 c04e      	RJMP _0x2B2
                 ; 0000 0078      Sec=0;
001b28 94e8      	CLT
001b29 f820      	BLD  R2,0
                 ; 0000 0079      if(ds18b20) temperature_check();
001b2a 2066      	TST  R6
001b2b f009      	BREQ _0x2B3
001b2c d96f      	RCALL _temperature_check
                 ; 0000 007A      if(Dht){                                         //   
                 _0x2B3:
001b2d fe22      	SBRS R2,2
001b2e c015      	RJMP _0x2B4
                 ; 0000 007B        if(readDHT()) DHTexist = 3;
001b2f 940e 1163 	CALL _readDHT
001b31 30e0      	CPI  R30,0
001b32 f019      	BREQ _0x2B5
001b33 e0e3      	LDI  R30,LOW(3)
001b34 2e8e      	MOV  R8,R30
                 ; 0000 007C        else if(DHTexist) DHTexist--;                   //   ?
001b35 c00e      	RJMP _0x2B6
                 _0x2B5:
001b36 2088      	TST  R8
001b37 f011      	BREQ _0x2B7
001b38 948a      	DEC  R8
                 ; 0000 007D        else {pvT = 1900; pvRH = 190;}
001b39 c00a      	RJMP _0x2B8
                 _0x2B7:
001b3a e6ec      	LDI  R30,LOW(1900)
001b3b e0f7      	LDI  R31,HIGH(1900)
001b3c 93e0 03c9 	STS  _pvT,R30
001b3e 93f0 03ca 	STS  _pvT+1,R31
001b40 ebee      	LDI  R30,LOW(190)
001b41 e0f0      	LDI  R31,HIGH(190)
001b42 940e 1f8b 	CALL SUBOPT_0x1D
                 _0x2B8:
                 _0x2B6:
                 ; 0000 007E      }
                 ; 0000 007F      for(byte=0; byte<4; byte++){if(relay[byte]<2) relOut[byte]=relay[byte];}
                 _0x2B4:
001b44 e010      	LDI  R17,LOW(0)
                 _0x2BA:
001b45 3014      	CPI  R17,4
001b46 f478      	BRSH _0x2BB
001b47 940e 2140 	CALL SUBOPT_0x5E
001b49 81a0      	LD   R26,Z
001b4a 30a2      	CPI  R26,LOW(0x2)
001b4b f444      	BRGE _0x2BC
001b4c 2fa1      	MOV  R26,R17
001b4d e0b0      	LDI  R27,0
001b4e 59a7      	SUBI R26,LOW(-_relOut)
001b4f 4fbc      	SBCI R27,HIGH(-_relOut)
001b50 940e 2140 	CALL SUBOPT_0x5E
001b52 81e0      	LD   R30,Z
001b53 93ec      	ST   X,R30
                 _0x2BC:
001b54 5f1f      	SUBI R17,-1
001b55 cfef      	RJMP _0x2BA
                 _0x2BB:
                 ; 0000 0080      for(byte=0; byte<4; byte++){
001b56 e010      	LDI  R17,LOW(0)
                 _0x2BE:
001b57 3014      	CPI  R17,4
001b58 f4e8      	BRSH _0x2BF
                 ; 0000 0081         if(analog[byte]>=0) analogOut[byte] = analog[byte]; else analogOut[byte] = 0; //??????????????
001b59 940e 2164 	CALL SUBOPT_0x64
001b5b 81a0      	LD   R26,Z
001b5c 30a0      	CPI  R26,0
001b5d f02c      	BRLT _0x2C0
001b5e 940e 2169 	CALL SUBOPT_0x65
001b60 81e0      	LD   R30,Z
001b61 93ec      	ST   X,R30
001b62 c004      	RJMP _0x2C1
                 _0x2C0:
001b63 940e 216e 	CALL SUBOPT_0x66
001b65 e0a0      	LDI  R26,LOW(0)
001b66 83a0      	STD  Z+0,R26
                 ; 0000 0082         dacU[byte] = adapt(analogOut[byte]);//   
                 _0x2C1:
001b67 2fe1      	MOV  R30,R17
001b68 e0f0      	LDI  R31,0
001b69 58ef      	SUBI R30,LOW(-_dacU)
001b6a 4ffc      	SBCI R31,HIGH(-_dacU)
001b6b 93ff      	PUSH R31
001b6c 93ef      	PUSH R30
001b6d 940e 216e 	CALL SUBOPT_0x66
001b6f 81a0      	LD   R26,Z
001b70 d9a7      	RCALL _adapt
001b71 91af      	POP  R26
001b72 91bf      	POP  R27
001b73 93ec      	ST   X,R30
                 ; 0000 0083      }
001b74 5f1f      	SUBI R17,-1
001b75 cfe1      	RJMP _0x2BE
                 _0x2BF:
                 ; 0000 0084  //    setDAC();                           //     
                 ; 0000 0085      // -------- 1 ---------
                 ; 0000 0086 //     if(Dht){
                 ; 0000 0087 //       RelayControl(pvT,0);
                 ; 0000 0088 //       RelayControl(pvRH,1);
                 ; 0000 0089 //     }
                 ; 0000 008A //     else {
                 ; 0000 008B //       RelayControl(t.point[0],0);
                 ; 0000 008C //       RelayControl(t.point[1],1);
                 ; 0000 008D //     }
                 ; 0000 008E      // -------- 2 ---------
                 ; 0000 008F //     relayHadl();
                 ; 0000 0090 //     analogHadl();
                 ; 0000 0091 //     if (displ_num<3) display();
                 ; 0000 0092 //     //-- CO2 ----------------------------------
                 ; 0000 0093 //     if(CO2module){
                 ; 0000 0094 //       byte = readCO2();     //          pvCO2
                 ; 0000 0095 //       if(byte) pvCO2 = LowPassF2(pvCO2,3);//    2   Tf[3]
                 ; 0000 0096 //       controlCompressorCO2(4);  //  2.
                 ; 0000 0097 //     }
                 ; 0000 0098    }
                 ; 0000 0099    //---------------------------------------------------------
                 ; 0000 009A //   if(newButton==100) display();
                 ; 0000 009B //   else {touchpad(newButton); newButton=100; display();}
                 ; 0000 009C     display();
                 _0x2B2:
001b76 de8e      	RCALL _display
                 ; 0000 009D //   sprintf(buff,"X%4u; Y%4u; D%u newB=%3u",point_X,point_Y, displ_num, newButton);
                 ; 0000 009E //   ILI9341_WriteString(5,TFTBUTTON-10,buff,Font_11x18,WHITE,BLACK,1);
                 ; 0000 009F  }
001b77 cfae      	RJMP _0x2AF
                 ; 0000 00A0 }
                 _0x2C2:
001b78 cfff      	RJMP _0x2C2
                 ; .FEND
                 
                 	.DSEG
                 _0x2AE:
00033c           	.BYTE 0x24
                 	#ifndef __SLEEP_DEFINED__
                 	#endif
                 
                 	.CSEG
                 _put_buff_G100:
                 ; .FSTART _put_buff_G100
001b79 93ba      	ST   -Y,R27
001b7a 93aa      	ST   -Y,R26
001b7b 931a      	ST   -Y,R17
001b7c 930a      	ST   -Y,R16
001b7d 81aa      	LDD  R26,Y+2
001b7e 81bb      	LDD  R27,Y+2+1
001b7f 9612      	ADIW R26,2
001b80 940e 236d 	CALL __GETW1P
001b82 9730      	SBIW R30,0
001b83 f129      	BREQ _0x2000010
001b84 81aa      	LDD  R26,Y+2
001b85 81bb      	LDD  R27,Y+2+1
001b86 9614      	ADIW R26,4
001b87 940e 236d 	CALL __GETW1P
001b89 018f      	MOVW R16,R30
001b8a 9730      	SBIW R30,0
001b8b f061      	BREQ _0x2000012
                +
001b8c 3002     +CPI R16 , LOW ( 2 )
001b8d e0e0     +LDI R30 , HIGH ( 2 )
001b8e 071e     +CPC R17 , R30
                 	__CPWRN 16,17,2
001b8f f080      	BRLO _0x2000013
001b90 01f8      	MOVW R30,R16
001b91 9731      	SBIW R30,1
001b92 018f      	MOVW R16,R30
                +
001b93 81aa     +LDD R26 , Y + 2
001b94 81bb     +LDD R27 , Y + 2 + 1
001b95 9614     +ADIW R26 , 4
001b96 93ed     +ST X + , R30
001b97 93fc     +ST X , R31
                 	__PUTW1SNS 2,4
                 _0x2000012:
001b98 81aa      	LDD  R26,Y+2
001b99 81bb      	LDD  R27,Y+2+1
001b9a 9612      	ADIW R26,2
001b9b 940e 2173 	CALL SUBOPT_0x67
001b9d 9731      	SBIW R30,1
001b9e 81ac      	LDD  R26,Y+4
001b9f 83a0      	STD  Z+0,R26
                 _0x2000013:
001ba0 81aa      	LDD  R26,Y+2
001ba1 81bb      	LDD  R27,Y+2+1
001ba2 940e 236d 	CALL __GETW1P
001ba4 23ff      	TST  R31
001ba5 f012      	BRMI _0x2000014
001ba6 940e 2173 	CALL SUBOPT_0x67
                 _0x2000014:
001ba8 c006      	RJMP _0x2000015
                 _0x2000010:
001ba9 81aa      	LDD  R26,Y+2
001baa 81bb      	LDD  R27,Y+2+1
001bab efef      	LDI  R30,LOW(65535)
001bac efff      	LDI  R31,HIGH(65535)
001bad 93ed      	ST   X+,R30
001bae 93fc      	ST   X,R31
                 _0x2000015:
001baf 8119      	LDD  R17,Y+1
001bb0 8108      	LDD  R16,Y+0
001bb1 9625      	ADIW R28,5
001bb2 9508      	RET
                 ; .FEND
                 __print_G100:
                 ; .FSTART __print_G100
001bb3 93ba      	ST   -Y,R27
001bb4 93aa      	ST   -Y,R26
001bb5 9726      	SBIW R28,6
001bb6 940e 23b3 	CALL __SAVELOCR6
001bb8 e010      	LDI  R17,0
001bb9 85ac      	LDD  R26,Y+12
001bba 85bd      	LDD  R27,Y+12+1
001bbb e0e0      	LDI  R30,LOW(0)
001bbc e0f0      	LDI  R31,HIGH(0)
001bbd 93ed      	ST   X+,R30
001bbe 93fc      	ST   X,R31
                 _0x2000016:
001bbf 89ea      	LDD  R30,Y+18
001bc0 89fb      	LDD  R31,Y+18+1
001bc1 9631      	ADIW R30,1
001bc2 8bea      	STD  Y+18,R30
001bc3 8bfb      	STD  Y+18+1,R31
001bc4 9731      	SBIW R30,1
001bc5 91e4      	LPM  R30,Z
001bc6 2f2e      	MOV  R18,R30
001bc7 30e0      	CPI  R30,0
001bc8 f409      	BRNE PC+2
001bc9 c11b      	RJMP _0x2000018
001bca 2fe1      	MOV  R30,R17
001bcb 30e0      	CPI  R30,0
001bcc f439      	BRNE _0x200001C
001bcd 3225      	CPI  R18,37
001bce f411      	BRNE _0x200001D
001bcf e011      	LDI  R17,LOW(1)
001bd0 c002      	RJMP _0x200001E
                 _0x200001D:
001bd1 940e 2190 	CALL SUBOPT_0x6C
                 _0x200001E:
001bd3 c110      	RJMP _0x200001B
                 _0x200001C:
001bd4 30e1      	CPI  R30,LOW(0x1)
001bd5 f4a9      	BRNE _0x200001F
001bd6 3225      	CPI  R18,37
001bd7 f419      	BRNE _0x2000020
001bd8 940e 2190 	CALL SUBOPT_0x6C
001bda c108      	RJMP _0x20000CC
                 _0x2000020:
001bdb e012      	LDI  R17,LOW(2)
001bdc e040      	LDI  R20,LOW(0)
001bdd e000      	LDI  R16,LOW(0)
001bde 322d      	CPI  R18,45
001bdf f411      	BRNE _0x2000021
001be0 e001      	LDI  R16,LOW(1)
001be1 c102      	RJMP _0x200001B
                 _0x2000021:
001be2 322b      	CPI  R18,43
001be3 f411      	BRNE _0x2000022
001be4 e24b      	LDI  R20,LOW(43)
001be5 c0fe      	RJMP _0x200001B
                 _0x2000022:
001be6 3220      	CPI  R18,32
001be7 f411      	BRNE _0x2000023
001be8 e240      	LDI  R20,LOW(32)
001be9 c0fa      	RJMP _0x200001B
                 _0x2000023:
001bea c002      	RJMP _0x2000024
                 _0x200001F:
001beb 30e2      	CPI  R30,LOW(0x2)
001bec f439      	BRNE _0x2000025
                 _0x2000024:
001bed e050      	LDI  R21,LOW(0)
001bee e013      	LDI  R17,LOW(3)
001bef 3320      	CPI  R18,48
001bf0 f411      	BRNE _0x2000026
001bf1 6800      	ORI  R16,LOW(128)
001bf2 c0f1      	RJMP _0x200001B
                 _0x2000026:
001bf3 c003      	RJMP _0x2000027
                 _0x2000025:
001bf4 30e3      	CPI  R30,LOW(0x3)
001bf5 f009      	BREQ PC+2
001bf6 c0ed      	RJMP _0x200001B
                 _0x2000027:
001bf7 3320      	CPI  R18,48
001bf8 f010      	BRLO _0x200002A
001bf9 332a      	CPI  R18,58
001bfa f008      	BRLO _0x200002B
                 _0x200002A:
001bfb c007      	RJMP _0x2000029
                 _0x200002B:
001bfc e0aa      	LDI  R26,LOW(10)
001bfd 9f5a      	MUL  R21,R26
001bfe 2d50      	MOV  R21,R0
001bff 2fe2      	MOV  R30,R18
001c00 53e0      	SUBI R30,LOW(48)
001c01 0f5e      	ADD  R21,R30
001c02 c0e1      	RJMP _0x200001B
                 _0x2000029:
001c03 2fe2      	MOV  R30,R18
001c04 36e3      	CPI  R30,LOW(0x63)
001c05 f449      	BRNE _0x200002F
001c06 940e 2197 	CALL SUBOPT_0x6D
001c08 89e8      	LDD  R30,Y+16
001c09 89f9      	LDD  R31,Y+16+1
001c0a 81a4      	LDD  R26,Z+4
001c0b 93aa      	ST   -Y,R26
001c0c 940e 219d 	CALL SUBOPT_0x6E
001c0e c0d4      	RJMP _0x2000030
                 _0x200002F:
001c0f 37e3      	CPI  R30,LOW(0x73)
001c10 f459      	BRNE _0x2000032
001c11 940e 2197 	CALL SUBOPT_0x6D
001c13 89a8      	LDD  R26,Y+16
001c14 89b9      	LDD  R27,Y+16+1
001c15 9614      	ADIW R26,4
001c16 940e 2134 	CALL SUBOPT_0x5C
001c18 940e 1ea1 	CALL _strlen
001c1a 2f1e      	MOV  R17,R30
001c1b c00d      	RJMP _0x2000033
                 _0x2000032:
001c1c 37e0      	CPI  R30,LOW(0x70)
001c1d f479      	BRNE _0x2000035
001c1e 940e 2197 	CALL SUBOPT_0x6D
001c20 89a8      	LDD  R26,Y+16
001c21 89b9      	LDD  R27,Y+16+1
001c22 9614      	ADIW R26,4
001c23 940e 2134 	CALL SUBOPT_0x5C
001c25 940e 1ead 	CALL _strlenf
001c27 2f1e      	MOV  R17,R30
001c28 6008      	ORI  R16,LOW(8)
                 _0x2000033:
001c29 6002      	ORI  R16,LOW(2)
001c2a 770f      	ANDI R16,LOW(127)
001c2b e030      	LDI  R19,LOW(0)
001c2c c034      	RJMP _0x2000036
                 _0x2000035:
001c2d 36e4      	CPI  R30,LOW(0x64)
001c2e f011      	BREQ _0x2000039
001c2f 36e9      	CPI  R30,LOW(0x69)
001c30 f411      	BRNE _0x200003A
                 _0x2000039:
001c31 6004      	ORI  R16,LOW(4)
001c32 c002      	RJMP _0x200003B
                 _0x200003A:
001c33 37e5      	CPI  R30,LOW(0x75)
001c34 f431      	BRNE _0x200003C
                 _0x200003B:
001c35 ebe0      	LDI  R30,LOW(_tbl10_G100*2)
001c36 e1f6      	LDI  R31,HIGH(_tbl10_G100*2)
001c37 83ee      	STD  Y+6,R30
001c38 83ff      	STD  Y+6+1,R31
001c39 e015      	LDI  R17,LOW(5)
001c3a c00c      	RJMP _0x200003D
                 _0x200003C:
001c3b 35e8      	CPI  R30,LOW(0x58)
001c3c f411      	BRNE _0x200003F
001c3d 6008      	ORI  R16,LOW(8)
001c3e c003      	RJMP _0x2000040
                 _0x200003F:
001c3f 37e8      	CPI  R30,LOW(0x78)
001c40 f009      	BREQ PC+2
001c41 c0a1      	RJMP _0x2000071
                 _0x2000040:
001c42 ebea      	LDI  R30,LOW(_tbl16_G100*2)
001c43 e1f6      	LDI  R31,HIGH(_tbl16_G100*2)
001c44 83ee      	STD  Y+6,R30
001c45 83ff      	STD  Y+6+1,R31
001c46 e014      	LDI  R17,LOW(4)
                 _0x200003D:
001c47 ff02      	SBRS R16,2
001c48 c014      	RJMP _0x2000042
001c49 940e 2197 	CALL SUBOPT_0x6D
001c4b 940e 21a3 	CALL SUBOPT_0x6F
001c4d 85ab      	LDD  R26,Y+11
001c4e 23aa      	TST  R26
001c4f f43a      	BRPL _0x2000043
001c50 85ea      	LDD  R30,Y+10
001c51 85fb      	LDD  R31,Y+10+1
001c52 940e 229d 	CALL __ANEGW1
001c54 87ea      	STD  Y+10,R30
001c55 87fb      	STD  Y+10+1,R31
001c56 e24d      	LDI  R20,LOW(45)
                 _0x2000043:
001c57 3040      	CPI  R20,0
001c58 f011      	BREQ _0x2000044
001c59 5f1f      	SUBI R17,-LOW(1)
001c5a c001      	RJMP _0x2000045
                 _0x2000044:
001c5b 7f0b      	ANDI R16,LOW(251)
                 _0x2000045:
001c5c c004      	RJMP _0x2000046
                 _0x2000042:
001c5d 940e 2197 	CALL SUBOPT_0x6D
001c5f 940e 21a3 	CALL SUBOPT_0x6F
                 _0x2000046:
                 _0x2000036:
001c61 fd00      	SBRC R16,0
001c62 c011      	RJMP _0x2000047
                 _0x2000048:
001c63 1715      	CP   R17,R21
001c64 f478      	BRSH _0x200004A
001c65 ff07      	SBRS R16,7
001c66 c008      	RJMP _0x200004B
001c67 ff02      	SBRS R16,2
001c68 c004      	RJMP _0x200004C
001c69 7f0b      	ANDI R16,LOW(251)
001c6a 2f24      	MOV  R18,R20
001c6b 5011      	SUBI R17,LOW(1)
001c6c c001      	RJMP _0x200004D
                 _0x200004C:
001c6d e320      	LDI  R18,LOW(48)
                 _0x200004D:
001c6e c001      	RJMP _0x200004E
                 _0x200004B:
001c6f e220      	LDI  R18,LOW(32)
                 _0x200004E:
001c70 940e 2190 	CALL SUBOPT_0x6C
001c72 5051      	SUBI R21,LOW(1)
001c73 cfef      	RJMP _0x2000048
                 _0x200004A:
                 _0x2000047:
001c74 2f31      	MOV  R19,R17
001c75 ff01      	SBRS R16,1
001c76 c017      	RJMP _0x200004F
                 _0x2000050:
001c77 3030      	CPI  R19,0
001c78 f0a1      	BREQ _0x2000052
001c79 ff03      	SBRS R16,3
001c7a c006      	RJMP _0x2000053
001c7b 81ee      	LDD  R30,Y+6
001c7c 81ff      	LDD  R31,Y+6+1
001c7d 9125      	LPM  R18,Z+
001c7e 83ee      	STD  Y+6,R30
001c7f 83ff      	STD  Y+6+1,R31
001c80 c005      	RJMP _0x2000054
                 _0x2000053:
001c81 81ae      	LDD  R26,Y+6
001c82 81bf      	LDD  R27,Y+6+1
001c83 912d      	LD   R18,X+
001c84 83ae      	STD  Y+6,R26
001c85 83bf      	STD  Y+6+1,R27
                 _0x2000054:
001c86 940e 2190 	CALL SUBOPT_0x6C
001c88 3050      	CPI  R21,0
001c89 f009      	BREQ _0x2000055
001c8a 5051      	SUBI R21,LOW(1)
                 _0x2000055:
001c8b 5031      	SUBI R19,LOW(1)
001c8c cfea      	RJMP _0x2000050
                 _0x2000052:
001c8d c04b      	RJMP _0x2000056
                 _0x200004F:
                 _0x2000058:
001c8e e320      	LDI  R18,LOW(48)
001c8f 81ee      	LDD  R30,Y+6
001c90 81ff      	LDD  R31,Y+6+1
001c91 940e 2371 	CALL __GETW1PF
001c93 87e8      	STD  Y+8,R30
001c94 87f9      	STD  Y+8+1,R31
001c95 81ee      	LDD  R30,Y+6
001c96 81ff      	LDD  R31,Y+6+1
001c97 9632      	ADIW R30,2
001c98 83ee      	STD  Y+6,R30
001c99 83ff      	STD  Y+6+1,R31
                 _0x200005A:
001c9a 85e8      	LDD  R30,Y+8
001c9b 85f9      	LDD  R31,Y+8+1
001c9c 85aa      	LDD  R26,Y+10
001c9d 85bb      	LDD  R27,Y+10+1
001c9e 17ae      	CP   R26,R30
001c9f 07bf      	CPC  R27,R31
001ca0 f050      	BRLO _0x200005C
001ca1 5f2f      	SUBI R18,-LOW(1)
001ca2 85a8      	LDD  R26,Y+8
001ca3 85b9      	LDD  R27,Y+8+1
001ca4 85ea      	LDD  R30,Y+10
001ca5 85fb      	LDD  R31,Y+10+1
001ca6 1bea      	SUB  R30,R26
001ca7 0bfb      	SBC  R31,R27
001ca8 87ea      	STD  Y+10,R30
001ca9 87fb      	STD  Y+10+1,R31
001caa cfef      	RJMP _0x200005A
                 _0x200005C:
001cab 332a      	CPI  R18,58
001cac f028      	BRLO _0x200005D
001cad ff03      	SBRS R16,3
001cae c002      	RJMP _0x200005E
001caf 5f29      	SUBI R18,-LOW(7)
001cb0 c001      	RJMP _0x200005F
                 _0x200005E:
001cb1 5d29      	SUBI R18,-LOW(39)
                 _0x200005F:
                 _0x200005D:
001cb2 fd04      	SBRC R16,4
001cb3 c01a      	RJMP _0x2000061
001cb4 3321      	CPI  R18,49
001cb5 f420      	BRSH _0x2000063
001cb6 85a8      	LDD  R26,Y+8
001cb7 85b9      	LDD  R27,Y+8+1
001cb8 9711      	SBIW R26,1
001cb9 f409      	BRNE _0x2000062
                 _0x2000063:
001cba c009      	RJMP _0x20000CD
                 _0x2000062:
001cbb 1753      	CP   R21,R19
001cbc f010      	BRLO _0x2000067
001cbd ff00      	SBRS R16,0
001cbe c001      	RJMP _0x2000068
                 _0x2000067:
001cbf c013      	RJMP _0x2000066
                 _0x2000068:
001cc0 e220      	LDI  R18,LOW(32)
001cc1 ff07      	SBRS R16,7
001cc2 c00b      	RJMP _0x2000069
001cc3 e320      	LDI  R18,LOW(48)
                 _0x20000CD:
001cc4 6100      	ORI  R16,LOW(16)
001cc5 ff02      	SBRS R16,2
001cc6 c007      	RJMP _0x200006A
001cc7 7f0b      	ANDI R16,LOW(251)
001cc8 934a      	ST   -Y,R20
001cc9 940e 219d 	CALL SUBOPT_0x6E
001ccb 3050      	CPI  R21,0
001ccc f009      	BREQ _0x200006B
001ccd 5051      	SUBI R21,LOW(1)
                 _0x200006B:
                 _0x200006A:
                 _0x2000069:
                 _0x2000061:
001cce 940e 2190 	CALL SUBOPT_0x6C
001cd0 3050      	CPI  R21,0
001cd1 f009      	BREQ _0x200006C
001cd2 5051      	SUBI R21,LOW(1)
                 _0x200006C:
                 _0x2000066:
001cd3 5031      	SUBI R19,LOW(1)
001cd4 85a8      	LDD  R26,Y+8
001cd5 85b9      	LDD  R27,Y+8+1
001cd6 9712      	SBIW R26,2
001cd7 f008      	BRLO _0x2000059
001cd8 cfb5      	RJMP _0x2000058
                 _0x2000059:
                 _0x2000056:
001cd9 ff00      	SBRS R16,0
001cda c008      	RJMP _0x200006D
                 _0x200006E:
001cdb 3050      	CPI  R21,0
001cdc f031      	BREQ _0x2000070
001cdd 5051      	SUBI R21,LOW(1)
001cde e2e0      	LDI  R30,LOW(32)
001cdf 93ea      	ST   -Y,R30
001ce0 940e 219d 	CALL SUBOPT_0x6E
001ce2 cff8      	RJMP _0x200006E
                 _0x2000070:
                 _0x200006D:
                 _0x2000071:
                 _0x2000030:
                 _0x20000CC:
001ce3 e010      	LDI  R17,LOW(0)
                 _0x200001B:
001ce4 ceda      	RJMP _0x2000016
                 _0x2000018:
001ce5 85ac      	LDD  R26,Y+12
001ce6 85bd      	LDD  R27,Y+12+1
001ce7 940e 236d 	CALL __GETW1P
001ce9 940e 23ba 	CALL __LOADLOCR6
001ceb 9664      	ADIW R28,20
001cec 9508      	RET
                 ; .FEND
                 _sprintf:
                 ; .FSTART _sprintf
001ced 92ff      	PUSH R15
001cee 2ef8      	MOV  R15,R24
001cef 9726      	SBIW R28,6
001cf0 940e 23b5 	CALL __SAVELOCR4
001cf2 940e 21ab 	CALL SUBOPT_0x70
001cf4 9730      	SBIW R30,0
001cf5 f419      	BRNE _0x2000072
001cf6 efef      	LDI  R30,LOW(65535)
001cf7 efff      	LDI  R31,HIGH(65535)
001cf8 c023      	RJMP _0x20C0001
                 _0x2000072:
001cf9 01de      	MOVW R26,R28
001cfa 9616      	ADIW R26,6
001cfb 940e 2294 	CALL __ADDW2R15
001cfd 018d      	MOVW R16,R26
001cfe 940e 21ab 	CALL SUBOPT_0x70
001d00 83ee      	STD  Y+6,R30
001d01 83ff      	STD  Y+6+1,R31
001d02 e0e0      	LDI  R30,LOW(0)
001d03 87e8      	STD  Y+8,R30
001d04 87e9      	STD  Y+8+1,R30
001d05 01de      	MOVW R26,R28
001d06 961a      	ADIW R26,10
001d07 940e 2294 	CALL __ADDW2R15
001d09 940e 236d 	CALL __GETW1P
001d0b 93fa      	ST   -Y,R31
001d0c 93ea      	ST   -Y,R30
001d0d 931a      	ST   -Y,R17
001d0e 930a      	ST   -Y,R16
001d0f e7e9      	LDI  R30,LOW(_put_buff_G100)
001d10 e1fb      	LDI  R31,HIGH(_put_buff_G100)
001d11 93fa      	ST   -Y,R31
001d12 93ea      	ST   -Y,R30
001d13 01de      	MOVW R26,R28
001d14 961a      	ADIW R26,10
001d15 de9d      	RCALL __print_G100
001d16 019f      	MOVW R18,R30
001d17 81ae      	LDD  R26,Y+6
001d18 81bf      	LDD  R27,Y+6+1
001d19 e0e0      	LDI  R30,LOW(0)
001d1a 93ec      	ST   X,R30
001d1b 01f9      	MOVW R30,R18
                 _0x20C0001:
001d1c 940e 23bc 	CALL __LOADLOCR4
001d1e 962a      	ADIW R28,10
001d1f 90ff      	POP  R15
001d20 9508      	RET
                 ; .FEND
                 	#ifndef __SLEEP_DEFINED__
                 	#endif
                 
                 	.DSEG
                 
                 	.CSEG
                 _twi_int_handler:
                 ; .FSTART _twi_int_handler
001d21 920a      	ST   -Y,R0
001d22 921a      	ST   -Y,R1
001d23 92fa      	ST   -Y,R15
001d24 936a      	ST   -Y,R22
001d25 937a      	ST   -Y,R23
001d26 938a      	ST   -Y,R24
001d27 939a      	ST   -Y,R25
001d28 93aa      	ST   -Y,R26
001d29 93ba      	ST   -Y,R27
001d2a 93ea      	ST   -Y,R30
001d2b 93fa      	ST   -Y,R31
001d2c b7ef      	IN   R30,SREG
001d2d 93ea      	ST   -Y,R30
001d2e 940e 23b3 	CALL __SAVELOCR6
001d30 9110 0361 	LDS  R17,_twi_rx_index
001d32 9100 0360 	LDS  R16,_twi_tx_index
001d34 9130 0463 	LDS  R19,_bytes_to_tx_G101
001d36 9120 0362 	LDS  R18,_twi_result
001d38 2fe1      	MOV  R30,R17
001d39 91a0 0464 	LDS  R26,_twi_rx_buffer_G101
001d3b 91b0 0465 	LDS  R27,_twi_rx_buffer_G101+1
001d3d e0f0      	LDI  R31,0
001d3e 0fea      	ADD  R30,R26
001d3f 1ffb      	ADC  R31,R27
001d40 01af      	MOVW R20,R30
001d41 b1e1      	IN   R30,0x1
001d42 7fe8      	ANDI R30,LOW(0xF8)
001d43 30e8      	CPI  R30,LOW(0x8)
001d44 f411      	BRNE _0x2020017
001d45 e020      	LDI  R18,LOW(0)
001d46 c002      	RJMP _0x2020018
                 _0x2020017:
001d47 31e0      	CPI  R30,LOW(0x10)
001d48 f419      	BRNE _0x2020019
                 _0x2020018:
001d49 91e0 0460 	LDS  R30,_slave_address_G101
001d4b c010      	RJMP _0x2020067
                 _0x2020019:
001d4c 31e8      	CPI  R30,LOW(0x18)
001d4d f011      	BREQ _0x202001D
001d4e 32e8      	CPI  R30,LOW(0x28)
001d4f f521      	BRNE _0x202001E
                 _0x202001D:
001d50 1703      	CP   R16,R19
001d51 f480      	BRSH _0x202001F
001d52 2fe0      	MOV  R30,R16
001d53 5f0f      	SUBI R16,-1
001d54 91a0 0461 	LDS  R26,_twi_tx_buffer_G101
001d56 91b0 0462 	LDS  R27,_twi_tx_buffer_G101+1
001d58 e0f0      	LDI  R31,0
001d59 0fae      	ADD  R26,R30
001d5a 1fbf      	ADC  R27,R31
001d5b 91ec      	LD   R30,X
                 _0x2020067:
001d5c b9e3      	OUT  0x3,R30
001d5d b7e6      	IN   R30,0x36
001d5e 70ef      	ANDI R30,LOW(0xF)
001d5f 68e0      	ORI  R30,0x80
001d60 bfe6      	OUT  0x36,R30
001d61 c011      	RJMP _0x2020020
                 _0x202001F:
001d62 91e0 0466 	LDS  R30,_bytes_to_rx_G101
001d64 171e      	CP   R17,R30
001d65 f460      	BRSH _0x2020021
001d66 91e0 0460 	LDS  R30,_slave_address_G101
001d68 60e1      	ORI  R30,1
001d69 93e0 0460 	STS  _slave_address_G101,R30
001d6b 94e8      	CLT
001d6c f830      	BLD  R3,0
001d6d b7e6      	IN   R30,0x36
001d6e 70ef      	ANDI R30,LOW(0xF)
001d6f 6ae0      	ORI  R30,LOW(0xA0)
001d70 bfe6      	OUT  0x36,R30
001d71 c0fb      	RJMP _0x2020016
                 _0x2020021:
001d72 c033      	RJMP _0x2020022
                 _0x2020020:
001d73 c0f9      	RJMP _0x2020016
                 _0x202001E:
001d74 35e0      	CPI  R30,LOW(0x50)
001d75 f429      	BRNE _0x2020023
001d76 b1e3      	IN   R30,0x3
001d77 01da      	MOVW R26,R20
001d78 93ec      	ST   X,R30
001d79 5f1f      	SUBI R17,-LOW(1)
001d7a c002      	RJMP _0x2020024
                 _0x2020023:
001d7b 34e0      	CPI  R30,LOW(0x40)
001d7c f471      	BRNE _0x2020025
                 _0x2020024:
001d7d 91e0 0466 	LDS  R30,_bytes_to_rx_G101
001d7f 50e1      	SUBI R30,LOW(1)
001d80 171e      	CP   R17,R30
001d81 f020      	BRLO _0x2020026
001d82 b7e6      	IN   R30,0x36
001d83 70ef      	ANDI R30,LOW(0xF)
001d84 68e0      	ORI  R30,0x80
001d85 c003      	RJMP _0x2020068
                 _0x2020026:
001d86 b7e6      	IN   R30,0x36
001d87 70ef      	ANDI R30,LOW(0xF)
001d88 6ce0      	ORI  R30,LOW(0xC0)
                 _0x2020068:
001d89 bfe6      	OUT  0x36,R30
001d8a c0e2      	RJMP _0x2020016
                 _0x2020025:
001d8b 35e8      	CPI  R30,LOW(0x58)
001d8c f429      	BRNE _0x2020028
001d8d b1e3      	IN   R30,0x3
001d8e 01da      	MOVW R26,R20
001d8f 93ec      	ST   X,R30
001d90 5f1f      	SUBI R17,-LOW(1)
001d91 c002      	RJMP _0x2020029
                 _0x2020028:
001d92 32e0      	CPI  R30,LOW(0x20)
001d93 f409      	BRNE _0x202002A
                 _0x2020029:
001d94 c002      	RJMP _0x202002B
                 _0x202002A:
001d95 33e0      	CPI  R30,LOW(0x30)
001d96 f409      	BRNE _0x202002C
                 _0x202002B:
001d97 c002      	RJMP _0x202002D
                 _0x202002C:
001d98 34e8      	CPI  R30,LOW(0x48)
001d99 f469      	BRNE _0x202002E
                 _0x202002D:
001d9a 3020      	CPI  R18,0
001d9b f451      	BRNE _0x202002F
001d9c fe30      	SBRS R3,0
001d9d c003      	RJMP _0x2020030
001d9e 1703      	CP   R16,R19
001d9f f028      	BRLO _0x2020032
001da0 c005      	RJMP _0x2020033
                 _0x2020030:
001da1 91e0 0466 	LDS  R30,_bytes_to_rx_G101
001da3 171e      	CP   R17,R30
001da4 f408      	BRSH _0x2020034
                 _0x2020032:
001da5 e024      	LDI  R18,LOW(4)
                 _0x2020034:
                 _0x2020033:
                 _0x202002F:
                 _0x2020022:
001da6 c0c0      	RJMP _0x2020069
                 _0x202002E:
001da7 33e8      	CPI  R30,LOW(0x38)
001da8 f429      	BRNE _0x2020037
001da9 e022      	LDI  R18,LOW(2)
001daa b7e6      	IN   R30,0x36
001dab 70ef      	ANDI R30,LOW(0xF)
001dac 68e0      	ORI  R30,0x80
001dad c0bc      	RJMP _0x202006A
                 _0x2020037:
001dae 36e8      	CPI  R30,LOW(0x68)
001daf f011      	BREQ _0x202003A
001db0 37e8      	CPI  R30,LOW(0x78)
001db1 f411      	BRNE _0x202003B
                 _0x202003A:
001db2 e022      	LDI  R18,LOW(2)
001db3 c005      	RJMP _0x202003C
                 _0x202003B:
001db4 36e0      	CPI  R30,LOW(0x60)
001db5 f011      	BREQ _0x202003F
001db6 37e0      	CPI  R30,LOW(0x70)
001db7 f491      	BRNE _0x2020040
                 _0x202003F:
001db8 e020      	LDI  R18,LOW(0)
                 _0x202003C:
001db9 e010      	LDI  R17,LOW(0)
001dba 94e8      	CLT
001dbb f830      	BLD  R3,0
001dbc 91e0 0467 	LDS  R30,_twi_rx_buffer_size_G101
001dbe 30e0      	CPI  R30,0
001dbf f429      	BRNE _0x2020041
001dc0 e021      	LDI  R18,LOW(1)
001dc1 b7e6      	IN   R30,0x36
001dc2 70ef      	ANDI R30,LOW(0xF)
001dc3 68e0      	ORI  R30,0x80
001dc4 c003      	RJMP _0x202006B
                 _0x2020041:
001dc5 b7e6      	IN   R30,0x36
001dc6 70ef      	ANDI R30,LOW(0xF)
001dc7 6ce0      	ORI  R30,LOW(0xC0)
                 _0x202006B:
001dc8 bfe6      	OUT  0x36,R30
001dc9 c0a3      	RJMP _0x2020016
                 _0x2020040:
001dca 38e0      	CPI  R30,LOW(0x80)
001dcb f011      	BREQ _0x2020044
001dcc 39e0      	CPI  R30,LOW(0x90)
001dcd f529      	BRNE _0x2020045
                 _0x2020044:
001dce fe30      	SBRS R3,0
001dcf c002      	RJMP _0x2020046
001dd0 e021      	LDI  R18,LOW(1)
001dd1 c095      	RJMP _0x2020047
                 _0x2020046:
001dd2 b1e3      	IN   R30,0x3
001dd3 01da      	MOVW R26,R20
001dd4 93ec      	ST   X,R30
001dd5 5f1f      	SUBI R17,-LOW(1)
001dd6 91e0 0467 	LDS  R30,_twi_rx_buffer_size_G101
001dd8 171e      	CP   R17,R30
001dd9 f4b0      	BRSH _0x2020048
001dda 91e0 0468 	LDS  R30,_twi_slave_rx_handler_G101
001ddc 91f0 0469 	LDS  R31,_twi_slave_rx_handler_G101+1
001dde 9730      	SBIW R30,0
001ddf f411      	BRNE _0x2020049
001de0 e026      	LDI  R18,LOW(6)
001de1 c085      	RJMP _0x2020047
                 _0x2020049:
001de2 e0a0      	LDI  R26,LOW(0)
                +
001de3 91e0 0468+LDS R30 , _twi_slave_rx_handler_G101 + ( 0 )
001de5 91f0 0469+LDS R31 , _twi_slave_rx_handler_G101 + ( 0 ) + 1
001de7 9509     +ICALL
                 	__CALL1MN _twi_slave_rx_handler_G101,0
001de8 30e0      	CPI  R30,0
001de9 f029      	BREQ _0x202004A
001dea b7e6      	IN   R30,0x36
001deb 70ef      	ANDI R30,LOW(0xF)
001dec 6ce0      	ORI  R30,LOW(0xC0)
001ded bfe6      	OUT  0x36,R30
001dee c07e      	RJMP _0x2020016
                 _0x202004A:
001def c002      	RJMP _0x202004B
                 _0x2020048:
001df0 9468      	SET
001df1 f830      	BLD  R3,0
                 _0x202004B:
001df2 c002      	RJMP _0x202004C
                 _0x2020045:
001df3 38e8      	CPI  R30,LOW(0x88)
001df4 f409      	BRNE _0x202004D
                 _0x202004C:
001df5 c002      	RJMP _0x202004E
                 _0x202004D:
001df6 39e8      	CPI  R30,LOW(0x98)
001df7 f429      	BRNE _0x202004F
                 _0x202004E:
001df8 b7e6      	IN   R30,0x36
001df9 70ef      	ANDI R30,LOW(0xF)
001dfa 68e0      	ORI  R30,0x80
001dfb bfe6      	OUT  0x36,R30
001dfc c070      	RJMP _0x2020016
                 _0x202004F:
001dfd 3ae0      	CPI  R30,LOW(0xA0)
001dfe f4a9      	BRNE _0x2020050
001dff b7e6      	IN   R30,0x36
001e00 70ef      	ANDI R30,LOW(0xF)
001e01 6ce0      	ORI  R30,LOW(0xC0)
001e02 bfe6      	OUT  0x36,R30
001e03 9468      	SET
001e04 f831      	BLD  R3,1
001e05 91e0 0468 	LDS  R30,_twi_slave_rx_handler_G101
001e07 91f0 0469 	LDS  R31,_twi_slave_rx_handler_G101+1
001e09 9730      	SBIW R30,0
001e0a f039      	BREQ _0x2020051
001e0b e0a1      	LDI  R26,LOW(1)
                +
001e0c 91e0 0468+LDS R30 , _twi_slave_rx_handler_G101 + ( 0 )
001e0e 91f0 0469+LDS R31 , _twi_slave_rx_handler_G101 + ( 0 ) + 1
001e10 9509     +ICALL
                 	__CALL1MN _twi_slave_rx_handler_G101,0
001e11 c001      	RJMP _0x2020052
                 _0x2020051:
001e12 e026      	LDI  R18,LOW(6)
                 _0x2020052:
001e13 c059      	RJMP _0x2020016
                 _0x2020050:
001e14 3be0      	CPI  R30,LOW(0xB0)
001e15 f411      	BRNE _0x2020053
001e16 e022      	LDI  R18,LOW(2)
001e17 c002      	RJMP _0x2020054
                 _0x2020053:
001e18 3ae8      	CPI  R30,LOW(0xA8)
001e19 f4b9      	BRNE _0x2020055
                 _0x2020054:
001e1a 91e0 046a 	LDS  R30,_twi_slave_tx_handler_G101
001e1c 91f0 046b 	LDS  R31,_twi_slave_tx_handler_G101+1
001e1e 9730      	SBIW R30,0
001e1f f059      	BREQ _0x2020056
001e20 e0a0      	LDI  R26,LOW(0)
                +
001e21 91e0 046a+LDS R30 , _twi_slave_tx_handler_G101 + ( 0 )
001e23 91f0 046b+LDS R31 , _twi_slave_tx_handler_G101 + ( 0 ) + 1
001e25 9509     +ICALL
                 	__CALL1MN _twi_slave_tx_handler_G101,0
001e26 2f3e      	MOV  R19,R30
001e27 30e0      	CPI  R30,0
001e28 f011      	BREQ _0x2020058
001e29 e020      	LDI  R18,LOW(0)
001e2a c002      	RJMP _0x2020059
                 _0x2020056:
                 _0x2020058:
001e2b e026      	LDI  R18,LOW(6)
001e2c c03a      	RJMP _0x2020047
                 _0x2020059:
001e2d e000      	LDI  R16,LOW(0)
001e2e 94e8      	CLT
001e2f f830      	BLD  R3,0
001e30 c002      	RJMP _0x202005A
                 _0x2020055:
001e31 3be8      	CPI  R30,LOW(0xB8)
001e32 f4e1      	BRNE _0x202005B
                 _0x202005A:
001e33 fe30      	SBRS R3,0
001e34 c002      	RJMP _0x202005C
001e35 e021      	LDI  R18,LOW(1)
001e36 c030      	RJMP _0x2020047
                 _0x202005C:
001e37 2fe0      	MOV  R30,R16
001e38 5f0f      	SUBI R16,-1
001e39 91a0 0461 	LDS  R26,_twi_tx_buffer_G101
001e3b 91b0 0462 	LDS  R27,_twi_tx_buffer_G101+1
001e3d e0f0      	LDI  R31,0
001e3e 0fae      	ADD  R26,R30
001e3f 1fbf      	ADC  R27,R31
001e40 91ec      	LD   R30,X
001e41 b9e3      	OUT  0x3,R30
001e42 1703      	CP   R16,R19
001e43 f420      	BRSH _0x202005D
001e44 b7e6      	IN   R30,0x36
001e45 70ef      	ANDI R30,LOW(0xF)
001e46 6ce0      	ORI  R30,LOW(0xC0)
001e47 c005      	RJMP _0x202006C
                 _0x202005D:
001e48 9468      	SET
001e49 f830      	BLD  R3,0
001e4a b7e6      	IN   R30,0x36
001e4b 70ef      	ANDI R30,LOW(0xF)
001e4c 68e0      	ORI  R30,0x80
                 _0x202006C:
001e4d bfe6      	OUT  0x36,R30
001e4e c01e      	RJMP _0x2020016
                 _0x202005B:
001e4f 3ce0      	CPI  R30,LOW(0xC0)
001e50 f011      	BREQ _0x2020060
001e51 3ce8      	CPI  R30,LOW(0xC8)
001e52 f489      	BRNE _0x2020061
                 _0x2020060:
001e53 b7e6      	IN   R30,0x36
001e54 70ef      	ANDI R30,LOW(0xF)
001e55 6ce0      	ORI  R30,LOW(0xC0)
001e56 bfe6      	OUT  0x36,R30
001e57 91e0 046a 	LDS  R30,_twi_slave_tx_handler_G101
001e59 91f0 046b 	LDS  R31,_twi_slave_tx_handler_G101+1
001e5b 9730      	SBIW R30,0
001e5c f031      	BREQ _0x2020062
001e5d e0a1      	LDI  R26,LOW(1)
                +
001e5e 91e0 046a+LDS R30 , _twi_slave_tx_handler_G101 + ( 0 )
001e60 91f0 046b+LDS R31 , _twi_slave_tx_handler_G101 + ( 0 ) + 1
001e62 9509     +ICALL
                 	__CALL1MN _twi_slave_tx_handler_G101,0
                 _0x2020062:
001e63 c007      	RJMP _0x2020035
                 _0x2020061:
001e64 30e0      	CPI  R30,0
001e65 f439      	BRNE _0x2020016
001e66 e023      	LDI  R18,LOW(3)
                 _0x2020047:
                 _0x2020069:
001e67 b7e6      	IN   R30,0x36
001e68 70ef      	ANDI R30,LOW(0xF)
001e69 6de0      	ORI  R30,LOW(0xD0)
                 _0x202006A:
001e6a bfe6      	OUT  0x36,R30
                 _0x2020035:
001e6b 9468      	SET
001e6c f831      	BLD  R3,1
                 _0x2020016:
001e6d 9310 0361 	STS  _twi_rx_index,R17
001e6f 9300 0360 	STS  _twi_tx_index,R16
001e71 9320 0362 	STS  _twi_result,R18
001e73 9330 0463 	STS  _bytes_to_tx_G101,R19
001e75 940e 23ba 	CALL __LOADLOCR6
001e77 9626      	ADIW R28,6
001e78 91e9      	LD   R30,Y+
001e79 bfef      	OUT  SREG,R30
001e7a 91f9      	LD   R31,Y+
001e7b 91e9      	LD   R30,Y+
001e7c 91b9      	LD   R27,Y+
001e7d 91a9      	LD   R26,Y+
001e7e 9199      	LD   R25,Y+
001e7f 9189      	LD   R24,Y+
001e80 9179      	LD   R23,Y+
001e81 9169      	LD   R22,Y+
001e82 90f9      	LD   R15,Y+
001e83 9019      	LD   R1,Y+
001e84 9009      	LD   R0,Y+
001e85 9518      	RETI
                 ; .FEND
                 
                 	.CSEG
                 
                 	.CSEG
                 _abs:
                 ; .FSTART _abs
001e86 93ba      	ST   -Y,R27
001e87 93aa      	ST   -Y,R26
001e88 91e9          ld   r30,y+
001e89 91f9          ld   r31,y+
001e8a 9730          sbiw r30,0
001e8b f41a          brpl __abs0
001e8c 95e0          com  r30
001e8d 95f0          com  r31
001e8e 9631          adiw r30,1
                 __abs0:
001e8f 9508          ret
                 ; .FEND
                 
                 	.DSEG
                 
                 	.CSEG
                 
                 	.CSEG
                 _strcat:
                 ; .FSTART _strcat
001e90 93ba      	ST   -Y,R27
001e91 93aa      	ST   -Y,R26
001e92 91e9          ld   r30,y+
001e93 91f9          ld   r31,y+
001e94 91a9          ld   r26,y+
001e95 91b9          ld   r27,y+
001e96 01cd          movw r24,r26
                 strcat0:
001e97 916d          ld   r22,x+
001e98 2366          tst  r22
001e99 f7e9          brne strcat0
001e9a 9711          sbiw r26,1
                 strcat1:
001e9b 9161          ld   r22,z+
001e9c 936d          st   x+,r22
001e9d 2366          tst  r22
001e9e f7e1          brne strcat1
001e9f 01fc          movw r30,r24
001ea0 9508          ret
                 ; .FEND
                 _strlen:
                 ; .FSTART _strlen
001ea1 93ba      	ST   -Y,R27
001ea2 93aa      	ST   -Y,R26
001ea3 91a9          ld   r26,y+
001ea4 91b9          ld   r27,y+
001ea5 27ee          clr  r30
001ea6 27ff          clr  r31
                 strlen0:
001ea7 916d          ld   r22,x+
001ea8 2366          tst  r22
001ea9 f011          breq strlen1
001eaa 9631          adiw r30,1
001eab cffb          rjmp strlen0
                 strlen1:
001eac 9508          ret
                 ; .FEND
                 _strlenf:
                 ; .FSTART _strlenf
001ead 93ba      	ST   -Y,R27
001eae 93aa      	ST   -Y,R26
001eaf 27aa          clr  r26
001eb0 27bb          clr  r27
001eb1 91e9          ld   r30,y+
001eb2 91f9          ld   r31,y+
                 strlenf0:
001eb3 9005      	lpm  r0,z+
001eb4 2000          tst  r0
001eb5 f011          breq strlenf1
001eb6 9611          adiw r26,1
001eb7 cffb          rjmp strlenf0
                 strlenf1:
001eb8 01fd          movw r30,r26
001eb9 9508          ret
                 ; .FEND
                 
                 	.CSEG
                 
                 	.DSEG
                 _twi_tx_index:
000360           	.BYTE 0x1
                 _twi_rx_index:
000361           	.BYTE 0x1
                 _twi_result:
000362           	.BYTE 0x1
                 _Font_11x18:
000363           	.BYTE 0x4
                 _numMenu:
000367           	.BYTE 0x1
                 _numSet:
000368           	.BYTE 0x1
                 _relOut:
000369           	.BYTE 0x4
                 _analogOut:
00036d           	.BYTE 0x4
                 _dacU:
000371           	.BYTE 0x4
                 _buff:
000375           	.BYTE 0x28
                 _familycode:
00039d           	.BYTE 0x1B
                 _clock_buffer:
0003b8           	.BYTE 0x7
                 _alarm:
0003bf           	.BYTE 0x4
                 _max_X:
0003c3           	.BYTE 0x2
                 _max_Y:
0003c5           	.BYTE 0x2
                 _fillScreen:
0003c7           	.BYTE 0x2
                 _pvT:
0003c9           	.BYTE 0x2
                 _offsetT:
0003cb           	.BYTE 0x2
                 _pvRH:
0003cd           	.BYTE 0x2
                 _offsetRH:
0003cf           	.BYTE 0x2
                 _pvCO2:
0003d1           	.BYTE 0x2
                 _pvPH:
0003d3           	.BYTE 0x2
                 _newval:
0003d5           	.BYTE 0xA
                 _ptr_char:
0003df           	.BYTE 0x2
                 _t:
0003e1           	.BYTE 0x6
                 _ds:
0003e7           	.BYTE 0x8
                 _in:
0003ef           	.BYTE 0x4
                 _out:
0003f3           	.BYTE 0x4
                 _analog:
0003f7           	.BYTE 0x4
                 _relay:
0003fb           	.BYTE 0x4
                 
                 	.ESEG
                 _set:
000000 0e
000001 01
000002 0a
000003 00        	.DB  0xE,0x1,0xA,0x0
000004 05
000005 00
000006 00
000007 00        	.DB  0x5,0x0,0x0,0x0
000008 37
000009 00
00000a 05
00000b 00        	.DB  0x37,0x0,0x5,0x0
00000c 05
00000d 00
00000e 00
00000f 00        	.DB  0x5,0x0,0x0,0x0
000010 fa
000011 00
000012 08
000013 00        	.DB  0xFA,0x0,0x8,0x0
000014 04
000015 00
000016 00
000017 00        	.DB  0x4,0x0,0x0,0x0
000018 05
000019 00
00001a 0a
00001b 00        	.DB  0x5,0x0,0xA,0x0
00001c 01
00001d 00
00001e 00
00001f 00        	.DB  0x1,0x0,0x0,0x0
000020 00
000021 00
000022 00
000023 00        	.DB  0x0,0x0,0x0,0x0
000024 00
000025 00
000026 00
000027 00        	.DB  0x0,0x0,0x0,0x0
                 
                 	.DSEG
                 _err_S0000013000:
0003ff           	.BYTE 0x1
                 _buttonCount:
000400           	.BYTE 0x1
                 _plusCount:
000401           	.BYTE 0x1
                 _point_X:
000402           	.BYTE 0x2
                 _point_Y:
000404           	.BYTE 0x2
                 _point_Z:
000406           	.BYTE 0x2
                 _bottom_Y:
000408           	.BYTE 0x2
                 _left_X:
00040a           	.BYTE 0x2
                 _buttons:
00040c           	.BYTE 0x18
                 _plus:
000424           	.BYTE 0x30
                 _txt:
000454           	.BYTE 0xA
                 _count1_S000002B000:
00045e           	.BYTE 0x2
                 _slave_address_G101:
000460           	.BYTE 0x1
                 _twi_tx_buffer_G101:
000461           	.BYTE 0x2
                 _bytes_to_tx_G101:
000463           	.BYTE 0x1
                 _twi_rx_buffer_G101:
000464           	.BYTE 0x2
                 _bytes_to_rx_G101:
000466           	.BYTE 0x1
                 _twi_rx_buffer_size_G101:
000467           	.BYTE 0x1
                 _twi_slave_rx_handler_G101:
000468           	.BYTE 0x2
                 _twi_slave_tx_handler_G101:
00046a           	.BYTE 0x2
                 __seed_G103:
00046c           	.BYTE 0x4
                 
                 	.CSEG
                 ;OPTIMIZER ADDED SUBROUTINE, CALLED 2 TIMES, CODE SIZE REDUCTION:10 WORDS
                 SUBOPT_0x0:
001eba 93aa      	ST   -Y,R26
001ebb b3eb      	IN   R30,0x1B
001ebc 7fec      	ANDI R30,LOW(0xFC)
001ebd 2fae      	MOV  R26,R30
001ebe 81e8      	LD   R30,Y
001ebf 70e3      	ANDI R30,LOW(0x3)
001ec0 2bea      	OR   R30,R26
001ec1 bbeb      	OUT  0x1B,R30
001ec2 b3e5      	IN   R30,0x15
001ec3 70e3      	ANDI R30,LOW(0x3)
001ec4 2fae      	MOV  R26,R30
001ec5 81e8      	LD   R30,Y
001ec6 7fec      	ANDI R30,LOW(0xFC)
001ec7 2bea      	OR   R30,R26
001ec8 bbe5      	OUT  0x15,R30
001ec9 9508      	RET
                 
                 ;OPTIMIZER ADDED SUBROUTINE, CALLED 3 TIMES, CODE SIZE REDUCTION:7 WORDS
                 SUBOPT_0x1:
001eca 81ab      	LDD  R26,Y+3
001ecb 940e 0d74 	CALL _ILI9341_WriteByte
001ecd 81ea      	LDD  R30,Y+2
001ece 2fae      	MOV  R26,R30
001ecf 940c 0d74 	JMP  _ILI9341_WriteByte
                 
                 ;OPTIMIZER ADDED SUBROUTINE, CALLED 2 TIMES, CODE SIZE REDUCTION:2 WORDS
                 SUBOPT_0x2:
001ed1 81a9      	LDD  R26,Y+1
001ed2 940e 0d74 	CALL _ILI9341_WriteByte
001ed4 81e8      	LD   R30,Y
001ed5 2fae      	MOV  R26,R30
001ed6 940c 0d74 	JMP  _ILI9341_WriteByte
                 
                 ;OPTIMIZER ADDED SUBROUTINE, CALLED 5 TIMES, CODE SIZE REDUCTION:5 WORDS
                 SUBOPT_0x3:
001ed8 81ee      	LDD  R30,Y+6
001ed9 81ff      	LDD  R31,Y+6+1
001eda 93fa      	ST   -Y,R31
001edb 93ea      	ST   -Y,R30
001edc 9508      	RET
                 
                 ;OPTIMIZER ADDED SUBROUTINE, CALLED 4 TIMES, CODE SIZE REDUCTION:6 WORDS
                 SUBOPT_0x4:
001edd 940e 0d80 	CALL _ILI9341_SetRow
001edf e2ac      	LDI  R26,LOW(44)
001ee0 940c 0d6c 	JMP  _ILI9341_WriteCommand
                 
                 ;OPTIMIZER ADDED SUBROUTINE, CALLED 3 TIMES, CODE SIZE REDUCTION:1 WORDS
                 SUBOPT_0x5:
001ee2 81ec      	LDD  R30,Y+4
001ee3 81fd      	LDD  R31,Y+4+1
001ee4 85a8      	LDD  R26,Y+8
001ee5 85b9      	LDD  R27,Y+8+1
001ee6 9508      	RET
                 
                 ;OPTIMIZER ADDED SUBROUTINE, CALLED 12 TIMES, CODE SIZE REDUCTION:19 WORDS
                 SUBOPT_0x6:
001ee7 85e8      	LDD  R30,Y+8
001ee8 85f9      	LDD  R31,Y+8+1
001ee9 93fa      	ST   -Y,R31
001eea 93ea      	ST   -Y,R30
001eeb 9508      	RET
                 
                 ;OPTIMIZER ADDED SUBROUTINE, CALLED 2 TIMES, CODE SIZE REDUCTION:2 WORDS
                 SUBOPT_0x7:
001eec 85e8      	LDD  R30,Y+8
001eed 85f9      	LDD  R31,Y+8+1
001eee 85ac      	LDD  R26,Y+12
001eef 85bd      	LDD  R27,Y+12+1
001ef0 0fae      	ADD  R26,R30
001ef1 1fbf      	ADC  R27,R31
001ef2 9711      	SBIW R26,1
001ef3 9508      	RET
                 
                 ;OPTIMIZER ADDED SUBROUTINE, CALLED 2 TIMES, CODE SIZE REDUCTION:1 WORDS
                 SUBOPT_0x8:
001ef4 93ba      	ST   -Y,R27
001ef5 93aa      	ST   -Y,R26
001ef6 931a      	ST   -Y,R17
001ef7 930a      	ST   -Y,R16
001ef8 cfee      	RJMP SUBOPT_0x6
                 
                 ;OPTIMIZER ADDED SUBROUTINE, CALLED 2 TIMES, CODE SIZE REDUCTION:1 WORDS
                 SUBOPT_0x9:
001ef9 81ae      	LDD  R26,Y+6
001efa 81bf      	LDD  R27,Y+6+1
001efb 940e 0dfb 	CALL _ILI9341_DrawHorizontalLine
001efd cfe9      	RJMP SUBOPT_0x6
                 
                 ;OPTIMIZER ADDED SUBROUTINE, CALLED 2 TIMES, CODE SIZE REDUCTION:1 WORDS
                 SUBOPT_0xA:
001efe 0fea      	ADD  R30,R26
001eff 1ffb      	ADC  R31,R27
001f00 93fa      	ST   -Y,R31
001f01 93ea      	ST   -Y,R30
001f02 cfe4      	RJMP SUBOPT_0x6
                 
                 ;OPTIMIZER ADDED SUBROUTINE, CALLED 4 TIMES, CODE SIZE REDUCTION:3 WORDS
                 SUBOPT_0xB:
001f03 0fee      	LSL  R30
001f04 1fff      	ROL  R31
001f05 0fea      	ADD  R30,R26
001f06 1ffb      	ADC  R31,R27
001f07 9508      	RET
                 
                 ;OPTIMIZER ADDED SUBROUTINE, CALLED 2 TIMES, CODE SIZE REDUCTION:1 WORDS
                 SUBOPT_0xC:
001f08 2766      	CLR  R22
001f09 2777      	CLR  R23
                +
001f0a 83ec     +STD Y + 4 , R30
001f0b 83fd     +STD Y + 4 + 1 , R31
001f0c 836e     +STD Y + 4 + 2 , R22
001f0d 837f     +STD Y + 4 + 3 , R23
                 	__PUTD1S 4
001f0e 9508      	RET
                 
                 ;OPTIMIZER ADDED SUBROUTINE, CALLED 5 TIMES, CODE SIZE REDUCTION:5 WORDS
                 SUBOPT_0xD:
001f0f 940e 237a 	CALL __GETD2S0
001f11 9508      	RET
                 
                 ;OPTIMIZER ADDED SUBROUTINE, CALLED 2 TIMES, CODE SIZE REDUCTION:27 WORDS
                 SUBOPT_0xE:
001f12 85ec      	LDD  R30,Y+12
001f13 e0f0      	LDI  R31,0
001f14 81a8      	LD   R26,Y
001f15 81b9      	LDD  R27,Y+1
001f16 940e 22ca 	CALL __MULW12U
001f18 8da8      	LDD  R26,Y+24
001f19 8db9      	LDD  R27,Y+24+1
001f1a 0fea      	ADD  R30,R26
001f1b 1ffb      	ADC  R31,R27
001f1c 93fa      	ST   -Y,R31
001f1d 93ea      	ST   -Y,R30
001f1e 85ee      	LDD  R30,Y+14
001f1f e0f0      	LDI  R31,0
001f20 85aa      	LDD  R26,Y+10
001f21 85bb      	LDD  R27,Y+10+1
001f22 940e 22ca 	CALL __MULW12U
001f24 8da8      	LDD  R26,Y+24
001f25 8db9      	LDD  R27,Y+24+1
001f26 0fea      	ADD  R30,R26
001f27 1ffb      	ADC  R31,R27
001f28 93fa      	ST   -Y,R31
001f29 93ea      	ST   -Y,R30
001f2a 89e8      	LDD  R30,Y+16
001f2b e0f0      	LDI  R31,0
001f2c 93fa      	ST   -Y,R31
001f2d 93ea      	ST   -Y,R30
001f2e 89ea      	LDD  R30,Y+18
001f2f e0f0      	LDI  R31,0
001f30 93fa      	ST   -Y,R31
001f31 93ea      	ST   -Y,R30
001f32 9508      	RET
                 
                 ;OPTIMIZER ADDED SUBROUTINE, CALLED 2 TIMES, CODE SIZE REDUCTION:7 WORDS
                 SUBOPT_0xF:
001f33 940e 2375 	CALL __GETD1S0
                +
001f35 5fef     +SUBI R30 , LOW ( - 1 )
001f36 4fff     +SBCI R31 , HIGH ( - 1 )
001f37 4f6f     +SBCI R22 , BYTE3 ( - 1 )
001f38 4f7f     +SBCI R23 , BYTE4 ( - 1 )
                 	__SUBD1N -1
001f39 940e 237f 	CALL __PUTD1S0
001f3b 9508      	RET
                 
                 ;OPTIMIZER ADDED SUBROUTINE, CALLED 8 TIMES, CODE SIZE REDUCTION:11 WORDS
                 SUBOPT_0x10:
001f3c 85ec      	LDD  R30,Y+12
001f3d 85fd      	LDD  R31,Y+12+1
001f3e 93fa      	ST   -Y,R31
001f3f 93ea      	ST   -Y,R30
001f40 9508      	RET
                 
                 ;OPTIMIZER ADDED SUBROUTINE, CALLED 4 TIMES, CODE SIZE REDUCTION:3 WORDS
                 SUBOPT_0x11:
001f41 85ee      	LDD  R30,Y+14
001f42 85ff      	LDD  R31,Y+14+1
001f43 89a8      	LDD  R26,Y+16
001f44 89b9      	LDD  R27,Y+16+1
001f45 9508      	RET
                 
                 ;OPTIMIZER ADDED SUBROUTINE, CALLED 4 TIMES, CODE SIZE REDUCTION:3 WORDS
                 SUBOPT_0x12:
001f46 85ea      	LDD  R30,Y+10
001f47 85fb      	LDD  R31,Y+10+1
001f48 85ac      	LDD  R26,Y+12
001f49 85bd      	LDD  R27,Y+12+1
001f4a 9508      	RET
                 
                 ;OPTIMIZER ADDED SUBROUTINE, CALLED 2 TIMES, CODE SIZE REDUCTION:7 WORDS
                 SUBOPT_0x13:
001f4b 93fa      	ST   -Y,R31
001f4c 93ea      	ST   -Y,R30
001f4d e0e0      	LDI  R30,LOW(0)
001f4e e0f0      	LDI  R31,HIGH(0)
001f4f 93fa      	ST   -Y,R31
001f50 93ea      	ST   -Y,R30
001f51 91a0 03c3 	LDS  R26,_max_X
001f53 91b0 03c4 	LDS  R27,_max_X+1
001f55 940c 0f34 	JMP  _constrain
                 
                 ;OPTIMIZER ADDED SUBROUTINE, CALLED 2 TIMES, CODE SIZE REDUCTION:5 WORDS
                 SUBOPT_0x14:
001f57 e0e0      	LDI  R30,LOW(0)
001f58 e0f0      	LDI  R31,HIGH(0)
001f59 93fa      	ST   -Y,R31
001f5a 93ea      	ST   -Y,R30
001f5b 91a0 03c5 	LDS  R26,_max_Y
001f5d 91b0 03c6 	LDS  R27,_max_Y+1
001f5f 940c 0f34 	JMP  _constrain
                 
                 ;OPTIMIZER ADDED SUBROUTINE, CALLED 5 TIMES, CODE SIZE REDUCTION:9 WORDS
                 SUBOPT_0x15:
001f61 940e 0d6c 	CALL _ILI9341_WriteCommand
001f63 e0a0      	LDI  R26,LOW(0)
001f64 940c 0d74 	JMP  _ILI9341_WriteByte
                 
                 ;OPTIMIZER ADDED SUBROUTINE, CALLED 39 TIMES, CODE SIZE REDUCTION:73 WORDS
                 SUBOPT_0x16:
001f66 e0e0      	LDI  R30,LOW(0)
001f67 e0f0      	LDI  R31,HIGH(0)
001f68 93fa      	ST   -Y,R31
001f69 93ea      	ST   -Y,R30
001f6a 9508      	RET
                 
                 ;OPTIMIZER ADDED SUBROUTINE, CALLED 3 TIMES, CODE SIZE REDUCTION:1 WORDS
                 SUBOPT_0x17:
001f6b 91a0 03c3 	LDS  R26,_max_X
001f6d 91b0 03c4 	LDS  R27,_max_X+1
001f6f 9508      	RET
                 
                 ;OPTIMIZER ADDED SUBROUTINE, CALLED 3 TIMES, CODE SIZE REDUCTION:1 WORDS
                 SUBOPT_0x18:
001f70 91a0 03c5 	LDS  R26,_max_Y
001f72 91b0 03c6 	LDS  R27,_max_Y+1
001f74 9508      	RET
                 
                 ;OPTIMIZER ADDED SUBROUTINE, CALLED 8 TIMES, CODE SIZE REDUCTION:11 WORDS
                 SUBOPT_0x19:
001f75 bfe6      	OUT  0x36,R30
001f76 940e 1037 	CALL _wait_int
001f78 30e0      	CPI  R30,0
001f79 9508      	RET
                 
                 ;OPTIMIZER ADDED SUBROUTINE, CALLED 3 TIMES, CODE SIZE REDUCTION:1 WORDS
                 SUBOPT_0x1A:
001f7a b9e3      	OUT  0x3,R30
001f7b e8e4      	LDI  R30,LOW(132)
001f7c cff8      	RJMP SUBOPT_0x19
                 
                 ;OPTIMIZER ADDED SUBROUTINE, CALLED 3 TIMES, CODE SIZE REDUCTION:5 WORDS
                 SUBOPT_0x1B:
001f7d 2fe1      	MOV  R30,R17
001f7e e0f0      	LDI  R31,0
001f7f 01de      	MOVW R26,R28
001f80 9616      	ADIW R26,6
001f81 0fae      	ADD  R26,R30
001f82 1fbf      	ADC  R27,R31
001f83 9508      	RET
                 
                 ;OPTIMIZER ADDED SUBROUTINE, CALLED 2 TIMES, CODE SIZE REDUCTION:1 WORDS
                 SUBOPT_0x1C:
001f84 e0b0      	LDI  R27,0
001f85 e0e0      	LDI  R30,LOW(256)
001f86 e0f1      	LDI  R31,HIGH(256)
001f87 940e 22f2 	CALL __MULW12
001f89 01df      	MOVW R26,R30
001f8a 9508      	RET
                 
                 ;OPTIMIZER ADDED SUBROUTINE, CALLED 3 TIMES, CODE SIZE REDUCTION:1 WORDS
                 SUBOPT_0x1D:
001f8b 93e0 03cd 	STS  _pvRH,R30
001f8d 93f0 03ce 	STS  _pvRH+1,R31
001f8f 9508      	RET
                 
                 ;OPTIMIZER ADDED SUBROUTINE, CALLED 4 TIMES, CODE SIZE REDUCTION:3 WORDS
                 SUBOPT_0x1E:
001f90 91a0 03cd 	LDS  R26,_pvRH
001f92 91b0 03ce 	LDS  R27,_pvRH+1
001f94 9508      	RET
                 
                 ;OPTIMIZER ADDED SUBROUTINE, CALLED 2 TIMES, CODE SIZE REDUCTION:3 WORDS
                 SUBOPT_0x1F:
001f95 01bf      	MOVW R22,R30
001f96 2fa1      	MOV  R26,R17
001f97 27bb      	CLR  R27
001f98 2fe2      	MOV  R30,R18
001f99 e0f0      	LDI  R31,0
001f9a 9635      	ADIW R30,5
001f9b 940e 22f2 	CALL __MULW12
001f9d 9508      	RET
                 
                 ;OPTIMIZER ADDED SUBROUTINE, CALLED 2 TIMES, CODE SIZE REDUCTION:1 WORDS
                 SUBOPT_0x20:
001f9e 01db      	MOVW R26,R22
001f9f 93ed      	ST   X+,R30
001fa0 93fc      	ST   X,R31
001fa1 e0a6      	LDI  R26,LOW(6)
001fa2 9f3a      	MUL  R19,R26
001fa3 01f0      	MOVW R30,R0
001fa4 9508      	RET
                 
                 ;OPTIMIZER ADDED SUBROUTINE, CALLED 3 TIMES, CODE SIZE REDUCTION:1 WORDS
                 SUBOPT_0x21:
001fa5 9722      	SBIW R28,2
001fa6 940e 23b3 	CALL __SAVELOCR6
001fa8 85ea      	LDD  R30,Y+10
001fa9 9508      	RET
                 
                 ;OPTIMIZER ADDED SUBROUTINE, CALLED 6 TIMES, CODE SIZE REDUCTION:7 WORDS
                 SUBOPT_0x22:
001faa 91e0 03c3 	LDS  R30,_max_X
001fac 91f0 03c4 	LDS  R31,_max_X+1
001fae 9508      	RET
                 
                 ;OPTIMIZER ADDED SUBROUTINE, CALLED 2 TIMES, CODE SIZE REDUCTION:1 WORDS
                 SUBOPT_0x23:
001faf 8140      	LD   R20,Z
001fb0 2755      	CLR  R21
001fb1 85ea      	LDD  R30,Y+10
001fb2 e0a6      	LDI  R26,LOW(6)
001fb3 9fea      	MUL  R30,R26
001fb4 01f0      	MOVW R30,R0
001fb5 9508      	RET
                 
                 ;OPTIMIZER ADDED SUBROUTINE, CALLED 2 TIMES, CODE SIZE REDUCTION:3 WORDS
                 SUBOPT_0x24:
001fb6 81e0      	LD   R30,Z
001fb7 e0f0      	LDI  R31,0
001fb8 83ee      	STD  Y+6,R30
001fb9 83ff      	STD  Y+6+1,R31
001fba 85ea      	LDD  R30,Y+10
001fbb e0a6      	LDI  R26,LOW(6)
001fbc 9fea      	MUL  R30,R26
001fbd 01f0      	MOVW R30,R0
001fbe 9508      	RET
                 
                 ;OPTIMIZER ADDED SUBROUTINE, CALLED 2 TIMES, CODE SIZE REDUCTION:1 WORDS
                 SUBOPT_0x25:
001fbf 8100      	LD   R16,Z
001fc0 8111      	LDD  R17,Z+1
001fc1 85ea      	LDD  R30,Y+10
001fc2 e0a6      	LDI  R26,LOW(6)
001fc3 9fea      	MUL  R30,R26
001fc4 01f0      	MOVW R30,R0
001fc5 9508      	RET
                 
                 ;OPTIMIZER ADDED SUBROUTINE, CALLED 4 TIMES, CODE SIZE REDUCTION:15 WORDS
                 SUBOPT_0x26:
001fc6 931a      	ST   -Y,R17
001fc7 930a      	ST   -Y,R16
001fc8 933a      	ST   -Y,R19
001fc9 932a      	ST   -Y,R18
001fca 935a      	ST   -Y,R21
001fcb 934a      	ST   -Y,R20
001fcc cf6f      	RJMP SUBOPT_0x10
                 
                 ;OPTIMIZER ADDED SUBROUTINE, CALLED 2 TIMES, CODE SIZE REDUCTION:2 WORDS
                 SUBOPT_0x27:
001fcd 01da      	MOVW R26,R20
001fce e0e2      	LDI  R30,LOW(2)
001fcf e0f0      	LDI  R31,HIGH(2)
001fd0 940e 230f 	CALL __DIVW21
001fd2 0fe0      	ADD  R30,R16
001fd3 1ff1      	ADC  R31,R17
001fd4 9508      	RET
                 
                 ;OPTIMIZER ADDED SUBROUTINE, CALLED 2 TIMES, CODE SIZE REDUCTION:5 WORDS
                 SUBOPT_0x28:
001fd5 81ae      	LDD  R26,Y+6
001fd6 81bf      	LDD  R27,Y+6+1
001fd7 e0e2      	LDI  R30,LOW(2)
001fd8 e0f0      	LDI  R31,HIGH(2)
001fd9 940e 230f 	CALL __DIVW21
001fdb 0fe2      	ADD  R30,R18
001fdc 1ff3      	ADC  R31,R19
001fdd 9738      	SBIW R30,8
001fde 019f      	MOVW R18,R30
001fdf 9508      	RET
                 
                 ;OPTIMIZER ADDED SUBROUTINE, CALLED 49 TIMES, CODE SIZE REDUCTION:93 WORDS
                 SUBOPT_0x29:
001fe0 e7e5      	LDI  R30,LOW(_buff)
001fe1 e0f3      	LDI  R31,HIGH(_buff)
001fe2 93fa      	ST   -Y,R31
001fe3 93ea      	ST   -Y,R30
001fe4 9508      	RET
                 
                 ;OPTIMIZER ADDED SUBROUTINE, CALLED 4 TIMES, CODE SIZE REDUCTION:9 WORDS
                 SUBOPT_0x2A:
001fe5 93fa      	ST   -Y,R31
001fe6 93ea      	ST   -Y,R30
001fe7 e080      	LDI  R24,0
001fe8 940e 1ced 	CALL _sprintf
001fea 9624      	ADIW R28,4
001feb 9508      	RET
                 
                 ;OPTIMIZER ADDED SUBROUTINE, CALLED 3 TIMES, CODE SIZE REDUCTION:1 WORDS
                 SUBOPT_0x2B:
001fec 931a      	ST   -Y,R17
001fed 930a      	ST   -Y,R16
001fee 933a      	ST   -Y,R19
001fef 932a      	ST   -Y,R18
001ff0 9508      	RET
                 
                 ;OPTIMIZER ADDED SUBROUTINE, CALLED 36 TIMES, CODE SIZE REDUCTION:277 WORDS
                 SUBOPT_0x2C:
001ff1 91e0 0363 	LDS  R30,_Font_11x18
001ff3 91f0 0364 	LDS  R31,_Font_11x18+1
001ff5 9160 0365 	LDS  R22,_Font_11x18+2
001ff7 9170 0366 	LDS  R23,_Font_11x18+3
001ff9 940e 2389 	CALL __PUTPARD1
001ffb 9508      	RET
                 
                 ;OPTIMIZER ADDED SUBROUTINE, CALLED 9 TIMES, CODE SIZE REDUCTION:21 WORDS
                 SUBOPT_0x2D:
001ffc 93fa      	ST   -Y,R31
001ffd 93ea      	ST   -Y,R30
001ffe e0a1      	LDI  R26,LOW(1)
001fff 940c 0ebe 	JMP  _ILI9341_WriteString
                 
                 ;OPTIMIZER ADDED SUBROUTINE, CALLED 2 TIMES, CODE SIZE REDUCTION:2 WORDS
                 SUBOPT_0x2E:
002001 85aa      	LDD  R26,Y+10
002002 27bb      	CLR  R27
002003 e0e2      	LDI  R30,LOW(2)
002004 e0f0      	LDI  R31,HIGH(2)
002005 940e 233e 	CALL __MODW21
002007 9730      	SBIW R30,0
002008 9508      	RET
                 
                 ;OPTIMIZER ADDED SUBROUTINE, CALLED 15 TIMES, CODE SIZE REDUCTION:25 WORDS
                 SUBOPT_0x2F:
002009 93fa      	ST   -Y,R31
00200a 93ea      	ST   -Y,R30
00200b cfe5      	RJMP SUBOPT_0x2C
                 
                 ;OPTIMIZER ADDED SUBROUTINE, CALLED 3 TIMES, CODE SIZE REDUCTION:1 WORDS
                 SUBOPT_0x30:
00200c 940e 238e 	CALL __SWAPW12
00200e 1bea      	SUB  R30,R26
00200f 0bfb      	SBC  R31,R27
002010 9508      	RET
                 
                 ;OPTIMIZER ADDED SUBROUTINE, CALLED 4 TIMES, CODE SIZE REDUCTION:3 WORDS
                 SUBOPT_0x31:
002011 940e 237f 	CALL __PUTD1S0
002013 9508      	RET
                 
                 ;OPTIMIZER ADDED SUBROUTINE, CALLED 2 TIMES, CODE SIZE REDUCTION:2 WORDS
                 SUBOPT_0x32:
002014 93aa      	ST   -Y,R26
002015 940e 23b5 	CALL __SAVELOCR4
002017 81ec      	LDD  R30,Y+4
002018 e0a6      	LDI  R26,LOW(6)
002019 9fea      	MUL  R30,R26
00201a 01f0      	MOVW R30,R0
00201b 9508      	RET
                 
                 ;OPTIMIZER ADDED SUBROUTINE, CALLED 2 TIMES, CODE SIZE REDUCTION:1 WORDS
                 SUBOPT_0x33:
00201c 8100      	LD   R16,Z
00201d 8111      	LDD  R17,Z+1
00201e 81ec      	LDD  R30,Y+4
00201f e0a6      	LDI  R26,LOW(6)
002020 9fea      	MUL  R30,R26
002021 01f0      	MOVW R30,R0
002022 9508      	RET
                 
                 ;OPTIMIZER ADDED SUBROUTINE, CALLED 2 TIMES, CODE SIZE REDUCTION:1 WORDS
                 SUBOPT_0x34:
002023 81e0      	LD   R30,Z
002024 e0f0      	LDI  R31,0
002025 0fe0      	ADD  R30,R16
002026 1ff1      	ADC  R31,R17
002027 9733      	SBIW R30,3
002028 019f      	MOVW R18,R30
002029 9508      	RET
                 
                 ;OPTIMIZER ADDED SUBROUTINE, CALLED 6 TIMES, CODE SIZE REDUCTION:7 WORDS
                 SUBOPT_0x35:
00202a 91a0 0402 	LDS  R26,_point_X
00202c 91b0 0403 	LDS  R27,_point_X+1
00202e 9508      	RET
                 
                 ;OPTIMIZER ADDED SUBROUTINE, CALLED 4 TIMES, CODE SIZE REDUCTION:3 WORDS
                 SUBOPT_0x36:
00202f 81ec      	LDD  R30,Y+4
002030 e0a6      	LDI  R26,LOW(6)
002031 9fea      	MUL  R30,R26
002032 01f0      	MOVW R30,R0
002033 9508      	RET
                 
                 ;OPTIMIZER ADDED SUBROUTINE, CALLED 8 TIMES, CODE SIZE REDUCTION:11 WORDS
                 SUBOPT_0x37:
002034 91a0 0404 	LDS  R26,_point_Y
002036 91b0 0405 	LDS  R27,_point_Y+1
002038 9508      	RET
                 
                 ;OPTIMIZER ADDED SUBROUTINE, CALLED 2 TIMES, CODE SIZE REDUCTION:2 WORDS
                 SUBOPT_0x38:
002039 01df      	MOVW R26,R30
00203a 940e 236d 	CALL __GETW1P
00203c 9733      	SBIW R30,3
00203d 018f      	MOVW R16,R30
00203e cff0      	RJMP SUBOPT_0x36
                 
                 ;OPTIMIZER ADDED SUBROUTINE, CALLED 2 TIMES, CODE SIZE REDUCTION:1 WORDS
                 SUBOPT_0x39:
00203f 81e0      	LD   R30,Z
002040 e0f0      	LDI  R31,0
002041 0fe0      	ADD  R30,R16
002042 1ff1      	ADC  R31,R17
002043 9633      	ADIW R30,3
002044 019f      	MOVW R18,R30
002045 9508      	RET
                 
                 ;OPTIMIZER ADDED SUBROUTINE, CALLED 2 TIMES, CODE SIZE REDUCTION:1 WORDS
                 SUBOPT_0x3A:
002046 2fe1      	MOV  R30,R17
002047 e0f0      	LDI  R31,0
002048 01de      	MOVW R26,R28
002049 9614      	ADIW R26,4
00204a ceb8      	RJMP SUBOPT_0xB
                 
                 ;OPTIMIZER ADDED SUBROUTINE, CALLED 2 TIMES, CODE SIZE REDUCTION:5 WORDS
                 SUBOPT_0x3B:
00204b 81ae      	LDD  R26,Y+6
00204c 81bf      	LDD  R27,Y+6+1
00204d 81ec      	LDD  R30,Y+4
00204e 81fd      	LDD  R31,Y+4+1
00204f 1bea      	SUB  R30,R26
002050 0bfb      	SBC  R31,R27
002051 01df      	MOVW R26,R30
002052 940e 1e86 	CALL _abs
002054 019f      	MOVW R18,R30
002055 9508      	RET
                 
                 ;OPTIMIZER ADDED SUBROUTINE, CALLED 2 TIMES, CODE SIZE REDUCTION:5 WORDS
                 SUBOPT_0x3C:
002056 81ee      	LDD  R30,Y+6
002057 81ff      	LDD  R31,Y+6+1
002058 81ac      	LDD  R26,Y+4
002059 81bd      	LDD  R27,Y+4+1
00205a 0fae      	ADD  R26,R30
00205b 1fbf      	ADC  R27,R31
00205c e0e2      	LDI  R30,LOW(2)
00205d e0f0      	LDI  R31,HIGH(2)
00205e 940e 230f 	CALL __DIVW21
002060 9508      	RET
                 
                 ;OPTIMIZER ADDED SUBROUTINE, CALLED 2 TIMES, CODE SIZE REDUCTION:1 WORDS
                 SUBOPT_0x3D:
002061 91e0 0402 	LDS  R30,_point_X
002063 91f0 0403 	LDS  R31,_point_X+1
002065 93fa      	ST   -Y,R31
002066 93ea      	ST   -Y,R30
002067 9508      	RET
                 
                 ;OPTIMIZER ADDED SUBROUTINE, CALLED 4 TIMES, CODE SIZE REDUCTION:3 WORDS
                 SUBOPT_0x3E:
002068 93fa      	ST   -Y,R31
002069 93ea      	ST   -Y,R30
00206a e0e0      	LDI  R30,LOW(0)
00206b 93ea      	ST   -Y,R30
00206c 9508      	RET
                 
                 ;OPTIMIZER ADDED SUBROUTINE, CALLED 2 TIMES, CODE SIZE REDUCTION:1 WORDS
                 SUBOPT_0x3F:
00206d 91e0 0404 	LDS  R30,_point_Y
00206f 91f0 0405 	LDS  R31,_point_Y+1
002071 93fa      	ST   -Y,R31
002072 93ea      	ST   -Y,R30
002073 9508      	RET
                 
                 ;OPTIMIZER ADDED SUBROUTINE, CALLED 12 TIMES, CODE SIZE REDUCTION:19 WORDS
                 SUBOPT_0x40:
002074 e0e5      	LDI  R30,LOW(5)
002075 e0f0      	LDI  R31,HIGH(5)
002076 93fa      	ST   -Y,R31
002077 93ea      	ST   -Y,R30
002078 9508      	RET
                 
                 ;OPTIMIZER ADDED SUBROUTINE, CALLED 3 TIMES, CODE SIZE REDUCTION:1 WORDS
                 SUBOPT_0x41:
002079 93e0 03df 	STS  _ptr_char,R30
00207b 93f0 03e0 	STS  _ptr_char+1,R31
00207d 9508      	RET
                 
                 ;OPTIMIZER ADDED SUBROUTINE, CALLED 2 TIMES, CODE SIZE REDUCTION:3 WORDS
                 SUBOPT_0x42:
00207e edaf      	LDI  R26,LOW(_ptr_char)
00207f e0b3      	LDI  R27,HIGH(_ptr_char)
002080 91ed      	LD   R30,X+
002081 91fd      	LD   R31,X+
002082 9631      	ADIW R30,1
002083 93fe      	ST   -X,R31
002084 93ee      	ST   -X,R30
002085 9731      	SBIW R30,1
002086 9508      	RET
                 
                 ;OPTIMIZER ADDED SUBROUTINE, CALLED 2 TIMES, CODE SIZE REDUCTION:5 WORDS
                 SUBOPT_0x43:
002087 01f8      	MOVW R30,R16
002088 e0aa      	LDI  R26,LOW(10)
002089 e0b0      	LDI  R27,HIGH(10)
00208a 940e 22f2 	CALL __MULW12
00208c 01df      	MOVW R26,R30
00208d e1e0      	LDI  R30,LOW(16)
00208e e0f0      	LDI  R31,HIGH(16)
00208f 940e 230f 	CALL __DIVW21
002091 9508      	RET
                 
                 ;OPTIMIZER ADDED SUBROUTINE, CALLED 2 TIMES, CODE SIZE REDUCTION:3 WORDS
                 SUBOPT_0x44:
002092 940e 21bc 	CALL _w1_init
002094 ecac      	LDI  R26,LOW(204)
002095 940e 2205 	CALL _w1_write
002097 e4a4      	LDI  R26,LOW(68)
002098 940c 2205 	JMP  _w1_write
                 
                 ;OPTIMIZER ADDED SUBROUTINE, CALLED 4 TIMES, CODE SIZE REDUCTION:9 WORDS
                 SUBOPT_0x45:
00209a df0f      	RCALL SUBOPT_0x22
00209b 93fa      	ST   -Y,R31
00209c 93ea      	ST   -Y,R30
00209d cec8      	RJMP SUBOPT_0x16
                 
                 ;OPTIMIZER ADDED SUBROUTINE, CALLED 3 TIMES, CODE SIZE REDUCTION:25 WORDS
                 SUBOPT_0x46:
00209e 91e0 03c5 	LDS  R30,_max_Y
0020a0 91f0 03c6 	LDS  R31,_max_Y+1
0020a2 93fa      	ST   -Y,R31
0020a3 93ea      	ST   -Y,R30
0020a4 01d9      	MOVW R26,R18
0020a5 940e 0f4c 	CALL _ILI9341_FillScreen
0020a7 e0e4      	LDI  R30,LOW(4)
0020a8 93ea      	ST   -Y,R30
0020a9 e0e1      	LDI  R30,LOW(1)
0020aa 93ea      	ST   -Y,R30
0020ab e1a9      	LDI  R26,LOW(25)
0020ac 940c 1260 	JMP  _initializeButtons
                 
                 ;OPTIMIZER ADDED SUBROUTINE, CALLED 3 TIMES, CODE SIZE REDUCTION:5 WORDS
                 SUBOPT_0x47:
0020ae 933a      	ST   -Y,R19
0020af 932a      	ST   -Y,R18
0020b0 933a      	ST   -Y,R19
0020b1 932a      	ST   -Y,R18
0020b2 935a      	ST   -Y,R21
0020b3 934a      	ST   -Y,R20
0020b4 9508      	RET
                 
                 ;OPTIMIZER ADDED SUBROUTINE, CALLED 3 TIMES, CODE SIZE REDUCTION:1 WORDS
                 SUBOPT_0x48:
                +
0020b5 eda0     +LDI R26 , LOW ( 2 * _0x0 + ( 200 ) )
0020b6 e1b7     +LDI R27 , HIGH ( 2 * _0x0 + ( 200 ) )
                 	__POINTW2FN _0x0,200
0020b7 940c 12d8 	JMP  _drawButton
                 
                 ;OPTIMIZER ADDED SUBROUTINE, CALLED 8 TIMES, CODE SIZE REDUCTION:11 WORDS
                 SUBOPT_0x49:
0020b9 efef      	LDI  R30,LOW(65535)
0020ba efff      	LDI  R31,HIGH(65535)
0020bb 93fa      	ST   -Y,R31
0020bc 93ea      	ST   -Y,R30
0020bd 9508      	RET
                 
                 ;OPTIMIZER ADDED SUBROUTINE, CALLED 2 TIMES, CODE SIZE REDUCTION:3 WORDS
                 SUBOPT_0x4A:
0020be e0e1      	LDI  R30,LOW(1)
0020bf 93ea      	ST   -Y,R30
                +
0020c0 eda8     +LDI R26 , LOW ( 2 * _0x0 + ( 208 ) )
0020c1 e1b7     +LDI R27 , HIGH ( 2 * _0x0 + ( 208 ) )
                 	__POINTW2FN _0x0,208
0020c2 940e 12d8 	CALL _drawButton
0020c4 cea1      	RJMP SUBOPT_0x16
                 
                 ;OPTIMIZER ADDED SUBROUTINE, CALLED 3 TIMES, CODE SIZE REDUCTION:9 WORDS
                 SUBOPT_0x4B:
0020c5 e0e2      	LDI  R30,LOW(2)
0020c6 93ea      	ST   -Y,R30
                +
0020c7 edae     +LDI R26 , LOW ( 2 * _0x0 + ( 214 ) )
0020c8 e1b7     +LDI R27 , HIGH ( 2 * _0x0 + ( 214 ) )
                 	__POINTW2FN _0x0,214
0020c9 940e 12d8 	CALL _drawButton
0020cb ce9a      	RJMP SUBOPT_0x16
                 
                 ;OPTIMIZER ADDED SUBROUTINE, CALLED 3 TIMES, CODE SIZE REDUCTION:5 WORDS
                 SUBOPT_0x4C:
0020cc e0e3      	LDI  R30,LOW(3)
0020cd 93ea      	ST   -Y,R30
                +
0020ce eea5     +LDI R26 , LOW ( 2 * _0x0 + ( 221 ) )
0020cf e1b7     +LDI R27 , HIGH ( 2 * _0x0 + ( 221 ) )
                 	__POINTW2FN _0x0,221
0020d0 940c 12d8 	JMP  _drawButton
                 
                 ;OPTIMIZER ADDED SUBROUTINE, CALLED 16 TIMES, CODE SIZE REDUCTION:42 WORDS
                 SUBOPT_0x4D:
0020d2 27ff      	CLR  R31
0020d3 2766      	CLR  R22
0020d4 2777      	CLR  R23
0020d5 940e 2389 	CALL __PUTPARD1
0020d7 9508      	RET
                 
                 ;OPTIMIZER ADDED SUBROUTINE, CALLED 4 TIMES, CODE SIZE REDUCTION:21 WORDS
                 SUBOPT_0x4E:
0020d8 e4e6      	LDI  R30,LOW(70)
0020d9 e0f0      	LDI  R31,HIGH(70)
0020da 93fa      	ST   -Y,R31
0020db 93ea      	ST   -Y,R30
0020dc 2de9      	MOV  R30,R9
0020dd e0f0      	LDI  R31,0
0020de 93fa      	ST   -Y,R31
0020df 93ea      	ST   -Y,R30
0020e0 ceff      	RJMP SUBOPT_0x29
                 
                 ;OPTIMIZER ADDED SUBROUTINE, CALLED 3 TIMES, CODE SIZE REDUCTION:5 WORDS
                 SUBOPT_0x4F:
0020e1 e1ef      	LDI  R30,LOW(31)
0020e2 e0f0      	LDI  R31,HIGH(31)
0020e3 93fa      	ST   -Y,R31
0020e4 93ea      	ST   -Y,R30
0020e5 efef      	LDI  R30,LOW(2047)
0020e6 e0f7      	LDI  R31,HIGH(2047)
0020e7 9508      	RET
                 
                 ;OPTIMIZER ADDED SUBROUTINE, CALLED 3 TIMES, CODE SIZE REDUCTION:9 WORDS
                 SUBOPT_0x50:
0020e8 83ee      	STD  Y+6,R30
0020e9 83ff      	STD  Y+6+1,R31
0020ea 81ae      	LDD  R26,Y+6
0020eb 81bf      	LDD  R27,Y+6+1
0020ec 940e 1525 	CALL _fraction
0020ee cef1      	RJMP SUBOPT_0x29
                 
                 ;OPTIMIZER ADDED SUBROUTINE, CALLED 4 TIMES, CODE SIZE REDUCTION:6 WORDS
                 SUBOPT_0x51:
0020ef 93fa      	ST   -Y,R31
0020f0 93ea      	ST   -Y,R30
0020f1 2dea      	MOV  R30,R10
0020f2 cfdf      	RJMP SUBOPT_0x4D
                 
                 ;OPTIMIZER ADDED SUBROUTINE, CALLED 6 TIMES, CODE SIZE REDUCTION:7 WORDS
                 SUBOPT_0x52:
0020f3 e088      	LDI  R24,8
0020f4 940e 1ced 	CALL _sprintf
0020f6 962c      	ADIW R28,12
0020f7 9508      	RET
                 
                 ;OPTIMIZER ADDED SUBROUTINE, CALLED 2 TIMES, CODE SIZE REDUCTION:2 WORDS
                 SUBOPT_0x53:
0020f8 2de9      	MOV  R30,R9
0020f9 e0f0      	LDI  R31,0
0020fa 9635      	ADIW R30,5
0020fb 93fa      	ST   -Y,R31
0020fc 93ea      	ST   -Y,R30
0020fd cee2      	RJMP SUBOPT_0x29
                 
                 ;OPTIMIZER ADDED SUBROUTINE, CALLED 11 TIMES, CODE SIZE REDUCTION:47 WORDS
                 SUBOPT_0x54:
0020fe 935a      	ST   -Y,R21
0020ff 934a      	ST   -Y,R20
002100 933a      	ST   -Y,R19
002101 932a      	ST   -Y,R18
002102 e0a1      	LDI  R26,LOW(1)
002103 940c 0ebe 	JMP  _ILI9341_WriteString
                 
                 ;OPTIMIZER ADDED SUBROUTINE, CALLED 22 TIMES, CODE SIZE REDUCTION:39 WORDS
                 SUBOPT_0x55:
002105 93fa      	ST   -Y,R31
002106 93ea      	ST   -Y,R30
002107 2de9      	MOV  R30,R9
002108 e0f0      	LDI  R31,0
002109 9508      	RET
                 
                 ;OPTIMIZER ADDED SUBROUTINE, CALLED 14 TIMES, CODE SIZE REDUCTION:23 WORDS
                 SUBOPT_0x56:
00210a 93fa      	ST   -Y,R31
00210b 93ea      	ST   -Y,R30
00210c ced3      	RJMP SUBOPT_0x29
                 
                 ;OPTIMIZER ADDED SUBROUTINE, CALLED 2 TIMES, CODE SIZE REDUCTION:2 WORDS
                 SUBOPT_0x57:
00210d 935a      	ST   -Y,R21
00210e 934a      	ST   -Y,R20
00210f 933a      	ST   -Y,R19
002110 932a      	ST   -Y,R18
002111 e0a3      	LDI  R26,LOW(3)
002112 940c 0ebe 	JMP  _ILI9341_WriteString
                 
                 ;OPTIMIZER ADDED SUBROUTINE, CALLED 2 TIMES, CODE SIZE REDUCTION:10 WORDS
                 SUBOPT_0x58:
002114 9632      	ADIW R30,2
002115 93fa      	ST   -Y,R31
002116 93ea      	ST   -Y,R30
002117 e1ee      	LDI  R30,LOW(30)
002118 e0f0      	LDI  R31,HIGH(30)
002119 93fa      	ST   -Y,R31
00211a 93ea      	ST   -Y,R30
00211b e2ed      	LDI  R30,LOW(45)
00211c e0f0      	LDI  R31,HIGH(45)
00211d 93fa      	ST   -Y,R31
00211e 93ea      	ST   -Y,R30
00211f 85ae      	LDD  R26,Y+14
002120 85bf      	LDD  R27,Y+14+1
002121 940c 0d9c 	JMP  _ILI9341_FillRectangle
                 
                 ;OPTIMIZER ADDED SUBROUTINE, CALLED 7 TIMES, CODE SIZE REDUCTION:33 WORDS
                 SUBOPT_0x59:
002123 940e 22c5 	CALL __CWD1
002125 940e 2389 	CALL __PUTPARD1
002127 e084      	LDI  R24,4
002128 940e 1ced 	CALL _sprintf
00212a 9628      	ADIW R28,8
00212b 9508      	RET
                 
                 ;OPTIMIZER ADDED SUBROUTINE, CALLED 6 TIMES, CODE SIZE REDUCTION:7 WORDS
                 SUBOPT_0x5A:
00212c e0ea      	LDI  R30,LOW(10)
00212d e0f0      	LDI  R31,HIGH(10)
00212e cfd6      	RJMP SUBOPT_0x55
                 
                 ;OPTIMIZER ADDED SUBROUTINE, CALLED 5 TIMES, CODE SIZE REDUCTION:5 WORDS
                 SUBOPT_0x5B:
00212f 935a      	ST   -Y,R21
002130 934a      	ST   -Y,R20
002131 933a      	ST   -Y,R19
002132 932a      	ST   -Y,R18
002133 9508      	RET
                 
                 ;OPTIMIZER ADDED SUBROUTINE, CALLED 3 TIMES, CODE SIZE REDUCTION:5 WORDS
                 SUBOPT_0x5C:
002134 940e 236d 	CALL __GETW1P
002136 83ee      	STD  Y+6,R30
002137 83ff      	STD  Y+6+1,R31
002138 81ae      	LDD  R26,Y+6
002139 81bf      	LDD  R27,Y+6+1
00213a 9508      	RET
                 
                 ;OPTIMIZER ADDED SUBROUTINE, CALLED 5 TIMES, CODE SIZE REDUCTION:5 WORDS
                 SUBOPT_0x5D:
00213b 2fa1      	MOV  R26,R17
00213c e0b0      	LDI  R27,0
00213d fda7      	SBRC R26,7
00213e efbf      	SER  R27
00213f 9508      	RET
                 
                 ;OPTIMIZER ADDED SUBROUTINE, CALLED 7 TIMES, CODE SIZE REDUCTION:9 WORDS
                 SUBOPT_0x5E:
002140 2fe1      	MOV  R30,R17
002141 e0f0      	LDI  R31,0
002142 50e5      	SUBI R30,LOW(-_relay)
002143 4ffc      	SBCI R31,HIGH(-_relay)
002144 9508      	RET
                 
                 ;OPTIMIZER ADDED SUBROUTINE, CALLED 2 TIMES, CODE SIZE REDUCTION:4 WORDS
                 SUBOPT_0x5F:
002145 93fa      	ST   -Y,R31
002146 93ea      	ST   -Y,R30
002147 2fe1      	MOV  R30,R17
002148 e0f0      	LDI  R31,0
002149 fde7      	SBRC R30,7
00214a efff      	SER  R31
00214b 9631      	ADIW R30,1
00214c cfd6      	RJMP SUBOPT_0x59
                 
                 ;OPTIMIZER ADDED SUBROUTINE, CALLED 2 TIMES, CODE SIZE REDUCTION:1 WORDS
                 SUBOPT_0x60:
00214d 940e 1e90 	CALL _strcat
00214f 2fe1      	MOV  R30,R17
002150 e0f0      	LDI  R31,0
002151 59e7      	SUBI R30,LOW(-_relOut)
002152 4ffc      	SBCI R31,HIGH(-_relOut)
002153 9508      	RET
                 
                 ;OPTIMIZER ADDED SUBROUTINE, CALLED 3 TIMES, CODE SIZE REDUCTION:1 WORDS
                 SUBOPT_0x61:
002154 efef      	LDI  R30,LOW(65535)
002155 efff      	LDI  R31,HIGH(65535)
002156 cea5      	RJMP SUBOPT_0x2D
                 
                 ;OPTIMIZER ADDED SUBROUTINE, CALLED 2 TIMES, CODE SIZE REDUCTION:3 WORDS
                 SUBOPT_0x62:
002157 93fa      	ST   -Y,R31
002158 93ea      	ST   -Y,R30
002159 2fe1      	MOV  R30,R17
00215a 940e 22bf 	CALL __CBD1
00215c 940e 2389 	CALL __PUTPARD1
00215e 9508      	RET
                 
                 ;OPTIMIZER ADDED SUBROUTINE, CALLED 4 TIMES, CODE SIZE REDUCTION:3 WORDS
                 SUBOPT_0x63:
00215f e084      	LDI  R24,4
002160 940e 1ced 	CALL _sprintf
002162 9628      	ADIW R28,8
002163 9508      	RET
                 
                 ;OPTIMIZER ADDED SUBROUTINE, CALLED 11 TIMES, CODE SIZE REDUCTION:17 WORDS
                 SUBOPT_0x64:
002164 2fe1      	MOV  R30,R17
002165 e0f0      	LDI  R31,0
002166 50e9      	SUBI R30,LOW(-_analog)
002167 4ffc      	SBCI R31,HIGH(-_analog)
002168 9508      	RET
                 
                 ;OPTIMIZER ADDED SUBROUTINE, CALLED 2 TIMES, CODE SIZE REDUCTION:1 WORDS
                 SUBOPT_0x65:
002169 2fa1      	MOV  R26,R17
00216a e0b0      	LDI  R27,0
00216b 59a3      	SUBI R26,LOW(-_analogOut)
00216c 4fbc      	SBCI R27,HIGH(-_analogOut)
00216d cff6      	RJMP SUBOPT_0x64
                 
                 ;OPTIMIZER ADDED SUBROUTINE, CALLED 3 TIMES, CODE SIZE REDUCTION:1 WORDS
                 SUBOPT_0x66:
00216e 2fe1      	MOV  R30,R17
00216f e0f0      	LDI  R31,0
002170 59e3      	SUBI R30,LOW(-_analogOut)
002171 4ffc      	SBCI R31,HIGH(-_analogOut)
002172 9508      	RET
                 
                 ;OPTIMIZER ADDED SUBROUTINE, CALLED 3 TIMES, CODE SIZE REDUCTION:3 WORDS
                 SUBOPT_0x67:
002173 91ed      	LD   R30,X+
002174 91fd      	LD   R31,X+
002175 9631      	ADIW R30,1
002176 93fe      	ST   -X,R31
002177 93ee      	ST   -X,R30
002178 9508      	RET
                 
                 ;OPTIMIZER ADDED SUBROUTINE, CALLED 2 TIMES, CODE SIZE REDUCTION:1 WORDS
                 SUBOPT_0x68:
002179 2da6      	MOV  R26,R6
00217a 27bb      	CLR  R27
00217b e0e0      	LDI  R30,0
00217c fc22      	SBRC R2,2
00217d e0e1      	LDI  R30,1
00217e e0f0      	LDI  R31,0
00217f 9508      	RET
                 
                 ;OPTIMIZER ADDED SUBROUTINE, CALLED 5 TIMES, CODE SIZE REDUCTION:5 WORDS
                 SUBOPT_0x69:
002180 91e0 03c7 	LDS  R30,_fillScreen
002182 91f0 03c8 	LDS  R31,_fillScreen+1
002184 9508      	RET
                 
                 ;OPTIMIZER ADDED SUBROUTINE, CALLED 2 TIMES, CODE SIZE REDUCTION:1 WORDS
                 SUBOPT_0x6A:
002185 e1ee      	LDI  R30,LOW(30)
002186 0e9e      	ADD  R9,R30
002187 e5e0      	LDI  R30,LOW(80)
002188 e0f0      	LDI  R31,HIGH(80)
002189 cf7b      	RJMP SUBOPT_0x55
                 
                 ;OPTIMIZER ADDED SUBROUTINE, CALLED 2 TIMES, CODE SIZE REDUCTION:2 WORDS
                 SUBOPT_0x6B:
00218a dff5      	RCALL SUBOPT_0x69
00218b 93fa      	ST   -Y,R31
00218c 93ea      	ST   -Y,R30
00218d e0a2      	LDI  R26,LOW(2)
00218e 940c 0ebe 	JMP  _ILI9341_WriteString
                 
                 ;OPTIMIZER ADDED SUBROUTINE, CALLED 5 TIMES, CODE SIZE REDUCTION:13 WORDS
                 SUBOPT_0x6C:
002190 932a      	ST   -Y,R18
002191 85ad      	LDD  R26,Y+13
002192 85be      	LDD  R27,Y+13+1
002193 85ef      	LDD  R30,Y+15
002194 89f8      	LDD  R31,Y+15+1
002195 9509      	ICALL
002196 9508      	RET
                 
                 ;OPTIMIZER ADDED SUBROUTINE, CALLED 5 TIMES, CODE SIZE REDUCTION:9 WORDS
                 SUBOPT_0x6D:
002197 89e8      	LDD  R30,Y+16
002198 89f9      	LDD  R31,Y+16+1
002199 9734      	SBIW R30,4
00219a 8be8      	STD  Y+16,R30
00219b 8bf9      	STD  Y+16+1,R31
00219c 9508      	RET
                 
                 ;OPTIMIZER ADDED SUBROUTINE, CALLED 3 TIMES, CODE SIZE REDUCTION:3 WORDS
                 SUBOPT_0x6E:
00219d 85ad      	LDD  R26,Y+13
00219e 85be      	LDD  R27,Y+13+1
00219f 85ef      	LDD  R30,Y+15
0021a0 89f8      	LDD  R31,Y+15+1
0021a1 9509      	ICALL
0021a2 9508      	RET
                 
                 ;OPTIMIZER ADDED SUBROUTINE, CALLED 2 TIMES, CODE SIZE REDUCTION:2 WORDS
                 SUBOPT_0x6F:
0021a3 89a8      	LDD  R26,Y+16
0021a4 89b9      	LDD  R27,Y+16+1
0021a5 9614      	ADIW R26,4
0021a6 940e 236d 	CALL __GETW1P
0021a8 87ea      	STD  Y+10,R30
0021a9 87fb      	STD  Y+10+1,R31
0021aa 9508      	RET
                 
                 ;OPTIMIZER ADDED SUBROUTINE, CALLED 2 TIMES, CODE SIZE REDUCTION:1 WORDS
                 SUBOPT_0x70:
0021ab 01de      	MOVW R26,R28
0021ac 961c      	ADIW R26,12
0021ad 940e 2294 	CALL __ADDW2R15
0021af 940e 236d 	CALL __GETW1P
0021b1 9508      	RET
                 
                 
                 	.CSEG
                 _delay_ms:
0021b2 9610      	adiw r26,0
0021b3 f039      	breq __delay_ms1
                 __delay_ms0:
                +
0021b4 ea80     +LDI R24 , LOW ( 0xFA0 )
0021b5 e09f     +LDI R25 , HIGH ( 0xFA0 )
                +__DELAY_USW_LOOP :
0021b6 9701     +SBIW R24 , 1
0021b7 f7f1     +BRNE __DELAY_USW_LOOP
                 	__DELAY_USW 0xFA0
0021b8 95a8      	wdr
0021b9 9711      	sbiw r26,1
0021ba f7c9      	brne __delay_ms0
                 __delay_ms1:
0021bb 9508      	ret
                 
                 	.equ __w1_port=0x18
                 	.equ __w1_bit=0x04
                 
                 _w1_init:
0021bc 27ee      	clr  r30
0021bd 98c4      	cbi  __w1_port,__w1_bit
0021be 9abc      	sbi  __w1_port-1,__w1_bit
                +
0021bf e880     +LDI R24 , LOW ( 0x780 )
0021c0 e097     +LDI R25 , HIGH ( 0x780 )
                +__DELAY_USW_LOOP :
0021c1 9701     +SBIW R24 , 1
0021c2 f7f1     +BRNE __DELAY_USW_LOOP
                 	__DELAY_USW 0x780
0021c3 98bc      	cbi  __w1_port-1,__w1_bit
                +
0021c4 e48b     +LDI R24 , LOW ( 0x4B )
                +__DELAY_USB_LOOP :
0021c5 958a     +DEC R24
0021c6 f7f1     +BRNE __DELAY_USB_LOOP
                 	__DELAY_USB 0x4B
0021c7 9bb4      	sbis __w1_port-2,__w1_bit
0021c8 9508      	ret
                +
0021c9 e380     +LDI R24 , LOW ( 0x130 )
0021ca e091     +LDI R25 , HIGH ( 0x130 )
                +__DELAY_USW_LOOP :
0021cb 9701     +SBIW R24 , 1
0021cc f7f1     +BRNE __DELAY_USW_LOOP
                 	__DELAY_USW 0x130
0021cd 9bb4      	sbis __w1_port-2,__w1_bit
0021ce e0e1      	ldi  r30,1
                +
0021cf e188     +LDI R24 , LOW ( 0x618 )
0021d0 e096     +LDI R25 , HIGH ( 0x618 )
                +__DELAY_USW_LOOP :
0021d1 9701     +SBIW R24 , 1
0021d2 f7f1     +BRNE __DELAY_USW_LOOP
                 	__DELAY_USW 0x618
0021d3 9508      	ret
                 
                 __w1_read_bit:
0021d4 9abc      	sbi  __w1_port-1,__w1_bit
                +
0021d5 e08b     +LDI R24 , LOW ( 0xB )
                +__DELAY_USB_LOOP :
0021d6 958a     +DEC R24
0021d7 f7f1     +BRNE __DELAY_USB_LOOP
                 	__DELAY_USB 0xB
0021d8 98bc      	cbi  __w1_port-1,__w1_bit
                +
0021d9 e38b     +LDI R24 , LOW ( 0x3B )
                +__DELAY_USB_LOOP :
0021da 958a     +DEC R24
0021db f7f1     +BRNE __DELAY_USB_LOOP
                 	__DELAY_USB 0x3B
0021dc 9488      	clc
0021dd 99b4      	sbic __w1_port-2,__w1_bit
0021de 9408      	sec
0021df 95e7      	ror  r30
                +
0021e0 e480     +LDI R24 , LOW ( 0x140 )
0021e1 e091     +LDI R25 , HIGH ( 0x140 )
                +__DELAY_USW_LOOP :
0021e2 9701     +SBIW R24 , 1
0021e3 f7f1     +BRNE __DELAY_USW_LOOP
                 	__DELAY_USW 0x140
0021e4 9508      	ret
                 
                 __w1_write_bit:
0021e5 94e8      	clt
0021e6 9abc      	sbi  __w1_port-1,__w1_bit
                +
0021e7 e08b     +LDI R24 , LOW ( 0xB )
                +__DELAY_USB_LOOP :
0021e8 958a     +DEC R24
0021e9 f7f1     +BRNE __DELAY_USB_LOOP
                 	__DELAY_USB 0xB
0021ea fd70      	sbrc r23,0
0021eb 98bc      	cbi  __w1_port-1,__w1_bit
                +
0021ec e485     +LDI R24 , LOW ( 0x45 )
                +__DELAY_USB_LOOP :
0021ed 958a     +DEC R24
0021ee f7f1     +BRNE __DELAY_USB_LOOP
                 	__DELAY_USB 0x45
0021ef 99b4      	sbic __w1_port-2,__w1_bit
0021f0 c003      	rjmp __w1_write_bit0
0021f1 ff70      	sbrs r23,0
0021f2 c003      	rjmp __w1_write_bit1
0021f3 9508      	ret
                 __w1_write_bit0:
0021f4 ff70      	sbrs r23,0
0021f5 9508      	ret
                 __w1_write_bit1:
                +
0021f6 e28c     +LDI R24 , LOW ( 0x12C )
0021f7 e091     +LDI R25 , HIGH ( 0x12C )
                +__DELAY_USW_LOOP :
0021f8 9701     +SBIW R24 , 1
0021f9 f7f1     +BRNE __DELAY_USW_LOOP
                 	__DELAY_USW 0x12C
0021fa 98bc      	cbi  __w1_port-1,__w1_bit
                +
0021fb e18b     +LDI R24 , LOW ( 0x1B )
                +__DELAY_USB_LOOP :
0021fc 958a     +DEC R24
0021fd f7f1     +BRNE __DELAY_USB_LOOP
                 	__DELAY_USB 0x1B
0021fe 9468      	set
0021ff 9508      	ret
                 
                 _w1_read:
002200 e068      	ldi  r22,8
                 	__w1_read0:
002201 dfd2      	rcall __w1_read_bit
002202 956a      	dec  r22
002203 f7e9      	brne __w1_read0
002204 9508      	ret
                 
                 _w1_write:
002205 2f7a      	mov  r23,r26
002206 e068      	ldi  r22,8
002207 27ee      	clr  r30
                 __w1_write0:
002208 dfdc      	rcall __w1_write_bit
002209 f426      	brtc __w1_write1
00220a 9577      	ror  r23
00220b 956a      	dec  r22
00220c f7d9      	brne __w1_write0
00220d 95e3      	inc  r30
                 __w1_write1:
00220e 9508      	ret
                 
                 _w1_search:
00220f 934f      	push r20
002210 935f      	push r21
002211 2411      	clr  r1
002212 2744      	clr  r20
                 __w1_search0:
002213 2c01      	mov  r0,r1
002214 2411      	clr  r1
002215 dfa6      	rcall _w1_init
002216 23ee      	tst  r30
002217 f101      	breq __w1_search7
002218 93af      	push r26
002219 81a8      	ld   r26,y
00221a dfea      	rcall _w1_write
00221b 91af      	pop  r26
00221c e051      	ldi  r21,1
                 __w1_search1:
00221d 1550      	cp   r21,r0
00221e f498      	brsh __w1_search6
00221f dfb4      	rcall __w1_read_bit
002220 fde7      	sbrc r30,7
002221 c008      	rjmp __w1_search2
002222 dfb1      	rcall __w1_read_bit
002223 fde7      	sbrc r30,7
002224 c006      	rjmp __w1_search3
002225 d03f      	rcall __sel_bit
002226 2389      	and  r24,r25
002227 f419      	brne __w1_search3
002228 2e15      	mov  r1,r21
002229 c001      	rjmp __w1_search3
                 __w1_search2:
00222a dfa9      	rcall __w1_read_bit
                 __w1_search3:
00222b d039      	rcall __sel_bit
00222c 2389      	and  r24,r25
00222d e070      	ldi  r23,0
00222e f009      	breq __w1_search5
                 __w1_search4:
00222f e071      	ldi  r23,1
                 __w1_search5:
002230 dfb4      	rcall __w1_write_bit
002231 c01e      	rjmp __w1_search13
                 __w1_search6:
002232 dfa1      	rcall __w1_read_bit
002233 ffe7      	sbrs r30,7
002234 c00b      	rjmp __w1_search9
002235 df9e      	rcall __w1_read_bit
002236 ffe7      	sbrs r30,7
002237 c005      	rjmp __w1_search8
                 __w1_search7:
002238 2fe4      	mov  r30,r20
002239 915f      	pop  r21
00223a 914f      	pop  r20
00223b 9621      	adiw r28,1
00223c 9508      	ret
                 __w1_search8:
00223d 9468      	set
00223e d037      	rcall __set_bit
00223f cfef      	rjmp __w1_search4
                 __w1_search9:
002240 df93      	rcall __w1_read_bit
002241 ffe7      	sbrs r30,7
002242 c001      	rjmp __w1_search10
002243 c003      	rjmp __w1_search11
                 __w1_search10:
002244 1550      	cp   r21,r0
002245 f031      	breq __w1_search12
002246 2e15      	mov  r1,r21
                 __w1_search11:
002247 94e8      	clt
002248 d02d      	rcall __set_bit
002249 2777      	clr  r23
00224a df9a      	rcall __w1_write_bit
00224b c004      	rjmp __w1_search13
                 __w1_search12:
00224c 9468      	set
00224d d028      	rcall __set_bit
00224e e071      	ldi  r23,1
00224f df95      	rcall __w1_write_bit
                 __w1_search13:
002250 9553      	inc  r21
002251 3451      	cpi  r21,65
002252 f254      	brlt __w1_search1
002253 df80      	rcall __w1_read_bit
002254 1fee      	rol  r30
002255 1fee      	rol  r30
002256 70e1      	andi r30,1
002257 9618      	adiw r26,8
002258 93ec      	st   x,r30
002259 9718      	sbiw r26,8
00225a 9543      	inc  r20
00225b 2011      	tst  r1
00225c f2d9      	breq __w1_search7
00225d e059      	ldi  r21,9
                 __w1_search14:
00225e 91ec      	ld   r30,x
00225f 9619      	adiw r26,9
002260 93ec      	st   x,r30
002261 9718      	sbiw r26,8
002262 955a      	dec  r21
002263 f7d1      	brne __w1_search14
002264 cfae      	rjmp __w1_search0
                 
                 __sel_bit:
002265 2fe5      	mov  r30,r21
002266 95ea      	dec  r30
002267 2f6e      	mov  r22,r30
002268 95e6      	lsr  r30
002269 95e6      	lsr  r30
00226a 95e6      	lsr  r30
00226b 27ff      	clr  r31
00226c 0fea      	add  r30,r26
00226d 1ffb      	adc  r31,r27
00226e 8180      	ld   r24,z
00226f e091      	ldi  r25,1
002270 7067      	andi r22,7
                 __sel_bit0:
002271 f019      	breq __sel_bit1
002272 0f99      	lsl  r25
002273 956a      	dec  r22
002274 cffc      	rjmp __sel_bit0
                 __sel_bit1:
002275 9508      	ret
                 
                 __set_bit:
002276 dfee      	rcall __sel_bit
002277 f01e      	brts __set_bit2
002278 9590      	com  r25
002279 2389      	and  r24,r25
00227a c001      	rjmp __set_bit3
                 __set_bit2:
00227b 2b89      	or   r24,r25
                 __set_bit3:
00227c 8380      	st   z,r24
00227d 9508      	ret
                 
                 _w1_dow_crc8:
00227e 27ee      	clr  r30
00227f 23aa      	tst  r26
002280 f089      	breq __w1_dow_crc83
002281 2f8a      	mov  r24,r26
002282 e168      	ldi  r22,0x18
002283 81a8      	ld   r26,y
002284 81b9      	ldd  r27,y+1
                 __w1_dow_crc80:
002285 e098      	ldi  r25,8
002286 91fd      	ld   r31,x+
                 __w1_dow_crc81:
002287 2f7f      	mov  r23,r31
002288 277e      	eor  r23,r30
002289 9577      	ror  r23
00228a f408      	brcc __w1_dow_crc82
00228b 27e6      	eor  r30,r22
                 __w1_dow_crc82:
00228c 95e7      	ror  r30
00228d 95f6      	lsr  r31
00228e 959a      	dec  r25
00228f f7b9      	brne __w1_dow_crc81
002290 958a      	dec  r24
002291 f799      	brne __w1_dow_crc80
                 __w1_dow_crc83:
002292 9622      	adiw r28,2
002293 9508      	ret
                 
                 __ADDW2R15:
002294 2400      	CLR  R0
002295 0daf      	ADD  R26,R15
002296 1db0      	ADC  R27,R0
002297 9508      	RET
                 
                 __ADDD12:
002298 0fea      	ADD  R30,R26
002299 1ffb      	ADC  R31,R27
00229a 1f68      	ADC  R22,R24
00229b 1f79      	ADC  R23,R25
00229c 9508      	RET
                 
                 __ANEGW1:
00229d 95f1      	NEG  R31
00229e 95e1      	NEG  R30
00229f 40f0      	SBCI R31,0
0022a0 9508      	RET
                 
                 __ANEGD1:
0022a1 95f0      	COM  R31
0022a2 9560      	COM  R22
0022a3 9570      	COM  R23
0022a4 95e1      	NEG  R30
0022a5 4fff      	SBCI R31,-1
0022a6 4f6f      	SBCI R22,-1
0022a7 4f7f      	SBCI R23,-1
0022a8 9508      	RET
                 
                 __LSLD12:
0022a9 23ee      	TST  R30
0022aa 2e0e      	MOV  R0,R30
0022ab 01fd      	MOVW R30,R26
0022ac 01bc      	MOVW R22,R24
0022ad f031      	BREQ __LSLD12R
                 __LSLD12L:
0022ae 0fee      	LSL  R30
0022af 1fff      	ROL  R31
0022b0 1f66      	ROL  R22
0022b1 1f77      	ROL  R23
0022b2 940a      	DEC  R0
0022b3 f7d1      	BRNE __LSLD12L
                 __LSLD12R:
0022b4 9508      	RET
                 
                 __LSRW2:
0022b5 95f6      	LSR  R31
0022b6 95e7      	ROR  R30
0022b7 95f6      	LSR  R31
0022b8 95e7      	ROR  R30
0022b9 9508      	RET
                 
                 __ASRW8:
0022ba 2fef      	MOV  R30,R31
0022bb 27ff      	CLR  R31
0022bc fde7      	SBRC R30,7
0022bd efff      	SER  R31
0022be 9508      	RET
                 
                 __CBD1:
0022bf 2ffe      	MOV  R31,R30
0022c0 0fff      	ADD  R31,R31
0022c1 0bff      	SBC  R31,R31
0022c2 2f6f      	MOV  R22,R31
0022c3 2f7f      	MOV  R23,R31
0022c4 9508      	RET
                 
                 __CWD1:
0022c5 2f6f      	MOV  R22,R31
0022c6 0f66      	ADD  R22,R22
0022c7 0b66      	SBC  R22,R22
0022c8 2f76      	MOV  R23,R22
0022c9 9508      	RET
                 
                 __MULW12U:
0022ca 9ffa      	MUL  R31,R26
0022cb 2df0      	MOV  R31,R0
0022cc 9feb      	MUL  R30,R27
0022cd 0df0      	ADD  R31,R0
0022ce 9fea      	MUL  R30,R26
0022cf 2de0      	MOV  R30,R0
0022d0 0df1      	ADD  R31,R1
0022d1 9508      	RET
                 
                 __MULD12U:
0022d2 9f7a      	MUL  R23,R26
0022d3 2d70      	MOV  R23,R0
0022d4 9f6b      	MUL  R22,R27
0022d5 0d70      	ADD  R23,R0
0022d6 9ff8      	MUL  R31,R24
0022d7 0d70      	ADD  R23,R0
0022d8 9fe9      	MUL  R30,R25
0022d9 0d70      	ADD  R23,R0
0022da 9f6a      	MUL  R22,R26
0022db 2d60      	MOV  R22,R0
0022dc 0d71      	ADD  R23,R1
0022dd 9ffb      	MUL  R31,R27
0022de 0d60      	ADD  R22,R0
0022df 1d71      	ADC  R23,R1
0022e0 9fe8      	MUL  R30,R24
0022e1 0d60      	ADD  R22,R0
0022e2 1d71      	ADC  R23,R1
0022e3 2788      	CLR  R24
0022e4 9ffa      	MUL  R31,R26
0022e5 2df0      	MOV  R31,R0
0022e6 0d61      	ADD  R22,R1
0022e7 1f78      	ADC  R23,R24
0022e8 9feb      	MUL  R30,R27
0022e9 0df0      	ADD  R31,R0
0022ea 1d61      	ADC  R22,R1
0022eb 1f78      	ADC  R23,R24
0022ec 9fea      	MUL  R30,R26
0022ed 2de0      	MOV  R30,R0
0022ee 0df1      	ADD  R31,R1
0022ef 1f68      	ADC  R22,R24
0022f0 1f78      	ADC  R23,R24
0022f1 9508      	RET
                 
                 __MULW12:
0022f2 d059      	RCALL __CHKSIGNW
0022f3 dfd6      	RCALL __MULW12U
0022f4 f40e      	BRTC __MULW121
0022f5 dfa7      	RCALL __ANEGW1
                 __MULW121:
0022f6 9508      	RET
                 
                 __MULD12:
0022f7 d062      	RCALL __CHKSIGND
0022f8 dfd9      	RCALL __MULD12U
0022f9 f40e      	BRTC __MULD121
0022fa dfa6      	RCALL __ANEGD1
                 __MULD121:
0022fb 9508      	RET
                 
                 __DIVW21U:
0022fc 2400      	CLR  R0
0022fd 2411      	CLR  R1
0022fe e190      	LDI  R25,16
                 __DIVW21U1:
0022ff 0faa      	LSL  R26
002300 1fbb      	ROL  R27
002301 1c00      	ROL  R0
002302 1c11      	ROL  R1
002303 1a0e      	SUB  R0,R30
002304 0a1f      	SBC  R1,R31
002305 f418      	BRCC __DIVW21U2
002306 0e0e      	ADD  R0,R30
002307 1e1f      	ADC  R1,R31
002308 c001      	RJMP __DIVW21U3
                 __DIVW21U2:
002309 60a1      	SBR  R26,1
                 __DIVW21U3:
00230a 959a      	DEC  R25
00230b f799      	BRNE __DIVW21U1
00230c 01fd      	MOVW R30,R26
00230d 01d0      	MOVW R26,R0
00230e 9508      	RET
                 
                 __DIVW21:
00230f d03c      	RCALL __CHKSIGNW
002310 dfeb      	RCALL __DIVW21U
002311 f40e      	BRTC __DIVW211
002312 df8a      	RCALL __ANEGW1
                 __DIVW211:
002313 9508      	RET
                 
                 __DIVD21U:
002314 933f      	PUSH R19
002315 934f      	PUSH R20
002316 935f      	PUSH R21
002317 2400      	CLR  R0
002318 2411      	CLR  R1
002319 2744      	CLR  R20
00231a 2755      	CLR  R21
00231b e230      	LDI  R19,32
                 __DIVD21U1:
00231c 0faa      	LSL  R26
00231d 1fbb      	ROL  R27
00231e 1f88      	ROL  R24
00231f 1f99      	ROL  R25
002320 1c00      	ROL  R0
002321 1c11      	ROL  R1
002322 1f44      	ROL  R20
002323 1f55      	ROL  R21
002324 1a0e      	SUB  R0,R30
002325 0a1f      	SBC  R1,R31
002326 0b46      	SBC  R20,R22
002327 0b57      	SBC  R21,R23
002328 f428      	BRCC __DIVD21U2
002329 0e0e      	ADD  R0,R30
00232a 1e1f      	ADC  R1,R31
00232b 1f46      	ADC  R20,R22
00232c 1f57      	ADC  R21,R23
00232d c001      	RJMP __DIVD21U3
                 __DIVD21U2:
00232e 60a1      	SBR  R26,1
                 __DIVD21U3:
00232f 953a      	DEC  R19
002330 f759      	BRNE __DIVD21U1
002331 01fd      	MOVW R30,R26
002332 01bc      	MOVW R22,R24
002333 01d0      	MOVW R26,R0
002334 01ca      	MOVW R24,R20
002335 915f      	POP  R21
002336 914f      	POP  R20
002337 913f      	POP  R19
002338 9508      	RET
                 
                 __DIVD21:
002339 d020      	RCALL __CHKSIGND
00233a dfd9      	RCALL __DIVD21U
00233b f40e      	BRTC __DIVD211
00233c df64      	RCALL __ANEGD1
                 __DIVD211:
00233d 9508      	RET
                 
                 __MODW21:
00233e 94e8      	CLT
00233f ffb7      	SBRS R27,7
002340 c004      	RJMP __MODW211
002341 95a0      	COM  R26
002342 95b0      	COM  R27
002343 9611      	ADIW R26,1
002344 9468      	SET
                 __MODW211:
002345 fdf7      	SBRC R31,7
002346 df56      	RCALL __ANEGW1
002347 dfb4      	RCALL __DIVW21U
002348 01fd      	MOVW R30,R26
002349 f40e      	BRTC __MODW212
00234a df52      	RCALL __ANEGW1
                 __MODW212:
00234b 9508      	RET
                 
                 __CHKSIGNW:
00234c 94e8      	CLT
00234d fff7      	SBRS R31,7
00234e c002      	RJMP __CHKSW1
00234f df4d      	RCALL __ANEGW1
002350 9468      	SET
                 __CHKSW1:
002351 ffb7      	SBRS R27,7
002352 c006      	RJMP __CHKSW2
002353 95a0      	COM  R26
002354 95b0      	COM  R27
002355 9611      	ADIW R26,1
002356 f800      	BLD  R0,0
002357 9403      	INC  R0
002358 fa00      	BST  R0,0
                 __CHKSW2:
002359 9508      	RET
                 
                 __CHKSIGND:
00235a 94e8      	CLT
00235b ff77      	SBRS R23,7
00235c c002      	RJMP __CHKSD1
00235d df43      	RCALL __ANEGD1
00235e 9468      	SET
                 __CHKSD1:
00235f ff97      	SBRS R25,7
002360 c00b      	RJMP __CHKSD2
002361 2400      	CLR  R0
002362 95a0      	COM  R26
002363 95b0      	COM  R27
002364 9580      	COM  R24
002365 9590      	COM  R25
002366 9611      	ADIW R26,1
002367 1d80      	ADC  R24,R0
002368 1d90      	ADC  R25,R0
002369 f800      	BLD  R0,0
00236a 9403      	INC  R0
00236b fa00      	BST  R0,0
                 __CHKSD2:
00236c 9508      	RET
                 
                 __GETW1P:
00236d 91ed      	LD   R30,X+
00236e 91fc      	LD   R31,X
00236f 9711      	SBIW R26,1
002370 9508      	RET
                 
                 __GETW1PF:
002371 9005      	LPM  R0,Z+
002372 91f4      	LPM  R31,Z
002373 2de0      	MOV  R30,R0
002374 9508      	RET
                 
                 __GETD1S0:
002375 81e8      	LD   R30,Y
002376 81f9      	LDD  R31,Y+1
002377 816a      	LDD  R22,Y+2
002378 817b      	LDD  R23,Y+3
002379 9508      	RET
                 
                 __GETD2S0:
00237a 81a8      	LD   R26,Y
00237b 81b9      	LDD  R27,Y+1
00237c 818a      	LDD  R24,Y+2
00237d 819b      	LDD  R25,Y+3
00237e 9508      	RET
                 
                 __PUTD1S0:
00237f 83e8      	ST   Y,R30
002380 83f9      	STD  Y+1,R31
002381 836a      	STD  Y+2,R22
002382 837b      	STD  Y+3,R23
002383 9508      	RET
                 
                 __CLRD1S0:
002384 83e8      	ST   Y,R30
002385 83e9      	STD  Y+1,R30
002386 83ea      	STD  Y+2,R30
002387 83eb      	STD  Y+3,R30
002388 9508      	RET
                 
                 __PUTPARD1:
002389 937a      	ST   -Y,R23
00238a 936a      	ST   -Y,R22
00238b 93fa      	ST   -Y,R31
00238c 93ea      	ST   -Y,R30
00238d 9508      	RET
                 
                 __SWAPW12:
00238e 2e1b      	MOV  R1,R27
00238f 2fbf      	MOV  R27,R31
002390 2df1      	MOV  R31,R1
                 
                 __SWAPB12:
002391 2e1a      	MOV  R1,R26
002392 2fae      	MOV  R26,R30
002393 2de1      	MOV  R30,R1
002394 9508      	RET
                 
                 __EEPROMRDW:
002395 9611      	ADIW R26,1
002396 d002      	RCALL __EEPROMRDB
002397 2ffe      	MOV  R31,R30
002398 9711      	SBIW R26,1
                 
                 __EEPROMRDB:
002399 99e1      	SBIC EECR,EEWE
00239a cffe      	RJMP __EEPROMRDB
00239b 93ff      	PUSH R31
00239c b7ff      	IN   R31,SREG
00239d 94f8      	CLI
00239e bbae      	OUT  EEARL,R26
00239f bbbf      	OUT  EEARH,R27
0023a0 9ae0      	SBI  EECR,EERE
0023a1 b3ed      	IN   R30,EEDR
0023a2 bfff      	OUT  SREG,R31
0023a3 91ff      	POP  R31
0023a4 9508      	RET
                 
                 __CPW02:
0023a5 2400      	CLR  R0
0023a6 160a      	CP   R0,R26
0023a7 060b      	CPC  R0,R27
0023a8 9508      	RET
                 
                 __CPD21:
0023a9 17ae      	CP   R26,R30
0023aa 07bf      	CPC  R27,R31
0023ab 0786      	CPC  R24,R22
0023ac 0797      	CPC  R25,R23
0023ad 9508      	RET
                 
                 __BSTB1:
0023ae 94e8      	CLT
0023af 23ee      	TST  R30
0023b0 f009      	BREQ PC+2
0023b1 9468      	SET
0023b2 9508      	RET
                 
                 __SAVELOCR6:
0023b3 935a      	ST   -Y,R21
                 __SAVELOCR5:
0023b4 934a      	ST   -Y,R20
                 __SAVELOCR4:
0023b5 933a      	ST   -Y,R19
                 __SAVELOCR3:
0023b6 932a      	ST   -Y,R18
                 __SAVELOCR2:
0023b7 931a      	ST   -Y,R17
0023b8 930a      	ST   -Y,R16
0023b9 9508      	RET
                 
                 __LOADLOCR6:
0023ba 815d      	LDD  R21,Y+5
                 __LOADLOCR5:
0023bb 814c      	LDD  R20,Y+4
                 __LOADLOCR4:
0023bc 813b      	LDD  R19,Y+3
                 __LOADLOCR3:
0023bd 812a      	LDD  R18,Y+2
                 __LOADLOCR2:
0023be 8119      	LDD  R17,Y+1
0023bf 8108      	LD   R16,Y
0023c0 9508      	RET
                 
                 ;END OF CODE MARKER
                 __END_OF_CODE:


RESOURCE USE INFORMATION
------------------------

Notice:
The register and instruction counts are symbol table hit counts,
and hence implicitly used resources are not counted, eg, the
'lpm' instruction without operands implicitly uses r0 and z,
none of which are counted.

x,y,z are separate entities in the symbol table and are
counted separately from r26..r31 here.

.dseg memory usage only counts static data declared with .byte

ATmega32 register use summary:
r0 :  74 r1 :  28 r2 :  15 r3 :  10 r4 :   2 r5 :   3 r6 :   7 r7 :   9 
r8 :   3 r9 :  27 r10:   2 r11:   1 r12:   2 r13:   5 r14:   0 r15:   6 
r16: 110 r17: 169 r18:  91 r19:  67 r20:  49 r21:  53 r22:  70 r23:  59 
r24:  76 r25:  33 r26: 573 r27: 284 r28:  49 r29:   1 r30:1358 r31: 597 
x  :  60 y  : 880 z  :  58 
Registers used: 34 out of 35 (97.1%)

ATmega32 instruction use summary:
.lds  :   0 .lds.l:   0 .sts  :   0 .sts.l:   0 adc   :  51 add   :  70 
adiw  :  73 and   :   3 andi  :  48 asr   :   0 bclr  :   0 bld   :  14 
brbc  :   0 brbs  :   0 brcc  :   3 brcs  :   0 break :   0 breq  :  81 
brge  :  12 brhc  :   0 brhs  :   0 brid  :   0 brie  :   0 brlo  :  34 
brlt  :  12 brmi  :   1 brne  : 101 brpl  :   4 brsh  :  44 brtc  :   6 
brts  :   1 brvc  :   0 brvs  :   0 bset  :   0 bst   :   2 call  : 642 
cbi   :  26 cbr   :   0 clc   :   1 clh   :   0 cli   :   3 cln   :   0 
clr   :  57 cls   :   0 clt   :  10 clv   :   0 clz   :   0 com   :  14 
cp    :  40 cpc   :  51 cpi   : 159 cpse  :   0 dec   :  20 des   :   0 
eor   :  14 fmul  :   0 fmuls :   0 fmulsu:   0 icall :   6 ijmp  :   0 
in    :  54 inc   :   5 jmp   :  37 ld    : 100 ldd   : 390 ldi   : 772 
lds   : 102 lpm   :  14 lsl   :   8 lsr   :   7 mov   : 120 movw  :  80 
mul   :  32 muls  :   3 mulsu :   0 neg   :   3 nop   :   2 or    :   3 
ori   :  28 out   :  73 pop   :  18 push  :  18 rcall : 118 ret   : 154 
reti  :   3 rjmp  : 295 rol   :  17 ror   :   7 sbc   :  19 sbci  :  48 
sbi   :  24 sbic  :   6 sbis  :   5 sbiw  :  67 sbr   :   2 sbrc  :  14 
sbrs  :  32 sec   :   1 seh   :   0 sei   :   2 sen   :   0 ser   :   5 
ses   :   0 set   :  12 sev   :   0 sez   :   0 sleep :   0 spm   :   0 
st    : 360 std   : 136 sts   :  45 sub   :  16 subi  :  99 swap  :   0 
tst   :  20 wdr   :   1 
Instructions used: 78 out of 116 (67.2%)

ATmega32 memory use summary [bytes]:
Segment   Begin    End      Code   Data   Used    Size   Use%
---------------------------------------------------------------
[.cseg] 0x000000 0x004782  11608   6698  18306   32768  55.9%
[.dseg] 0x000060 0x000470      0    528    528    2048  25.8%
[.eseg] 0x000000 0x000028      0     40     40    1024   3.9%

Assembly complete, 0 errors, 15 warnings
