
AVRASM ver. 2.1.30  E:\!PROJECTS\C++\2023\GreenhouseNewFont\Debug\List\Greenhouse.asm Sun Oct 09 11:41:33 2022

E:\!PROJECTS\C++\2023\GreenhouseNewFont\Debug\List\Greenhouse.asm(1088): warning: Register r5 already defined by the .DEF directive
E:\!PROJECTS\C++\2023\GreenhouseNewFont\Debug\List\Greenhouse.asm(1089): warning: Register r4 already defined by the .DEF directive
E:\!PROJECTS\C++\2023\GreenhouseNewFont\Debug\List\Greenhouse.asm(1090): warning: Register r7 already defined by the .DEF directive
E:\!PROJECTS\C++\2023\GreenhouseNewFont\Debug\List\Greenhouse.asm(1091): warning: Register r6 already defined by the .DEF directive
E:\!PROJECTS\C++\2023\GreenhouseNewFont\Debug\List\Greenhouse.asm(1092): warning: Register r9 already defined by the .DEF directive
E:\!PROJECTS\C++\2023\GreenhouseNewFont\Debug\List\Greenhouse.asm(1093): warning: Register r8 already defined by the .DEF directive
E:\!PROJECTS\C++\2023\GreenhouseNewFont\Debug\List\Greenhouse.asm(1094): warning: Register r11 already defined by the .DEF directive
E:\!PROJECTS\C++\2023\GreenhouseNewFont\Debug\List\Greenhouse.asm(1095): warning: Register r10 already defined by the .DEF directive
E:\!PROJECTS\C++\2023\GreenhouseNewFont\Debug\List\Greenhouse.asm(1096): warning: Register r13 already defined by the .DEF directive
E:\!PROJECTS\C++\2023\GreenhouseNewFont\Debug\List\Greenhouse.asm(1097): warning: Register r12 already defined by the .DEF directive
                 
                 
                 ;CodeVisionAVR C Compiler V3.12 Advanced
                 ;(C) Copyright 1998-2014 Pavel Haiduc, HP InfoTech s.r.l.
                 ;http://www.hpinfotech.com
                 
                 ;Build configuration    : Debug
                 ;Chip type              : ATmega32
                 ;Program type           : Application
                 ;Clock frequency        : 16,000000 MHz
                 ;Memory model           : Small
                 ;Optimize for           : Size
                 ;(s)printf features     : int, width
                 ;(s)scanf features      : int, width
                 ;External RAM size      : 0
                 ;Data Stack size        : 512 byte(s)
                 ;Heap size              : 0 byte(s)
                 ;Promote 'char' to 'int': Yes
                 ;'char' is unsigned     : Yes
                 ;8 bit enums            : Yes
                 ;Global 'const' stored in FLASH: Yes
                 ;Enhanced function parameter passing: Yes
                 ;Enhanced core instructions: On
                 ;Automatic register allocation for global variables: On
                 ;Smart register allocation: On
                 
                 	#define _MODEL_SMALL_
                 
                 	#pragma AVRPART ADMIN PART_NAME ATmega32
                 	#pragma AVRPART MEMORY PROG_FLASH 32768
                 	#pragma AVRPART MEMORY EEPROM 1024
                 	#pragma AVRPART MEMORY INT_SRAM SIZE 2048
                 	#pragma AVRPART MEMORY INT_SRAM START_ADDR 0x60
                 
                 	#define CALL_SUPPORTED 1
                 
                 	.LISTMAC
                 	.EQU UDRE=0x5
                 	.EQU RXC=0x7
                 	.EQU USR=0xB
                 	.EQU UDR=0xC
                 	.EQU SPSR=0xE
                 	.EQU SPDR=0xF
                 	.EQU EERE=0x0
                 	.EQU EEWE=0x1
                 	.EQU EEMWE=0x2
                 	.EQU EECR=0x1C
                 	.EQU EEDR=0x1D
                 	.EQU EEARL=0x1E
                 	.EQU EEARH=0x1F
                 	.EQU WDTCR=0x21
                 	.EQU MCUCR=0x35
                 	.EQU GICR=0x3B
                 	.EQU SPL=0x3D
                 	.EQU SPH=0x3E
                 	.EQU SREG=0x3F
                 
                 	.DEF R0X0=R0
                 	.DEF R0X1=R1
                 	.DEF R0X2=R2
                 	.DEF R0X3=R3
                 	.DEF R0X4=R4
                 	.DEF R0X5=R5
                 	.DEF R0X6=R6
                 	.DEF R0X7=R7
                 	.DEF R0X8=R8
                 	.DEF R0X9=R9
                 	.DEF R0XA=R10
                 	.DEF R0XB=R11
                 	.DEF R0XC=R12
                 	.DEF R0XD=R13
                 	.DEF R0XE=R14
                 	.DEF R0XF=R15
                 	.DEF R0X10=R16
                 	.DEF R0X11=R17
                 	.DEF R0X12=R18
                 	.DEF R0X13=R19
                 	.DEF R0X14=R20
                 	.DEF R0X15=R21
                 	.DEF R0X16=R22
                 	.DEF R0X17=R23
                 	.DEF R0X18=R24
                 	.DEF R0X19=R25
                 	.DEF R0X1A=R26
                 	.DEF R0X1B=R27
                 	.DEF R0X1C=R28
                 	.DEF R0X1D=R29
                 	.DEF R0X1E=R30
                 	.DEF R0X1F=R31
                 
                 	.EQU __SRAM_START=0x0060
                 	.EQU __SRAM_END=0x085F
                 	.EQU __DSTACK_SIZE=0x0200
                 	.EQU __HEAP_SIZE=0x0000
                 	.EQU __CLEAR_SRAM_SIZE=__SRAM_END-__SRAM_START+1
                 
                 	.MACRO __CPD1N
                 	CPI  R30,LOW(@0)
                 	LDI  R26,HIGH(@0)
                 	CPC  R31,R26
                 	LDI  R26,BYTE3(@0)
                 	CPC  R22,R26
                 	LDI  R26,BYTE4(@0)
                 	CPC  R23,R26
                 	.ENDM
                 
                 	.MACRO __CPD2N
                 	CPI  R26,LOW(@0)
                 	LDI  R30,HIGH(@0)
                 	CPC  R27,R30
                 	LDI  R30,BYTE3(@0)
                 	CPC  R24,R30
                 	LDI  R30,BYTE4(@0)
                 	CPC  R25,R30
                 	.ENDM
                 
                 	.MACRO __CPWRR
                 	CP   R@0,R@2
                 	CPC  R@1,R@3
                 	.ENDM
                 
                 	.MACRO __CPWRN
                 	CPI  R@0,LOW(@2)
                 	LDI  R30,HIGH(@2)
                 	CPC  R@1,R30
                 	.ENDM
                 
                 	.MACRO __ADDB1MN
                 	SUBI R30,LOW(-@0-(@1))
                 	.ENDM
                 
                 	.MACRO __ADDB2MN
                 	SUBI R26,LOW(-@0-(@1))
                 	.ENDM
                 
                 	.MACRO __ADDW1MN
                 	SUBI R30,LOW(-@0-(@1))
                 	SBCI R31,HIGH(-@0-(@1))
                 	.ENDM
                 
                 	.MACRO __ADDW2MN
                 	SUBI R26,LOW(-@0-(@1))
                 	SBCI R27,HIGH(-@0-(@1))
                 	.ENDM
                 
                 	.MACRO __ADDW1FN
                 	SUBI R30,LOW(-2*@0-(@1))
                 	SBCI R31,HIGH(-2*@0-(@1))
                 	.ENDM
                 
                 	.MACRO __ADDD1FN
                 	SUBI R30,LOW(-2*@0-(@1))
                 	SBCI R31,HIGH(-2*@0-(@1))
                 	SBCI R22,BYTE3(-2*@0-(@1))
                 	.ENDM
                 
                 	.MACRO __ADDD1N
                 	SUBI R30,LOW(-@0)
                 	SBCI R31,HIGH(-@0)
                 	SBCI R22,BYTE3(-@0)
                 	SBCI R23,BYTE4(-@0)
                 	.ENDM
                 
                 	.MACRO __ADDD2N
                 	SUBI R26,LOW(-@0)
                 	SBCI R27,HIGH(-@0)
                 	SBCI R24,BYTE3(-@0)
                 	SBCI R25,BYTE4(-@0)
                 	.ENDM
                 
                 	.MACRO __SUBD1N
                 	SUBI R30,LOW(@0)
                 	SBCI R31,HIGH(@0)
                 	SBCI R22,BYTE3(@0)
                 	SBCI R23,BYTE4(@0)
                 	.ENDM
                 
                 	.MACRO __SUBD2N
                 	SUBI R26,LOW(@0)
                 	SBCI R27,HIGH(@0)
                 	SBCI R24,BYTE3(@0)
                 	SBCI R25,BYTE4(@0)
                 	.ENDM
                 
                 	.MACRO __ANDBMNN
                 	LDS  R30,@0+(@1)
                 	ANDI R30,LOW(@2)
                 	STS  @0+(@1),R30
                 	.ENDM
                 
                 	.MACRO __ANDWMNN
                 	LDS  R30,@0+(@1)
                 	ANDI R30,LOW(@2)
                 	STS  @0+(@1),R30
                 	LDS  R30,@0+(@1)+1
                 	ANDI R30,HIGH(@2)
                 	STS  @0+(@1)+1,R30
                 	.ENDM
                 
                 	.MACRO __ANDD1N
                 	ANDI R30,LOW(@0)
                 	ANDI R31,HIGH(@0)
                 	ANDI R22,BYTE3(@0)
                 	ANDI R23,BYTE4(@0)
                 	.ENDM
                 
                 	.MACRO __ANDD2N
                 	ANDI R26,LOW(@0)
                 	ANDI R27,HIGH(@0)
                 	ANDI R24,BYTE3(@0)
                 	ANDI R25,BYTE4(@0)
                 	.ENDM
                 
                 	.MACRO __ORBMNN
                 	LDS  R30,@0+(@1)
                 	ORI  R30,LOW(@2)
                 	STS  @0+(@1),R30
                 	.ENDM
                 
                 	.MACRO __ORWMNN
                 	LDS  R30,@0+(@1)
                 	ORI  R30,LOW(@2)
                 	STS  @0+(@1),R30
                 	LDS  R30,@0+(@1)+1
                 	ORI  R30,HIGH(@2)
                 	STS  @0+(@1)+1,R30
                 	.ENDM
                 
                 	.MACRO __ORD1N
                 	ORI  R30,LOW(@0)
                 	ORI  R31,HIGH(@0)
                 	ORI  R22,BYTE3(@0)
                 	ORI  R23,BYTE4(@0)
                 	.ENDM
                 
                 	.MACRO __ORD2N
                 	ORI  R26,LOW(@0)
                 	ORI  R27,HIGH(@0)
                 	ORI  R24,BYTE3(@0)
                 	ORI  R25,BYTE4(@0)
                 	.ENDM
                 
                 	.MACRO __DELAY_USB
                 	LDI  R24,LOW(@0)
                 __DELAY_USB_LOOP:
                 	DEC  R24
                 	BRNE __DELAY_USB_LOOP
                 	.ENDM
                 
                 	.MACRO __DELAY_USW
                 	LDI  R24,LOW(@0)
                 	LDI  R25,HIGH(@0)
                 __DELAY_USW_LOOP:
                 	SBIW R24,1
                 	BRNE __DELAY_USW_LOOP
                 	.ENDM
                 
                 	.MACRO __GETD1S
                 	LDD  R30,Y+@0
                 	LDD  R31,Y+@0+1
                 	LDD  R22,Y+@0+2
                 	LDD  R23,Y+@0+3
                 	.ENDM
                 
                 	.MACRO __GETD2S
                 	LDD  R26,Y+@0
                 	LDD  R27,Y+@0+1
                 	LDD  R24,Y+@0+2
                 	LDD  R25,Y+@0+3
                 	.ENDM
                 
                 	.MACRO __PUTD1S
                 	STD  Y+@0,R30
                 	STD  Y+@0+1,R31
                 	STD  Y+@0+2,R22
                 	STD  Y+@0+3,R23
                 	.ENDM
                 
                 	.MACRO __PUTD2S
                 	STD  Y+@0,R26
                 	STD  Y+@0+1,R27
                 	STD  Y+@0+2,R24
                 	STD  Y+@0+3,R25
                 	.ENDM
                 
                 	.MACRO __PUTDZ2
                 	STD  Z+@0,R26
                 	STD  Z+@0+1,R27
                 	STD  Z+@0+2,R24
                 	STD  Z+@0+3,R25
                 	.ENDM
                 
                 	.MACRO __CLRD1S
                 	STD  Y+@0,R30
                 	STD  Y+@0+1,R30
                 	STD  Y+@0+2,R30
                 	STD  Y+@0+3,R30
                 	.ENDM
                 
                 	.MACRO __POINTB1MN
                 	LDI  R30,LOW(@0+(@1))
                 	.ENDM
                 
                 	.MACRO __POINTW1MN
                 	LDI  R30,LOW(@0+(@1))
                 	LDI  R31,HIGH(@0+(@1))
                 	.ENDM
                 
                 	.MACRO __POINTD1M
                 	LDI  R30,LOW(@0)
                 	LDI  R31,HIGH(@0)
                 	LDI  R22,BYTE3(@0)
                 	LDI  R23,BYTE4(@0)
                 	.ENDM
                 
                 	.MACRO __POINTW1FN
                 	LDI  R30,LOW(2*@0+(@1))
                 	LDI  R31,HIGH(2*@0+(@1))
                 	.ENDM
                 
                 	.MACRO __POINTD1FN
                 	LDI  R30,LOW(2*@0+(@1))
                 	LDI  R31,HIGH(2*@0+(@1))
                 	LDI  R22,BYTE3(2*@0+(@1))
                 	LDI  R23,BYTE4(2*@0+(@1))
                 	.ENDM
                 
                 	.MACRO __POINTB2MN
                 	LDI  R26,LOW(@0+(@1))
                 	.ENDM
                 
                 	.MACRO __POINTW2MN
                 	LDI  R26,LOW(@0+(@1))
                 	LDI  R27,HIGH(@0+(@1))
                 	.ENDM
                 
                 	.MACRO __POINTW2FN
                 	LDI  R26,LOW(2*@0+(@1))
                 	LDI  R27,HIGH(2*@0+(@1))
                 	.ENDM
                 
                 	.MACRO __POINTD2FN
                 	LDI  R26,LOW(2*@0+(@1))
                 	LDI  R27,HIGH(2*@0+(@1))
                 	LDI  R24,BYTE3(2*@0+(@1))
                 	LDI  R25,BYTE4(2*@0+(@1))
                 	.ENDM
                 
                 	.MACRO __POINTBRM
                 	LDI  R@0,LOW(@1)
                 	.ENDM
                 
                 	.MACRO __POINTWRM
                 	LDI  R@0,LOW(@2)
                 	LDI  R@1,HIGH(@2)
                 	.ENDM
                 
                 	.MACRO __POINTBRMN
                 	LDI  R@0,LOW(@1+(@2))
                 	.ENDM
                 
                 	.MACRO __POINTWRMN
                 	LDI  R@0,LOW(@2+(@3))
                 	LDI  R@1,HIGH(@2+(@3))
                 	.ENDM
                 
                 	.MACRO __POINTWRFN
                 	LDI  R@0,LOW(@2*2+(@3))
                 	LDI  R@1,HIGH(@2*2+(@3))
                 	.ENDM
                 
                 	.MACRO __GETD1N
                 	LDI  R30,LOW(@0)
                 	LDI  R31,HIGH(@0)
                 	LDI  R22,BYTE3(@0)
                 	LDI  R23,BYTE4(@0)
                 	.ENDM
                 
                 	.MACRO __GETD2N
                 	LDI  R26,LOW(@0)
                 	LDI  R27,HIGH(@0)
                 	LDI  R24,BYTE3(@0)
                 	LDI  R25,BYTE4(@0)
                 	.ENDM
                 
                 	.MACRO __GETB1MN
                 	LDS  R30,@0+(@1)
                 	.ENDM
                 
                 	.MACRO __GETB1HMN
                 	LDS  R31,@0+(@1)
                 	.ENDM
                 
                 	.MACRO __GETW1MN
                 	LDS  R30,@0+(@1)
                 	LDS  R31,@0+(@1)+1
                 	.ENDM
                 
                 	.MACRO __GETD1MN
                 	LDS  R30,@0+(@1)
                 	LDS  R31,@0+(@1)+1
                 	LDS  R22,@0+(@1)+2
                 	LDS  R23,@0+(@1)+3
                 	.ENDM
                 
                 	.MACRO __GETBRMN
                 	LDS  R@0,@1+(@2)
                 	.ENDM
                 
                 	.MACRO __GETWRMN
                 	LDS  R@0,@2+(@3)
                 	LDS  R@1,@2+(@3)+1
                 	.ENDM
                 
                 	.MACRO __GETWRZ
                 	LDD  R@0,Z+@2
                 	LDD  R@1,Z+@2+1
                 	.ENDM
                 
                 	.MACRO __GETD2Z
                 	LDD  R26,Z+@0
                 	LDD  R27,Z+@0+1
                 	LDD  R24,Z+@0+2
                 	LDD  R25,Z+@0+3
                 	.ENDM
                 
                 	.MACRO __GETB2MN
                 	LDS  R26,@0+(@1)
                 	.ENDM
                 
                 	.MACRO __GETW2MN
                 	LDS  R26,@0+(@1)
                 	LDS  R27,@0+(@1)+1
                 	.ENDM
                 
                 	.MACRO __GETD2MN
                 	LDS  R26,@0+(@1)
                 	LDS  R27,@0+(@1)+1
                 	LDS  R24,@0+(@1)+2
                 	LDS  R25,@0+(@1)+3
                 	.ENDM
                 
                 	.MACRO __PUTB1MN
                 	STS  @0+(@1),R30
                 	.ENDM
                 
                 	.MACRO __PUTW1MN
                 	STS  @0+(@1),R30
                 	STS  @0+(@1)+1,R31
                 	.ENDM
                 
                 	.MACRO __PUTD1MN
                 	STS  @0+(@1),R30
                 	STS  @0+(@1)+1,R31
                 	STS  @0+(@1)+2,R22
                 	STS  @0+(@1)+3,R23
                 	.ENDM
                 
                 	.MACRO __PUTB1EN
                 	LDI  R26,LOW(@0+(@1))
                 	LDI  R27,HIGH(@0+(@1))
                 	CALL __EEPROMWRB
                 	.ENDM
                 
                 	.MACRO __PUTW1EN
                 	LDI  R26,LOW(@0+(@1))
                 	LDI  R27,HIGH(@0+(@1))
                 	CALL __EEPROMWRW
                 	.ENDM
                 
                 	.MACRO __PUTD1EN
                 	LDI  R26,LOW(@0+(@1))
                 	LDI  R27,HIGH(@0+(@1))
                 	CALL __EEPROMWRD
                 	.ENDM
                 
                 	.MACRO __PUTBR0MN
                 	STS  @0+(@1),R0
                 	.ENDM
                 
                 	.MACRO __PUTBMRN
                 	STS  @0+(@1),R@2
                 	.ENDM
                 
                 	.MACRO __PUTWMRN
                 	STS  @0+(@1),R@2
                 	STS  @0+(@1)+1,R@3
                 	.ENDM
                 
                 	.MACRO __PUTBZR
                 	STD  Z+@1,R@0
                 	.ENDM
                 
                 	.MACRO __PUTWZR
                 	STD  Z+@2,R@0
                 	STD  Z+@2+1,R@1
                 	.ENDM
                 
                 	.MACRO __GETW1R
                 	MOV  R30,R@0
                 	MOV  R31,R@1
                 	.ENDM
                 
                 	.MACRO __GETW2R
                 	MOV  R26,R@0
                 	MOV  R27,R@1
                 	.ENDM
                 
                 	.MACRO __GETWRN
                 	LDI  R@0,LOW(@2)
                 	LDI  R@1,HIGH(@2)
                 	.ENDM
                 
                 	.MACRO __PUTW1R
                 	MOV  R@0,R30
                 	MOV  R@1,R31
                 	.ENDM
                 
                 	.MACRO __PUTW2R
                 	MOV  R@0,R26
                 	MOV  R@1,R27
                 	.ENDM
                 
                 	.MACRO __ADDWRN
                 	SUBI R@0,LOW(-@2)
                 	SBCI R@1,HIGH(-@2)
                 	.ENDM
                 
                 	.MACRO __ADDWRR
                 	ADD  R@0,R@2
                 	ADC  R@1,R@3
                 	.ENDM
                 
                 	.MACRO __SUBWRN
                 	SUBI R@0,LOW(@2)
                 	SBCI R@1,HIGH(@2)
                 	.ENDM
                 
                 	.MACRO __SUBWRR
                 	SUB  R@0,R@2
                 	SBC  R@1,R@3
                 	.ENDM
                 
                 	.MACRO __ANDWRN
                 	ANDI R@0,LOW(@2)
                 	ANDI R@1,HIGH(@2)
                 	.ENDM
                 
                 	.MACRO __ANDWRR
                 	AND  R@0,R@2
                 	AND  R@1,R@3
                 	.ENDM
                 
                 	.MACRO __ORWRN
                 	ORI  R@0,LOW(@2)
                 	ORI  R@1,HIGH(@2)
                 	.ENDM
                 
                 	.MACRO __ORWRR
                 	OR   R@0,R@2
                 	OR   R@1,R@3
                 	.ENDM
                 
                 	.MACRO __EORWRR
                 	EOR  R@0,R@2
                 	EOR  R@1,R@3
                 	.ENDM
                 
                 	.MACRO __GETWRS
                 	LDD  R@0,Y+@2
                 	LDD  R@1,Y+@2+1
                 	.ENDM
                 
                 	.MACRO __PUTBSR
                 	STD  Y+@1,R@0
                 	.ENDM
                 
                 	.MACRO __PUTWSR
                 	STD  Y+@2,R@0
                 	STD  Y+@2+1,R@1
                 	.ENDM
                 
                 	.MACRO __MOVEWRR
                 	MOV  R@0,R@2
                 	MOV  R@1,R@3
                 	.ENDM
                 
                 	.MACRO __INWR
                 	IN   R@0,@2
                 	IN   R@1,@2+1
                 	.ENDM
                 
                 	.MACRO __OUTWR
                 	OUT  @2+1,R@1
                 	OUT  @2,R@0
                 	.ENDM
                 
                 	.MACRO __CALL1MN
                 	LDS  R30,@0+(@1)
                 	LDS  R31,@0+(@1)+1
                 	ICALL
                 	.ENDM
                 
                 	.MACRO __CALL1FN
                 	LDI  R30,LOW(2*@0+(@1))
                 	LDI  R31,HIGH(2*@0+(@1))
                 	CALL __GETW1PF
                 	ICALL
                 	.ENDM
                 
                 	.MACRO __CALL2EN
                 	PUSH R26
                 	PUSH R27
                 	LDI  R26,LOW(@0+(@1))
                 	LDI  R27,HIGH(@0+(@1))
                 	CALL __EEPROMRDW
                 	POP  R27
                 	POP  R26
                 	ICALL
                 	.ENDM
                 
                 	.MACRO __CALL2EX
                 	SUBI R26,LOW(-@0)
                 	SBCI R27,HIGH(-@0)
                 	CALL __EEPROMRDD
                 	ICALL
                 	.ENDM
                 
                 	.MACRO __GETW1STACK
                 	IN   R30,SPL
                 	IN   R31,SPH
                 	ADIW R30,@0+1
                 	LD   R0,Z+
                 	LD   R31,Z
                 	MOV  R30,R0
                 	.ENDM
                 
                 	.MACRO __GETD1STACK
                 	IN   R30,SPL
                 	IN   R31,SPH
                 	ADIW R30,@0+1
                 	LD   R0,Z+
                 	LD   R1,Z+
                 	LD   R22,Z
                 	MOVW R30,R0
                 	.ENDM
                 
                 	.MACRO __NBST
                 	BST  R@0,@1
                 	IN   R30,SREG
                 	LDI  R31,0x40
                 	EOR  R30,R31
                 	OUT  SREG,R30
                 	.ENDM
                 
                 
                 	.MACRO __PUTB1SN
                 	LDD  R26,Y+@0
                 	LDD  R27,Y+@0+1
                 	SUBI R26,LOW(-@1)
                 	SBCI R27,HIGH(-@1)
                 	ST   X,R30
                 	.ENDM
                 
                 	.MACRO __PUTW1SN
                 	LDD  R26,Y+@0
                 	LDD  R27,Y+@0+1
                 	SUBI R26,LOW(-@1)
                 	SBCI R27,HIGH(-@1)
                 	ST   X+,R30
                 	ST   X,R31
                 	.ENDM
                 
                 	.MACRO __PUTD1SN
                 	LDD  R26,Y+@0
                 	LDD  R27,Y+@0+1
                 	SUBI R26,LOW(-@1)
                 	SBCI R27,HIGH(-@1)
                 	CALL __PUTDP1
                 	.ENDM
                 
                 	.MACRO __PUTB1SNS
                 	LDD  R26,Y+@0
                 	LDD  R27,Y+@0+1
                 	ADIW R26,@1
                 	ST   X,R30
                 	.ENDM
                 
                 	.MACRO __PUTW1SNS
                 	LDD  R26,Y+@0
                 	LDD  R27,Y+@0+1
                 	ADIW R26,@1
                 	ST   X+,R30
                 	ST   X,R31
                 	.ENDM
                 
                 	.MACRO __PUTD1SNS
                 	LDD  R26,Y+@0
                 	LDD  R27,Y+@0+1
                 	ADIW R26,@1
                 	CALL __PUTDP1
                 	.ENDM
                 
                 	.MACRO __PUTB1PMN
                 	LDS  R26,@0
                 	LDS  R27,@0+1
                 	SUBI R26,LOW(-@1)
                 	SBCI R27,HIGH(-@1)
                 	ST   X,R30
                 	.ENDM
                 
                 	.MACRO __PUTW1PMN
                 	LDS  R26,@0
                 	LDS  R27,@0+1
                 	SUBI R26,LOW(-@1)
                 	SBCI R27,HIGH(-@1)
                 	ST   X+,R30
                 	ST   X,R31
                 	.ENDM
                 
                 	.MACRO __PUTD1PMN
                 	LDS  R26,@0
                 	LDS  R27,@0+1
                 	SUBI R26,LOW(-@1)
                 	SBCI R27,HIGH(-@1)
                 	CALL __PUTDP1
                 	.ENDM
                 
                 	.MACRO __PUTB1PMNS
                 	LDS  R26,@0
                 	LDS  R27,@0+1
                 	ADIW R26,@1
                 	ST   X,R30
                 	.ENDM
                 
                 	.MACRO __PUTW1PMNS
                 	LDS  R26,@0
                 	LDS  R27,@0+1
                 	ADIW R26,@1
                 	ST   X+,R30
                 	ST   X,R31
                 	.ENDM
                 
                 	.MACRO __PUTD1PMNS
                 	LDS  R26,@0
                 	LDS  R27,@0+1
                 	ADIW R26,@1
                 	CALL __PUTDP1
                 	.ENDM
                 
                 	.MACRO __PUTB1RN
                 	MOVW R26,R@0
                 	SUBI R26,LOW(-@1)
                 	SBCI R27,HIGH(-@1)
                 	ST   X,R30
                 	.ENDM
                 
                 	.MACRO __PUTW1RN
                 	MOVW R26,R@0
                 	SUBI R26,LOW(-@1)
                 	SBCI R27,HIGH(-@1)
                 	ST   X+,R30
                 	ST   X,R31
                 	.ENDM
                 
                 	.MACRO __PUTD1RN
                 	MOVW R26,R@0
                 	SUBI R26,LOW(-@1)
                 	SBCI R27,HIGH(-@1)
                 	CALL __PUTDP1
                 	.ENDM
                 
                 	.MACRO __PUTB1RNS
                 	MOVW R26,R@0
                 	ADIW R26,@1
                 	ST   X,R30
                 	.ENDM
                 
                 	.MACRO __PUTW1RNS
                 	MOVW R26,R@0
                 	ADIW R26,@1
                 	ST   X+,R30
                 	ST   X,R31
                 	.ENDM
                 
                 	.MACRO __PUTD1RNS
                 	MOVW R26,R@0
                 	ADIW R26,@1
                 	CALL __PUTDP1
                 	.ENDM
                 
                 	.MACRO __PUTB1RON
                 	MOV  R26,R@0
                 	MOV  R27,R@1
                 	SUBI R26,LOW(-@2)
                 	SBCI R27,HIGH(-@2)
                 	ST   X,R30
                 	.ENDM
                 
                 	.MACRO __PUTW1RON
                 	MOV  R26,R@0
                 	MOV  R27,R@1
                 	SUBI R26,LOW(-@2)
                 	SBCI R27,HIGH(-@2)
                 	ST   X+,R30
                 	ST   X,R31
                 	.ENDM
                 
                 	.MACRO __PUTD1RON
                 	MOV  R26,R@0
                 	MOV  R27,R@1
                 	SUBI R26,LOW(-@2)
                 	SBCI R27,HIGH(-@2)
                 	CALL __PUTDP1
                 	.ENDM
                 
                 	.MACRO __PUTB1RONS
                 	MOV  R26,R@0
                 	MOV  R27,R@1
                 	ADIW R26,@2
                 	ST   X,R30
                 	.ENDM
                 
                 	.MACRO __PUTW1RONS
                 	MOV  R26,R@0
                 	MOV  R27,R@1
                 	ADIW R26,@2
                 	ST   X+,R30
                 	ST   X,R31
                 	.ENDM
                 
                 	.MACRO __PUTD1RONS
                 	MOV  R26,R@0
                 	MOV  R27,R@1
                 	ADIW R26,@2
                 	CALL __PUTDP1
                 	.ENDM
                 
                 
                 	.MACRO __GETB1SX
                 	MOVW R30,R28
                 	SUBI R30,LOW(-@0)
                 	SBCI R31,HIGH(-@0)
                 	LD   R30,Z
                 	.ENDM
                 
                 	.MACRO __GETB1HSX
                 	MOVW R30,R28
                 	SUBI R30,LOW(-@0)
                 	SBCI R31,HIGH(-@0)
                 	LD   R31,Z
                 	.ENDM
                 
                 	.MACRO __GETW1SX
                 	MOVW R30,R28
                 	SUBI R30,LOW(-@0)
                 	SBCI R31,HIGH(-@0)
                 	LD   R0,Z+
                 	LD   R31,Z
                 	MOV  R30,R0
                 	.ENDM
                 
                 	.MACRO __GETD1SX
                 	MOVW R30,R28
                 	SUBI R30,LOW(-@0)
                 	SBCI R31,HIGH(-@0)
                 	LD   R0,Z+
                 	LD   R1,Z+
                 	LD   R22,Z+
                 	LD   R23,Z
                 	MOVW R30,R0
                 	.ENDM
                 
                 	.MACRO __GETB2SX
                 	MOVW R26,R28
                 	SUBI R26,LOW(-@0)
                 	SBCI R27,HIGH(-@0)
                 	LD   R26,X
                 	.ENDM
                 
                 	.MACRO __GETW2SX
                 	MOVW R26,R28
                 	SUBI R26,LOW(-@0)
                 	SBCI R27,HIGH(-@0)
                 	LD   R0,X+
                 	LD   R27,X
                 	MOV  R26,R0
                 	.ENDM
                 
                 	.MACRO __GETD2SX
                 	MOVW R26,R28
                 	SUBI R26,LOW(-@0)
                 	SBCI R27,HIGH(-@0)
                 	LD   R0,X+
                 	LD   R1,X+
                 	LD   R24,X+
                 	LD   R25,X
                 	MOVW R26,R0
                 	.ENDM
                 
                 	.MACRO __GETBRSX
                 	MOVW R30,R28
                 	SUBI R30,LOW(-@1)
                 	SBCI R31,HIGH(-@1)
                 	LD   R@0,Z
                 	.ENDM
                 
                 	.MACRO __GETWRSX
                 	MOVW R30,R28
                 	SUBI R30,LOW(-@2)
                 	SBCI R31,HIGH(-@2)
                 	LD   R@0,Z+
                 	LD   R@1,Z
                 	.ENDM
                 
                 	.MACRO __GETBRSX2
                 	MOVW R26,R28
                 	SUBI R26,LOW(-@1)
                 	SBCI R27,HIGH(-@1)
                 	LD   R@0,X
                 	.ENDM
                 
                 	.MACRO __GETWRSX2
                 	MOVW R26,R28
                 	SUBI R26,LOW(-@2)
                 	SBCI R27,HIGH(-@2)
                 	LD   R@0,X+
                 	LD   R@1,X
                 	.ENDM
                 
                 	.MACRO __LSLW8SX
                 	MOVW R30,R28
                 	SUBI R30,LOW(-@0)
                 	SBCI R31,HIGH(-@0)
                 	LD   R31,Z
                 	CLR  R30
                 	.ENDM
                 
                 	.MACRO __PUTB1SX
                 	MOVW R26,R28
                 	SUBI R26,LOW(-@0)
                 	SBCI R27,HIGH(-@0)
                 	ST   X,R30
                 	.ENDM
                 
                 	.MACRO __PUTW1SX
                 	MOVW R26,R28
                 	SUBI R26,LOW(-@0)
                 	SBCI R27,HIGH(-@0)
                 	ST   X+,R30
                 	ST   X,R31
                 	.ENDM
                 
                 	.MACRO __PUTD1SX
                 	MOVW R26,R28
                 	SUBI R26,LOW(-@0)
                 	SBCI R27,HIGH(-@0)
                 	ST   X+,R30
                 	ST   X+,R31
                 	ST   X+,R22
                 	ST   X,R23
                 	.ENDM
                 
                 	.MACRO __CLRW1SX
                 	MOVW R26,R28
                 	SUBI R26,LOW(-@0)
                 	SBCI R27,HIGH(-@0)
                 	ST   X+,R30
                 	ST   X,R30
                 	.ENDM
                 
                 	.MACRO __CLRD1SX
                 	MOVW R26,R28
                 	SUBI R26,LOW(-@0)
                 	SBCI R27,HIGH(-@0)
                 	ST   X+,R30
                 	ST   X+,R30
                 	ST   X+,R30
                 	ST   X,R30
                 	.ENDM
                 
                 	.MACRO __PUTB2SX
                 	MOVW R30,R28
                 	SUBI R30,LOW(-@0)
                 	SBCI R31,HIGH(-@0)
                 	ST   Z,R26
                 	.ENDM
                 
                 	.MACRO __PUTW2SX
                 	MOVW R30,R28
                 	SUBI R30,LOW(-@0)
                 	SBCI R31,HIGH(-@0)
                 	ST   Z+,R26
                 	ST   Z,R27
                 	.ENDM
                 
                 	.MACRO __PUTD2SX
                 	MOVW R30,R28
                 	SUBI R30,LOW(-@0)
                 	SBCI R31,HIGH(-@0)
                 	ST   Z+,R26
                 	ST   Z+,R27
                 	ST   Z+,R24
                 	ST   Z,R25
                 	.ENDM
                 
                 	.MACRO __PUTBSRX
                 	MOVW R30,R28
                 	SUBI R30,LOW(-@1)
                 	SBCI R31,HIGH(-@1)
                 	ST   Z,R@0
                 	.ENDM
                 
                 	.MACRO __PUTWSRX
                 	MOVW R30,R28
                 	SUBI R30,LOW(-@2)
                 	SBCI R31,HIGH(-@2)
                 	ST   Z+,R@0
                 	ST   Z,R@1
                 	.ENDM
                 
                 	.MACRO __PUTB1SNX
                 	MOVW R26,R28
                 	SUBI R26,LOW(-@0)
                 	SBCI R27,HIGH(-@0)
                 	LD   R0,X+
                 	LD   R27,X
                 	MOV  R26,R0
                 	SUBI R26,LOW(-@1)
                 	SBCI R27,HIGH(-@1)
                 	ST   X,R30
                 	.ENDM
                 
                 	.MACRO __PUTW1SNX
                 	MOVW R26,R28
                 	SUBI R26,LOW(-@0)
                 	SBCI R27,HIGH(-@0)
                 	LD   R0,X+
                 	LD   R27,X
                 	MOV  R26,R0
                 	SUBI R26,LOW(-@1)
                 	SBCI R27,HIGH(-@1)
                 	ST   X+,R30
                 	ST   X,R31
                 	.ENDM
                 
                 	.MACRO __PUTD1SNX
                 	MOVW R26,R28
                 	SUBI R26,LOW(-@0)
                 	SBCI R27,HIGH(-@0)
                 	LD   R0,X+
                 	LD   R27,X
                 	MOV  R26,R0
                 	SUBI R26,LOW(-@1)
                 	SBCI R27,HIGH(-@1)
                 	ST   X+,R30
                 	ST   X+,R31
                 	ST   X+,R22
                 	ST   X,R23
                 	.ENDM
                 
                 	.MACRO __MULBRR
                 	MULS R@0,R@1
                 	MOVW R30,R0
                 	.ENDM
                 
                 	.MACRO __MULBRRU
                 	MUL  R@0,R@1
                 	MOVW R30,R0
                 	.ENDM
                 
                 	.MACRO __MULBRR0
                 	MULS R@0,R@1
                 	.ENDM
                 
                 	.MACRO __MULBRRU0
                 	MUL  R@0,R@1
                 	.ENDM
                 
                 	.MACRO __MULBNWRU
                 	LDI  R26,@2
                 	MUL  R26,R@0
                 	MOVW R30,R0
                 	MUL  R26,R@1
                 	ADD  R31,R0
                 	.ENDM
                 
                 ;NAME DEFINITIONS FOR GLOBAL VARIABLES ALLOCATED TO REGISTERS
                 	.DEF _BeepT=R5
                 	.DEF _displ_num=R4
                 	.DEF _newButton=R7
                 	.DEF _newSetButt=R6
                 	.DEF _ds18b20=R9
                 	.DEF _pointY=R8
                 	.DEF _DHTexist=R11
                 	.DEF _signchar=R10
                 	.DEF _intval=R13
                 	.DEF _frcval=R12
                 
                 	.CSEG
                 	.ORG 0x00
                 
                 ;START OF CODE MARKER
                 __START_OF_CODE:
                 
                 ;INTERRUPT VECTORS
000000 940c 0d24 	JMP  __RESET
000002 940c 1d5f 	JMP  _ext_int0_isr
000004 940c 0000 	JMP  0x00
000006 940c 0000 	JMP  0x00
000008 940c 0000 	JMP  0x00
00000a 940c 0000 	JMP  0x00
00000c 940c 0000 	JMP  0x00
00000e 940c 0000 	JMP  0x00
000010 940c 0000 	JMP  0x00
000012 940c 1d70 	JMP  _timer_comp_isr
000014 940c 0000 	JMP  0x00
000016 940c 0000 	JMP  0x00
000018 940c 0000 	JMP  0x00
00001a 940c 0000 	JMP  0x00
00001c 940c 0000 	JMP  0x00
00001e 940c 0000 	JMP  0x00
000020 940c 0000 	JMP  0x00
000022 940c 0000 	JMP  0x00
000024 940c 0000 	JMP  0x00
000026 940c 203b 	JMP  _twi_int_handler
000028 940c 0000 	JMP  0x00
                 
                 _Font11x18:
00002a 0000
00002b 0000
00002c 0000
00002d 0000      	.DB  0x0,0x0,0x0,0x0,0x0,0x0,0x0,0x0
00002e 0000
00002f 0000
000030 0000
000031 0000      	.DB  0x0,0x0,0x0,0x0,0x0,0x0,0x0,0x0
000032 0000
000033 0000
000034 0000
000035 0000      	.DB  0x0,0x0,0x0,0x0,0x0,0x0,0x0,0x0
000036 0000
000037 0000
000038 0000
000039 0000      	.DB  0x0,0x0,0x0,0x0,0x0,0x0,0x0,0x0
00003a 0000
00003b 0000
00003c 0000
00003d 0c00      	.DB  0x0,0x0,0x0,0x0,0x0,0x0,0x0,0xC
00003e 0c00
00003f 0c00
000040 0c00
000041 0c00      	.DB  0x0,0xC,0x0,0xC,0x0,0xC,0x0,0xC
000042 0c00
000043 0c00
000044 0c00
000045 0c00      	.DB  0x0,0xC,0x0,0xC,0x0,0xC,0x0,0xC
000046 0c00
000047 0c00
000048 0000
000049 0c00      	.DB  0x0,0xC,0x0,0xC,0x0,0x0,0x0,0xC
00004a 0c00
00004b 0000
00004c 0000
00004d 0000      	.DB  0x0,0xC,0x0,0x0,0x0,0x0,0x0,0x0
00004e 0000
00004f 1b00
000050 1b00
000051 1b00      	.DB  0x0,0x0,0x0,0x1B,0x0,0x1B,0x0,0x1B
000052 1b00
000053 1b00
000054 0000
000055 0000      	.DB  0x0,0x1B,0x0,0x1B,0x0,0x0,0x0,0x0
000056 0000
000057 0000
000058 0000
000059 0000      	.DB  0x0,0x0,0x0,0x0,0x0,0x0,0x0,0x0
00005a 0000
00005b 0000
00005c 0000
00005d 0000      	.DB  0x0,0x0,0x0,0x0,0x0,0x0,0x0,0x0
00005e 0000
00005f 0000
000060 0000
000061 1980      	.DB  0x0,0x0,0x0,0x0,0x0,0x0,0x80,0x19
000062 1980
000063 1980
000064 1980
000065 7fc0      	.DB  0x80,0x19,0x80,0x19,0x80,0x19,0xC0,0x7F
000066 7fc0
000067 1980
000068 3300
000069 7fc0      	.DB  0xC0,0x7F,0x80,0x19,0x0,0x33,0xC0,0x7F
00006a 7fc0
00006b 3300
00006c 3300
00006d 3300      	.DB  0xC0,0x7F,0x0,0x33,0x0,0x33,0x0,0x33
00006e 3300
00006f 0000
000070 0000
000071 0000      	.DB  0x0,0x33,0x0,0x0,0x0,0x0,0x0,0x0
000072 0000
000073 1e00
000074 3f00
000075 7580      	.DB  0x0,0x0,0x0,0x1E,0x0,0x3F,0x80,0x75
000076 6580
000077 7400
000078 3c00
000079 1e00      	.DB  0x80,0x65,0x0,0x74,0x0,0x3C,0x0,0x1E
00007a 0700
00007b 0580
00007c 6580
00007d 6580      	.DB  0x0,0x7,0x80,0x5,0x80,0x65,0x80,0x65
00007e 7580
00007f 3f00
000080 1e00
000081 0400      	.DB  0x80,0x75,0x0,0x3F,0x0,0x1E,0x0,0x4
000082 0400
000083 0000
000084 0000
000085 7000      	.DB  0x0,0x4,0x0,0x0,0x0,0x0,0x0,0x70
000086 d800
000087 d840
000088 d8c0
000089 d980      	.DB  0x0,0xD8,0x40,0xD8,0xC0,0xD8,0x80,0xD9
00008a 7300
00008b 0600
00008c 0c00
00008d 1b80      	.DB  0x0,0x73,0x0,0x6,0x0,0xC,0x80,0x1B
00008e 36c0
00008f 66c0
000090 46c0
000091 06c0      	.DB  0xC0,0x36,0xC0,0x66,0xC0,0x46,0xC0,0x6
000092 0380
000093 0000
000094 0000
000095 0000      	.DB  0x80,0x3,0x0,0x0,0x0,0x0,0x0,0x0
000096 0000
000097 1e00
000098 3f00
000099 3300      	.DB  0x0,0x0,0x0,0x1E,0x0,0x3F,0x0,0x33
00009a 3300
00009b 3300
00009c 1e00
00009d 0c00      	.DB  0x0,0x33,0x0,0x33,0x0,0x1E,0x0,0xC
00009e 3cc0
00009f 66c0
0000a0 6380
0000a1 6180      	.DB  0xC0,0x3C,0xC0,0x66,0x80,0x63,0x80,0x61
0000a2 6380
0000a3 3ec0
0000a4 1c80
0000a5 0000      	.DB  0x80,0x63,0xC0,0x3E,0x80,0x1C,0x0,0x0
0000a6 0000
0000a7 0000
0000a8 0000
0000a9 0c00      	.DB  0x0,0x0,0x0,0x0,0x0,0x0,0x0,0xC
0000aa 0c00
0000ab 0c00
0000ac 0c00
0000ad 0c00      	.DB  0x0,0xC,0x0,0xC,0x0,0xC,0x0,0xC
0000ae 0000
0000af 0000
0000b0 0000
0000b1 0000      	.DB  0x0,0x0,0x0,0x0,0x0,0x0,0x0,0x0
0000b2 0000
0000b3 0000
0000b4 0000
0000b5 0000      	.DB  0x0,0x0,0x0,0x0,0x0,0x0,0x0,0x0
0000b6 0000
0000b7 0000
0000b8 0000
0000b9 0000      	.DB  0x0,0x0,0x0,0x0,0x0,0x0,0x0,0x0
0000ba 0080
0000bb 0100
0000bc 0300
0000bd 0600      	.DB  0x80,0x0,0x0,0x1,0x0,0x3,0x0,0x6
0000be 0600
0000bf 0400
0000c0 0c00
0000c1 0c00      	.DB  0x0,0x6,0x0,0x4,0x0,0xC,0x0,0xC
0000c2 0c00
0000c3 0c00
0000c4 0c00
0000c5 0c00      	.DB  0x0,0xC,0x0,0xC,0x0,0xC,0x0,0xC
0000c6 0400
0000c7 0600
0000c8 0600
0000c9 0300      	.DB  0x0,0x4,0x0,0x6,0x0,0x6,0x0,0x3
0000ca 0100
0000cb 0080
0000cc 2000
0000cd 1000      	.DB  0x0,0x1,0x80,0x0,0x0,0x20,0x0,0x10
0000ce 1800
0000cf 0c00
0000d0 0c00
0000d1 0400      	.DB  0x0,0x18,0x0,0xC,0x0,0xC,0x0,0x4
0000d2 0600
0000d3 0600
0000d4 0600
0000d5 0600      	.DB  0x0,0x6,0x0,0x6,0x0,0x6,0x0,0x6
0000d6 0600
0000d7 0600
0000d8 0400
0000d9 0c00      	.DB  0x0,0x6,0x0,0x6,0x0,0x4,0x0,0xC
0000da 0c00
0000db 1800
0000dc 1000
0000dd 2000      	.DB  0x0,0xC,0x0,0x18,0x0,0x10,0x0,0x20
0000de 0000
0000df 0c00
0000e0 2d00
0000e1 3f00      	.DB  0x0,0x0,0x0,0xC,0x0,0x2D,0x0,0x3F
0000e2 1e00
0000e3 3300
0000e4 0000
0000e5 0000      	.DB  0x0,0x1E,0x0,0x33,0x0,0x0,0x0,0x0
0000e6 0000
0000e7 0000
0000e8 0000
0000e9 0000      	.DB  0x0,0x0,0x0,0x0,0x0,0x0,0x0,0x0
0000ea 0000
0000eb 0000
0000ec 0000
0000ed 0000      	.DB  0x0,0x0,0x0,0x0,0x0,0x0,0x0,0x0
0000ee 0000
0000ef 0000
0000f0 0000
0000f1 0000      	.DB  0x0,0x0,0x0,0x0,0x0,0x0,0x0,0x0
0000f2 0000
0000f3 0c00
0000f4 0c00
0000f5 0c00      	.DB  0x0,0x0,0x0,0xC,0x0,0xC,0x0,0xC
0000f6 0c00
0000f7 ffc0
0000f8 ffc0
0000f9 0c00      	.DB  0x0,0xC,0xC0,0xFF,0xC0,0xFF,0x0,0xC
0000fa 0c00
0000fb 0c00
0000fc 0c00
0000fd 0000      	.DB  0x0,0xC,0x0,0xC,0x0,0xC,0x0,0x0
0000fe 0000
0000ff 0000
000100 0000
000101 0000      	.DB  0x0,0x0,0x0,0x0,0x0,0x0,0x0,0x0
000102 0000
000103 0000
000104 0000
000105 0000      	.DB  0x0,0x0,0x0,0x0,0x0,0x0,0x0,0x0
000106 0000
000107 0000
000108 0000
000109 0000      	.DB  0x0,0x0,0x0,0x0,0x0,0x0,0x0,0x0
00010a 0000
00010b 0000
00010c 0000
00010d 0000      	.DB  0x0,0x0,0x0,0x0,0x0,0x0,0x0,0x0
00010e 0000
00010f 0c00
000110 0c00
000111 0400      	.DB  0x0,0x0,0x0,0xC,0x0,0xC,0x0,0x4
000112 0400
000113 0800
000114 0000
000115 0000      	.DB  0x0,0x4,0x0,0x8,0x0,0x0,0x0,0x0
000116 0000
000117 0000
000118 0000
000119 0000      	.DB  0x0,0x0,0x0,0x0,0x0,0x0,0x0,0x0
00011a 0000
00011b 0000
00011c 0000
00011d 1e00      	.DB  0x0,0x0,0x0,0x0,0x0,0x0,0x0,0x1E
00011e 1e00
00011f 0000
000120 0000
000121 0000      	.DB  0x0,0x1E,0x0,0x0,0x0,0x0,0x0,0x0
000122 0000
000123 0000
000124 0000
000125 0000      	.DB  0x0,0x0,0x0,0x0,0x0,0x0,0x0,0x0
000126 0000
000127 0000
000128 0000
000129 0000      	.DB  0x0,0x0,0x0,0x0,0x0,0x0,0x0,0x0
00012a 0000
00012b 0000
00012c 0000
00012d 0000      	.DB  0x0,0x0,0x0,0x0,0x0,0x0,0x0,0x0
00012e 0000
00012f 0000
000130 0000
000131 0000      	.DB  0x0,0x0,0x0,0x0,0x0,0x0,0x0,0x0
000132 0000
000133 0c00
000134 0c00
000135 0000      	.DB  0x0,0x0,0x0,0xC,0x0,0xC,0x0,0x0
000136 0000
000137 0000
000138 0000
000139 0300      	.DB  0x0,0x0,0x0,0x0,0x0,0x0,0x0,0x3
00013a 0300
00013b 0300
00013c 0600
00013d 0600      	.DB  0x0,0x3,0x0,0x3,0x0,0x6,0x0,0x6
00013e 0600
00013f 0600
000140 0c00
000141 0c00      	.DB  0x0,0x6,0x0,0x6,0x0,0xC,0x0,0xC
000142 0c00
000143 0c00
000144 1800
000145 1800      	.DB  0x0,0xC,0x0,0xC,0x0,0x18,0x0,0x18
000146 1800
000147 0000
000148 0000
000149 0000      	.DB  0x0,0x18,0x0,0x0,0x0,0x0,0x0,0x0
00014a 0000
00014b 1e00
00014c 3f00
00014d 3300      	.DB  0x0,0x0,0x0,0x1E,0x0,0x3F,0x0,0x33
00014e 6180
00014f 6180
000150 6180
000151 6d80      	.DB  0x80,0x61,0x80,0x61,0x80,0x61,0x80,0x6D
000152 6d80
000153 6180
000154 6180
000155 6180      	.DB  0x80,0x6D,0x80,0x61,0x80,0x61,0x80,0x61
000156 3300
000157 3f00
000158 1e00
000159 0000      	.DB  0x0,0x33,0x0,0x3F,0x0,0x1E,0x0,0x0
00015a 0000
00015b 0000
00015c 0000
00015d 0600      	.DB  0x0,0x0,0x0,0x0,0x0,0x0,0x0,0x6
00015e 0e00
00015f 1e00
000160 3600
000161 2600      	.DB  0x0,0xE,0x0,0x1E,0x0,0x36,0x0,0x26
000162 0600
000163 0600
000164 0600
000165 0600      	.DB  0x0,0x6,0x0,0x6,0x0,0x6,0x0,0x6
000166 0600
000167 0600
000168 0600
000169 0600      	.DB  0x0,0x6,0x0,0x6,0x0,0x6,0x0,0x6
00016a 0600
00016b 0000
00016c 0000
00016d 0000      	.DB  0x0,0x6,0x0,0x0,0x0,0x0,0x0,0x0
00016e 0000
00016f 1e00
000170 3f00
000171 7380      	.DB  0x0,0x0,0x0,0x1E,0x0,0x3F,0x80,0x73
000172 6180
000173 6180
000174 0180
000175 0300      	.DB  0x80,0x61,0x80,0x61,0x80,0x1,0x0,0x3
000176 0600
000177 0c00
000178 1800
000179 3000      	.DB  0x0,0x6,0x0,0xC,0x0,0x18,0x0,0x30
00017a 6000
00017b 7f80
00017c 7f80
00017d 0000      	.DB  0x0,0x60,0x80,0x7F,0x80,0x7F,0x0,0x0
00017e 0000
00017f 0000
000180 0000
000181 1c00      	.DB  0x0,0x0,0x0,0x0,0x0,0x0,0x0,0x1C
000182 3e00
000183 6300
000184 6300
000185 0300      	.DB  0x0,0x3E,0x0,0x63,0x0,0x63,0x0,0x3
000186 0e00
000187 0e00
000188 0300
000189 0180      	.DB  0x0,0xE,0x0,0xE,0x0,0x3,0x80,0x1
00018a 0180
00018b 6180
00018c 7380
00018d 3f00      	.DB  0x80,0x1,0x80,0x61,0x80,0x73,0x0,0x3F
00018e 1e00
00018f 0000
000190 0000
000191 0000      	.DB  0x0,0x1E,0x0,0x0,0x0,0x0,0x0,0x0
000192 0000
000193 0600
000194 0e00
000195 0e00      	.DB  0x0,0x0,0x0,0x6,0x0,0xE,0x0,0xE
000196 1e00
000197 1e00
000198 1600
000199 3600      	.DB  0x0,0x1E,0x0,0x1E,0x0,0x16,0x0,0x36
00019a 3600
00019b 6600
00019c 7f80
00019d 7f80      	.DB  0x0,0x36,0x0,0x66,0x80,0x7F,0x80,0x7F
00019e 0600
00019f 0600
0001a0 0600
0001a1 0000      	.DB  0x0,0x6,0x0,0x6,0x0,0x6,0x0,0x0
0001a2 0000
0001a3 0000
0001a4 0000
0001a5 7f00      	.DB  0x0,0x0,0x0,0x0,0x0,0x0,0x0,0x7F
0001a6 7f00
0001a7 6000
0001a8 6000
0001a9 6000      	.DB  0x0,0x7F,0x0,0x60,0x0,0x60,0x0,0x60
0001aa 6e00
0001ab 7f00
0001ac 6380
0001ad 0180      	.DB  0x0,0x6E,0x0,0x7F,0x80,0x63,0x80,0x1
0001ae 0180
0001af 6180
0001b0 7380
0001b1 3f00      	.DB  0x80,0x1,0x80,0x61,0x80,0x73,0x0,0x3F
0001b2 1e00
0001b3 0000
0001b4 0000
0001b5 0000      	.DB  0x0,0x1E,0x0,0x0,0x0,0x0,0x0,0x0
0001b6 0000
0001b7 1e00
0001b8 3f00
0001b9 3380      	.DB  0x0,0x0,0x0,0x1E,0x0,0x3F,0x80,0x33
0001ba 6180
0001bb 6000
0001bc 6e00
0001bd 7f00      	.DB  0x80,0x61,0x0,0x60,0x0,0x6E,0x0,0x7F
0001be 7380
0001bf 6180
0001c0 6180
0001c1 6180      	.DB  0x80,0x73,0x80,0x61,0x80,0x61,0x80,0x61
0001c2 3380
0001c3 3f00
0001c4 1e00
0001c5 0000      	.DB  0x80,0x33,0x0,0x3F,0x0,0x1E,0x0,0x0
0001c6 0000
0001c7 0000
0001c8 0000
0001c9 7f80      	.DB  0x0,0x0,0x0,0x0,0x0,0x0,0x80,0x7F
0001ca 7f80
0001cb 0180
0001cc 0300
0001cd 0300      	.DB  0x80,0x7F,0x80,0x1,0x0,0x3,0x0,0x3
0001ce 0600
0001cf 0600
0001d0 0c00
0001d1 0c00      	.DB  0x0,0x6,0x0,0x6,0x0,0xC,0x0,0xC
0001d2 0c00
0001d3 0800
0001d4 1800
0001d5 1800      	.DB  0x0,0xC,0x0,0x8,0x0,0x18,0x0,0x18
0001d6 1800
0001d7 0000
0001d8 0000
0001d9 0000      	.DB  0x0,0x18,0x0,0x0,0x0,0x0,0x0,0x0
0001da 0000
0001db 1e00
0001dc 3f00
0001dd 6380      	.DB  0x0,0x0,0x0,0x1E,0x0,0x3F,0x80,0x63
0001de 6180
0001df 6180
0001e0 2100
0001e1 1e00      	.DB  0x80,0x61,0x80,0x61,0x0,0x21,0x0,0x1E
0001e2 3f00
0001e3 6180
0001e4 6180
0001e5 6180      	.DB  0x0,0x3F,0x80,0x61,0x80,0x61,0x80,0x61
0001e6 6180
0001e7 3f00
0001e8 1e00
0001e9 0000      	.DB  0x80,0x61,0x0,0x3F,0x0,0x1E,0x0,0x0
0001ea 0000
0001eb 0000
0001ec 0000
0001ed 1e00      	.DB  0x0,0x0,0x0,0x0,0x0,0x0,0x0,0x1E
0001ee 3f00
0001ef 7300
0001f0 6180
0001f1 6180      	.DB  0x0,0x3F,0x0,0x73,0x80,0x61,0x80,0x61
0001f2 6180
0001f3 7380
0001f4 3f80
0001f5 1d80      	.DB  0x80,0x61,0x80,0x73,0x80,0x3F,0x80,0x1D
0001f6 0180
0001f7 6180
0001f8 7300
0001f9 3f00      	.DB  0x80,0x1,0x80,0x61,0x0,0x73,0x0,0x3F
0001fa 1e00
0001fb 0000
0001fc 0000
0001fd 0000      	.DB  0x0,0x1E,0x0,0x0,0x0,0x0,0x0,0x0
0001fe 0000
0001ff 0000
000200 0000
000201 0000      	.DB  0x0,0x0,0x0,0x0,0x0,0x0,0x0,0x0
000202 0000
000203 0c00
000204 0c00
000205 0000      	.DB  0x0,0x0,0x0,0xC,0x0,0xC,0x0,0x0
000206 0000
000207 0000
000208 0000
000209 0000      	.DB  0x0,0x0,0x0,0x0,0x0,0x0,0x0,0x0
00020a 0000
00020b 0c00
00020c 0c00
00020d 0000      	.DB  0x0,0x0,0x0,0xC,0x0,0xC,0x0,0x0
00020e 0000
00020f 0000
000210 0000
000211 0000      	.DB  0x0,0x0,0x0,0x0,0x0,0x0,0x0,0x0
000212 0000
000213 0000
000214 0000
000215 0000      	.DB  0x0,0x0,0x0,0x0,0x0,0x0,0x0,0x0
000216 0c00
000217 0c00
000218 0000
000219 0000      	.DB  0x0,0xC,0x0,0xC,0x0,0x0,0x0,0x0
00021a 0000
00021b 0000
00021c 0000
00021d 0c00      	.DB  0x0,0x0,0x0,0x0,0x0,0x0,0x0,0xC
00021e 0c00
00021f 0400
000220 0400
000221 0800      	.DB  0x0,0xC,0x0,0x4,0x0,0x4,0x0,0x8
000222 0000
000223 0000
000224 0000
000225 0000      	.DB  0x0,0x0,0x0,0x0,0x0,0x0,0x0,0x0
000226 0080
000227 0380
000228 0e00
000229 3800      	.DB  0x80,0x0,0x80,0x3,0x0,0xE,0x0,0x38
00022a 6000
00022b 3800
00022c 0e00
00022d 0380      	.DB  0x0,0x60,0x0,0x38,0x0,0xE,0x80,0x3
00022e 0080
00022f 0000
000230 0000
000231 0000      	.DB  0x80,0x0,0x0,0x0,0x0,0x0,0x0,0x0
000232 0000
000233 0000
000234 0000
000235 0000      	.DB  0x0,0x0,0x0,0x0,0x0,0x0,0x0,0x0
000236 0000
000237 0000
000238 0000
000239 7f80      	.DB  0x0,0x0,0x0,0x0,0x0,0x0,0x80,0x7F
00023a 7f80
00023b 0000
00023c 0000
00023d 7f80      	.DB  0x80,0x7F,0x0,0x0,0x0,0x0,0x80,0x7F
00023e 7f80
00023f 0000
000240 0000
000241 0000      	.DB  0x80,0x7F,0x0,0x0,0x0,0x0,0x0,0x0
000242 0000
000243 0000
000244 0000
000245 0000      	.DB  0x0,0x0,0x0,0x0,0x0,0x0,0x0,0x0
000246 0000
000247 0000
000248 0000
000249 0000      	.DB  0x0,0x0,0x0,0x0,0x0,0x0,0x0,0x0
00024a 4000
00024b 7000
00024c 1c00
00024d 0700      	.DB  0x0,0x40,0x0,0x70,0x0,0x1C,0x0,0x7
00024e 0180
00024f 0700
000250 1c00
000251 7000      	.DB  0x80,0x1,0x0,0x7,0x0,0x1C,0x0,0x70
000252 4000
000253 0000
000254 0000
000255 0000      	.DB  0x0,0x40,0x0,0x0,0x0,0x0,0x0,0x0
000256 0000
000257 0000
000258 0000
000259 1f00      	.DB  0x0,0x0,0x0,0x0,0x0,0x0,0x0,0x1F
00025a 3f80
00025b 71c0
00025c 60c0
00025d 00c0      	.DB  0x80,0x3F,0xC0,0x71,0xC0,0x60,0xC0,0x0
00025e 01c0
00025f 0380
000260 0700
000261 0e00      	.DB  0xC0,0x1,0x80,0x3,0x0,0x7,0x0,0xE
000262 0c00
000263 0c00
000264 0000
000265 0c00      	.DB  0x0,0xC,0x0,0xC,0x0,0x0,0x0,0xC
000266 0c00
000267 0000
000268 0000
000269 0000      	.DB  0x0,0xC,0x0,0x0,0x0,0x0,0x0,0x0
00026a 0000
00026b 1e00
00026c 3f00
00026d 3180      	.DB  0x0,0x0,0x0,0x1E,0x0,0x3F,0x80,0x31
00026e 7180
00026f 6380
000270 6f80
000271 6d80      	.DB  0x80,0x71,0x80,0x63,0x80,0x6F,0x80,0x6D
000272 6d80
000273 6f80
000274 6780
000275 6000      	.DB  0x80,0x6D,0x80,0x6F,0x80,0x67,0x0,0x60
000276 3200
000277 3e00
000278 1c00
000279 0000      	.DB  0x0,0x32,0x0,0x3E,0x0,0x1C,0x0,0x0
00027a 0000
00027b 0000
00027c 0000
00027d 0e00      	.DB  0x0,0x0,0x0,0x0,0x0,0x0,0x0,0xE
00027e 0e00
00027f 1b00
000280 1b00
000281 1b00      	.DB  0x0,0xE,0x0,0x1B,0x0,0x1B,0x0,0x1B
000282 1b00
000283 3180
000284 3180
000285 3f80      	.DB  0x0,0x1B,0x80,0x31,0x80,0x31,0x80,0x3F
000286 3f80
000287 3180
000288 60c0
000289 60c0      	.DB  0x80,0x3F,0x80,0x31,0xC0,0x60,0xC0,0x60
00028a 60c0
00028b 0000
00028c 0000
00028d 0000      	.DB  0xC0,0x60,0x0,0x0,0x0,0x0,0x0,0x0
00028e 0000
00028f 7c00
000290 7e00
000291 6300      	.DB  0x0,0x0,0x0,0x7C,0x0,0x7E,0x0,0x63
000292 6300
000293 6300
000294 6300
000295 7e00      	.DB  0x0,0x63,0x0,0x63,0x0,0x63,0x0,0x7E
000296 7e00
000297 6300
000298 6180
000299 6180      	.DB  0x0,0x7E,0x0,0x63,0x80,0x61,0x80,0x61
00029a 6380
00029b 7f00
00029c 7e00
00029d 0000      	.DB  0x80,0x63,0x0,0x7F,0x0,0x7E,0x0,0x0
00029e 0000
00029f 0000
0002a0 0000
0002a1 1e00      	.DB  0x0,0x0,0x0,0x0,0x0,0x0,0x0,0x1E
0002a2 3f00
0002a3 3180
0002a4 6180
0002a5 6000      	.DB  0x0,0x3F,0x80,0x31,0x80,0x61,0x0,0x60
0002a6 6000
0002a7 6000
0002a8 6000
0002a9 6000      	.DB  0x0,0x60,0x0,0x60,0x0,0x60,0x0,0x60
0002aa 6000
0002ab 6180
0002ac 3180
0002ad 3f00      	.DB  0x0,0x60,0x80,0x61,0x80,0x31,0x0,0x3F
0002ae 1e00
0002af 0000
0002b0 0000
0002b1 0000      	.DB  0x0,0x1E,0x0,0x0,0x0,0x0,0x0,0x0
0002b2 0000
0002b3 7c00
0002b4 7f00
0002b5 6300      	.DB  0x0,0x0,0x0,0x7C,0x0,0x7F,0x0,0x63
0002b6 6380
0002b7 6180
0002b8 6180
0002b9 6180      	.DB  0x80,0x63,0x80,0x61,0x80,0x61,0x80,0x61
0002ba 6180
0002bb 6180
0002bc 6180
0002bd 6300      	.DB  0x80,0x61,0x80,0x61,0x80,0x61,0x0,0x63
0002be 6300
0002bf 7e00
0002c0 7c00
0002c1 0000      	.DB  0x0,0x63,0x0,0x7E,0x0,0x7C,0x0,0x0
0002c2 0000
0002c3 0000
0002c4 0000
0002c5 7f80      	.DB  0x0,0x0,0x0,0x0,0x0,0x0,0x80,0x7F
0002c6 7f80
0002c7 6000
0002c8 6000
0002c9 6000      	.DB  0x80,0x7F,0x0,0x60,0x0,0x60,0x0,0x60
0002ca 6000
0002cb 7f00
0002cc 7f00
0002cd 6000      	.DB  0x0,0x60,0x0,0x7F,0x0,0x7F,0x0,0x60
0002ce 6000
0002cf 6000
0002d0 6000
0002d1 7f80      	.DB  0x0,0x60,0x0,0x60,0x0,0x60,0x80,0x7F
0002d2 7f80
0002d3 0000
0002d4 0000
0002d5 0000      	.DB  0x80,0x7F,0x0,0x0,0x0,0x0,0x0,0x0
0002d6 0000
0002d7 7f80
0002d8 7f80
0002d9 6000      	.DB  0x0,0x0,0x80,0x7F,0x80,0x7F,0x0,0x60
0002da 6000
0002db 6000
0002dc 6000
0002dd 7f00      	.DB  0x0,0x60,0x0,0x60,0x0,0x60,0x0,0x7F
0002de 7f00
0002df 6000
0002e0 6000
0002e1 6000      	.DB  0x0,0x7F,0x0,0x60,0x0,0x60,0x0,0x60
0002e2 6000
0002e3 6000
0002e4 6000
0002e5 0000      	.DB  0x0,0x60,0x0,0x60,0x0,0x60,0x0,0x0
0002e6 0000
0002e7 0000
0002e8 0000
0002e9 1e00      	.DB  0x0,0x0,0x0,0x0,0x0,0x0,0x0,0x1E
0002ea 3f00
0002eb 3180
0002ec 6180
0002ed 6000      	.DB  0x0,0x3F,0x80,0x31,0x80,0x61,0x0,0x60
0002ee 6000
0002ef 6000
0002f0 6380
0002f1 6380      	.DB  0x0,0x60,0x0,0x60,0x80,0x63,0x80,0x63
0002f2 6180
0002f3 6180
0002f4 3180
0002f5 3f80      	.DB  0x80,0x61,0x80,0x61,0x80,0x31,0x80,0x3F
0002f6 1e00
0002f7 0000
0002f8 0000
0002f9 0000      	.DB  0x0,0x1E,0x0,0x0,0x0,0x0,0x0,0x0
0002fa 0000
0002fb 6180
0002fc 6180
0002fd 6180      	.DB  0x0,0x0,0x80,0x61,0x80,0x61,0x80,0x61
0002fe 6180
0002ff 6180
000300 6180
000301 7f80      	.DB  0x80,0x61,0x80,0x61,0x80,0x61,0x80,0x7F
000302 7f80
000303 6180
000304 6180
000305 6180      	.DB  0x80,0x7F,0x80,0x61,0x80,0x61,0x80,0x61
000306 6180
000307 6180
000308 6180
000309 0000      	.DB  0x80,0x61,0x80,0x61,0x80,0x61,0x0,0x0
00030a 0000
00030b 0000
00030c 0000
00030d 3f00      	.DB  0x0,0x0,0x0,0x0,0x0,0x0,0x0,0x3F
00030e 3f00
00030f 0c00
000310 0c00
000311 0c00      	.DB  0x0,0x3F,0x0,0xC,0x0,0xC,0x0,0xC
000312 0c00
000313 0c00
000314 0c00
000315 0c00      	.DB  0x0,0xC,0x0,0xC,0x0,0xC,0x0,0xC
000316 0c00
000317 0c00
000318 0c00
000319 3f00      	.DB  0x0,0xC,0x0,0xC,0x0,0xC,0x0,0x3F
00031a 3f00
00031b 0000
00031c 0000
00031d 0000      	.DB  0x0,0x3F,0x0,0x0,0x0,0x0,0x0,0x0
00031e 0000
00031f 0180
000320 0180
000321 0180      	.DB  0x0,0x0,0x80,0x1,0x80,0x1,0x80,0x1
000322 0180
000323 0180
000324 0180
000325 0180      	.DB  0x80,0x1,0x80,0x1,0x80,0x1,0x80,0x1
000326 0180
000327 0180
000328 6180
000329 6180      	.DB  0x80,0x1,0x80,0x1,0x80,0x61,0x80,0x61
00032a 7380
00032b 3f00
00032c 1e00
00032d 0000      	.DB  0x80,0x73,0x0,0x3F,0x0,0x1E,0x0,0x0
00032e 0000
00032f 0000
000330 0000
000331 60c0      	.DB  0x0,0x0,0x0,0x0,0x0,0x0,0xC0,0x60
000332 6180
000333 6300
000334 6600
000335 6600      	.DB  0x80,0x61,0x0,0x63,0x0,0x66,0x0,0x66
000336 6c00
000337 7800
000338 7c00
000339 6600      	.DB  0x0,0x6C,0x0,0x78,0x0,0x7C,0x0,0x66
00033a 6600
00033b 6300
00033c 6180
00033d 6180      	.DB  0x0,0x66,0x0,0x63,0x80,0x61,0x80,0x61
00033e 60c0
00033f 0000
000340 0000
000341 0000      	.DB  0xC0,0x60,0x0,0x0,0x0,0x0,0x0,0x0
000342 0000
000343 6000
000344 6000
000345 6000      	.DB  0x0,0x0,0x0,0x60,0x0,0x60,0x0,0x60
000346 6000
000347 6000
000348 6000
000349 6000      	.DB  0x0,0x60,0x0,0x60,0x0,0x60,0x0,0x60
00034a 6000
00034b 6000
00034c 6000
00034d 6000      	.DB  0x0,0x60,0x0,0x60,0x0,0x60,0x0,0x60
00034e 6000
00034f 7f80
000350 7f80
000351 0000      	.DB  0x0,0x60,0x80,0x7F,0x80,0x7F,0x0,0x0
000352 0000
000353 0000
000354 0000
000355 71c0      	.DB  0x0,0x0,0x0,0x0,0x0,0x0,0xC0,0x71
000356 71c0
000357 7bc0
000358 7ac0
000359 6ac0      	.DB  0xC0,0x71,0xC0,0x7B,0xC0,0x7A,0xC0,0x6A
00035a 6ac0
00035b 6ec0
00035c 64c0
00035d 60c0      	.DB  0xC0,0x6A,0xC0,0x6E,0xC0,0x64,0xC0,0x60
00035e 60c0
00035f 60c0
000360 60c0
000361 60c0      	.DB  0xC0,0x60,0xC0,0x60,0xC0,0x60,0xC0,0x60
000362 60c0
000363 0000
000364 0000
000365 0000      	.DB  0xC0,0x60,0x0,0x0,0x0,0x0,0x0,0x0
000366 0000
000367 7180
000368 7180
000369 7980      	.DB  0x0,0x0,0x80,0x71,0x80,0x71,0x80,0x79
00036a 7980
00036b 7980
00036c 6d80
00036d 6d80      	.DB  0x80,0x79,0x80,0x79,0x80,0x6D,0x80,0x6D
00036e 6d80
00036f 6580
000370 6780
000371 6780      	.DB  0x80,0x6D,0x80,0x65,0x80,0x67,0x80,0x67
000372 6780
000373 6380
000374 6380
000375 0000      	.DB  0x80,0x67,0x80,0x63,0x80,0x63,0x0,0x0
000376 0000
000377 0000
000378 0000
000379 1e00      	.DB  0x0,0x0,0x0,0x0,0x0,0x0,0x0,0x1E
00037a 3f00
00037b 3300
00037c 6180
00037d 6180      	.DB  0x0,0x3F,0x0,0x33,0x80,0x61,0x80,0x61
00037e 6180
00037f 6180
000380 6180
000381 6180      	.DB  0x80,0x61,0x80,0x61,0x80,0x61,0x80,0x61
000382 6180
000383 6180
000384 3300
000385 3f00      	.DB  0x80,0x61,0x80,0x61,0x0,0x33,0x0,0x3F
000386 1e00
000387 0000
000388 0000
000389 0000      	.DB  0x0,0x1E,0x0,0x0,0x0,0x0,0x0,0x0
00038a 0000
00038b 7e00
00038c 7f00
00038d 6380      	.DB  0x0,0x0,0x0,0x7E,0x0,0x7F,0x80,0x63
00038e 6180
00038f 6180
000390 6180
000391 6380      	.DB  0x80,0x61,0x80,0x61,0x80,0x61,0x80,0x63
000392 7f00
000393 7e00
000394 6000
000395 6000      	.DB  0x0,0x7F,0x0,0x7E,0x0,0x60,0x0,0x60
000396 6000
000397 6000
000398 6000
000399 0000      	.DB  0x0,0x60,0x0,0x60,0x0,0x60,0x0,0x0
00039a 0000
00039b 0000
00039c 0000
00039d 1e00      	.DB  0x0,0x0,0x0,0x0,0x0,0x0,0x0,0x1E
00039e 3f00
00039f 3300
0003a0 6180
0003a1 6180      	.DB  0x0,0x3F,0x0,0x33,0x80,0x61,0x80,0x61
0003a2 6180
0003a3 6180
0003a4 6180
0003a5 6180      	.DB  0x80,0x61,0x80,0x61,0x80,0x61,0x80,0x61
0003a6 6580
0003a7 6780
0003a8 3300
0003a9 3f80      	.DB  0x80,0x65,0x80,0x67,0x0,0x33,0x80,0x3F
0003aa 1e40
0003ab 0000
0003ac 0000
0003ad 0000      	.DB  0x40,0x1E,0x0,0x0,0x0,0x0,0x0,0x0
0003ae 0000
0003af 7e00
0003b0 7f00
0003b1 6380      	.DB  0x0,0x0,0x0,0x7E,0x0,0x7F,0x80,0x63
0003b2 6180
0003b3 6180
0003b4 6380
0003b5 7f00      	.DB  0x80,0x61,0x80,0x61,0x80,0x63,0x0,0x7F
0003b6 7e00
0003b7 6600
0003b8 6300
0003b9 6300      	.DB  0x0,0x7E,0x0,0x66,0x0,0x63,0x0,0x63
0003ba 6180
0003bb 6180
0003bc 60c0
0003bd 0000      	.DB  0x80,0x61,0x80,0x61,0xC0,0x60,0x0,0x0
0003be 0000
0003bf 0000
0003c0 0000
0003c1 0e00      	.DB  0x0,0x0,0x0,0x0,0x0,0x0,0x0,0xE
0003c2 1f00
0003c3 3180
0003c4 3180
0003c5 3000      	.DB  0x0,0x1F,0x80,0x31,0x80,0x31,0x0,0x30
0003c6 3800
0003c7 1e00
0003c8 0700
0003c9 0380      	.DB  0x0,0x38,0x0,0x1E,0x0,0x7,0x80,0x3
0003ca 6180
0003cb 6180
0003cc 3180
0003cd 3f00      	.DB  0x80,0x61,0x80,0x61,0x80,0x31,0x0,0x3F
0003ce 1e00
0003cf 0000
0003d0 0000
0003d1 0000      	.DB  0x0,0x1E,0x0,0x0,0x0,0x0,0x0,0x0
0003d2 0000
0003d3 ffc0
0003d4 ffc0
0003d5 0c00      	.DB  0x0,0x0,0xC0,0xFF,0xC0,0xFF,0x0,0xC
0003d6 0c00
0003d7 0c00
0003d8 0c00
0003d9 0c00      	.DB  0x0,0xC,0x0,0xC,0x0,0xC,0x0,0xC
0003da 0c00
0003db 0c00
0003dc 0c00
0003dd 0c00      	.DB  0x0,0xC,0x0,0xC,0x0,0xC,0x0,0xC
0003de 0c00
0003df 0c00
0003e0 0c00
0003e1 0000      	.DB  0x0,0xC,0x0,0xC,0x0,0xC,0x0,0x0
0003e2 0000
0003e3 0000
0003e4 0000
0003e5 6180      	.DB  0x0,0x0,0x0,0x0,0x0,0x0,0x80,0x61
0003e6 6180
0003e7 6180
0003e8 6180
0003e9 6180      	.DB  0x80,0x61,0x80,0x61,0x80,0x61,0x80,0x61
0003ea 6180
0003eb 6180
0003ec 6180
0003ed 6180      	.DB  0x80,0x61,0x80,0x61,0x80,0x61,0x80,0x61
0003ee 6180
0003ef 6180
0003f0 7380
0003f1 3f00      	.DB  0x80,0x61,0x80,0x61,0x80,0x73,0x0,0x3F
0003f2 1e00
0003f3 0000
0003f4 0000
0003f5 0000      	.DB  0x0,0x1E,0x0,0x0,0x0,0x0,0x0,0x0
0003f6 0000
0003f7 60c0
0003f8 60c0
0003f9 60c0      	.DB  0x0,0x0,0xC0,0x60,0xC0,0x60,0xC0,0x60
0003fa 3180
0003fb 3180
0003fc 3180
0003fd 1b00      	.DB  0x80,0x31,0x80,0x31,0x80,0x31,0x0,0x1B
0003fe 1b00
0003ff 1b00
000400 1b00
000401 0e00      	.DB  0x0,0x1B,0x0,0x1B,0x0,0x1B,0x0,0xE
000402 0e00
000403 0e00
000404 0400
000405 0000      	.DB  0x0,0xE,0x0,0xE,0x0,0x4,0x0,0x0
000406 0000
000407 0000
000408 0000
000409 c0c0      	.DB  0x0,0x0,0x0,0x0,0x0,0x0,0xC0,0xC0
00040a c0c0
00040b c0c0
00040c c0c0
00040d c0c0      	.DB  0xC0,0xC0,0xC0,0xC0,0xC0,0xC0,0xC0,0xC0
00040e ccc0
00040f 4c80
000410 4c80
000411 5e80      	.DB  0xC0,0xCC,0x80,0x4C,0x80,0x4C,0x80,0x5E
000412 5280
000413 5280
000414 7380
000415 6180      	.DB  0x80,0x52,0x80,0x52,0x80,0x73,0x80,0x61
000416 6180
000417 0000
000418 0000
000419 0000      	.DB  0x80,0x61,0x0,0x0,0x0,0x0,0x0,0x0
00041a 0000
00041b c0c0
00041c 6080
00041d 6180      	.DB  0x0,0x0,0xC0,0xC0,0x80,0x60,0x80,0x61
00041e 3300
00041f 3b00
000420 1e00
000421 0c00      	.DB  0x0,0x33,0x0,0x3B,0x0,0x1E,0x0,0xC
000422 0c00
000423 1e00
000424 1f00
000425 3b00      	.DB  0x0,0xC,0x0,0x1E,0x0,0x1F,0x0,0x3B
000426 7180
000427 6180
000428 c0c0
000429 0000      	.DB  0x80,0x71,0x80,0x61,0xC0,0xC0,0x0,0x0
00042a 0000
00042b 0000
00042c 0000
00042d c0c0      	.DB  0x0,0x0,0x0,0x0,0x0,0x0,0xC0,0xC0
00042e 6180
00042f 6180
000430 3300
000431 3300      	.DB  0x80,0x61,0x80,0x61,0x0,0x33,0x0,0x33
000432 1e00
000433 1e00
000434 0c00
000435 0c00      	.DB  0x0,0x1E,0x0,0x1E,0x0,0xC,0x0,0xC
000436 0c00
000437 0c00
000438 0c00
000439 0c00      	.DB  0x0,0xC,0x0,0xC,0x0,0xC,0x0,0xC
00043a 0c00
00043b 0000
00043c 0000
00043d 0000      	.DB  0x0,0xC,0x0,0x0,0x0,0x0,0x0,0x0
00043e 0000
00043f 3f80
000440 3f80
000441 0180      	.DB  0x0,0x0,0x80,0x3F,0x80,0x3F,0x80,0x1
000442 0300
000443 0300
000444 0600
000445 0c00      	.DB  0x0,0x3,0x0,0x3,0x0,0x6,0x0,0xC
000446 0c00
000447 1800
000448 1800
000449 3000      	.DB  0x0,0xC,0x0,0x18,0x0,0x18,0x0,0x30
00044a 6000
00044b 7f80
00044c 7f80
00044d 0000      	.DB  0x0,0x60,0x80,0x7F,0x80,0x7F,0x0,0x0
00044e 0000
00044f 0000
000450 0f00
000451 0f00      	.DB  0x0,0x0,0x0,0x0,0x0,0xF,0x0,0xF
000452 0c00
000453 0c00
000454 0c00
000455 0c00      	.DB  0x0,0xC,0x0,0xC,0x0,0xC,0x0,0xC
000456 0c00
000457 0c00
000458 0c00
000459 0c00      	.DB  0x0,0xC,0x0,0xC,0x0,0xC,0x0,0xC
00045a 0c00
00045b 0c00
00045c 0c00
00045d 0c00      	.DB  0x0,0xC,0x0,0xC,0x0,0xC,0x0,0xC
00045e 0c00
00045f 0c00
000460 0f00
000461 0f00      	.DB  0x0,0xC,0x0,0xC,0x0,0xF,0x0,0xF
000462 0000
000463 1800
000464 1800
000465 1800      	.DB  0x0,0x0,0x0,0x18,0x0,0x18,0x0,0x18
000466 0c00
000467 0c00
000468 0c00
000469 0c00      	.DB  0x0,0xC,0x0,0xC,0x0,0xC,0x0,0xC
00046a 0600
00046b 0600
00046c 0600
00046d 0600      	.DB  0x0,0x6,0x0,0x6,0x0,0x6,0x0,0x6
00046e 0300
00046f 0300
000470 0300
000471 0000      	.DB  0x0,0x3,0x0,0x3,0x0,0x3,0x0,0x0
000472 0000
000473 0000
000474 1e00
000475 1e00      	.DB  0x0,0x0,0x0,0x0,0x0,0x1E,0x0,0x1E
000476 0600
000477 0600
000478 0600
000479 0600      	.DB  0x0,0x6,0x0,0x6,0x0,0x6,0x0,0x6
00047a 0600
00047b 0600
00047c 0600
00047d 0600      	.DB  0x0,0x6,0x0,0x6,0x0,0x6,0x0,0x6
00047e 0600
00047f 0600
000480 0600
000481 0600      	.DB  0x0,0x6,0x0,0x6,0x0,0x6,0x0,0x6
000482 0600
000483 0600
000484 1e00
000485 1e00      	.DB  0x0,0x6,0x0,0x6,0x0,0x1E,0x0,0x1E
000486 0000
000487 0c00
000488 0c00
000489 1e00      	.DB  0x0,0x0,0x0,0xC,0x0,0xC,0x0,0x1E
00048a 1200
00048b 3300
00048c 3300
00048d 6180      	.DB  0x0,0x12,0x0,0x33,0x0,0x33,0x80,0x61
00048e 6180
00048f 0000
000490 0000
000491 0000      	.DB  0x80,0x61,0x0,0x0,0x0,0x0,0x0,0x0
000492 0000
000493 0000
000494 0000
000495 0000      	.DB  0x0,0x0,0x0,0x0,0x0,0x0,0x0,0x0
000496 0000
000497 0000
000498 0000
000499 0000      	.DB  0x0,0x0,0x0,0x0,0x0,0x0,0x0,0x0
00049a 0000
00049b 0000
00049c 0000
00049d 0000      	.DB  0x0,0x0,0x0,0x0,0x0,0x0,0x0,0x0
00049e 0000
00049f 0000
0004a0 0000
0004a1 0000      	.DB  0x0,0x0,0x0,0x0,0x0,0x0,0x0,0x0
0004a2 0000
0004a3 0000
0004a4 0000
0004a5 0000      	.DB  0x0,0x0,0x0,0x0,0x0,0x0,0x0,0x0
0004a6 0000
0004a7 0000
0004a8 ffe0
0004a9 0000      	.DB  0x0,0x0,0x0,0x0,0xE0,0xFF,0x0,0x0
0004aa 0000
0004ab 3800
0004ac 1800
0004ad 0c00      	.DB  0x0,0x0,0x0,0x38,0x0,0x18,0x0,0xC
0004ae 0000
0004af 0000
0004b0 0000
0004b1 0000      	.DB  0x0,0x0,0x0,0x0,0x0,0x0,0x0,0x0
0004b2 0000
0004b3 0000
0004b4 0000
0004b5 0000      	.DB  0x0,0x0,0x0,0x0,0x0,0x0,0x0,0x0
0004b6 0000
0004b7 0000
0004b8 0000
0004b9 0000      	.DB  0x0,0x0,0x0,0x0,0x0,0x0,0x0,0x0
0004ba 0000
0004bb 0000
0004bc 0000
0004bd 0000      	.DB  0x0,0x0,0x0,0x0,0x0,0x0,0x0,0x0
0004be 0000
0004bf 0000
0004c0 0000
0004c1 1f00      	.DB  0x0,0x0,0x0,0x0,0x0,0x0,0x0,0x1F
0004c2 3f80
0004c3 6180
0004c4 0180
0004c5 1f80      	.DB  0x80,0x3F,0x80,0x61,0x80,0x1,0x80,0x1F
0004c6 3f80
0004c7 6180
0004c8 6380
0004c9 7f80      	.DB  0x80,0x3F,0x80,0x61,0x80,0x63,0x80,0x7F
0004ca 38c0
0004cb 0000
0004cc 0000
0004cd 0000      	.DB  0xC0,0x38,0x0,0x0,0x0,0x0,0x0,0x0
0004ce 0000
0004cf 6000
0004d0 6000
0004d1 6000      	.DB  0x0,0x0,0x0,0x60,0x0,0x60,0x0,0x60
0004d2 6000
0004d3 6e00
0004d4 7f00
0004d5 7380      	.DB  0x0,0x60,0x0,0x6E,0x0,0x7F,0x80,0x73
0004d6 6180
0004d7 6180
0004d8 6180
0004d9 6180      	.DB  0x80,0x61,0x80,0x61,0x80,0x61,0x80,0x61
0004da 7380
0004db 7f00
0004dc 6e00
0004dd 0000      	.DB  0x80,0x73,0x0,0x7F,0x0,0x6E,0x0,0x0
0004de 0000
0004df 0000
0004e0 0000
0004e1 0000      	.DB  0x0,0x0,0x0,0x0,0x0,0x0,0x0,0x0
0004e2 0000
0004e3 0000
0004e4 0000
0004e5 1e00      	.DB  0x0,0x0,0x0,0x0,0x0,0x0,0x0,0x1E
0004e6 3f00
0004e7 7380
0004e8 6180
0004e9 6000      	.DB  0x0,0x3F,0x80,0x73,0x80,0x61,0x0,0x60
0004ea 6000
0004eb 6180
0004ec 7380
0004ed 3f00      	.DB  0x0,0x60,0x80,0x61,0x80,0x73,0x0,0x3F
0004ee 1e00
0004ef 0000
0004f0 0000
0004f1 0000      	.DB  0x0,0x1E,0x0,0x0,0x0,0x0,0x0,0x0
0004f2 0000
0004f3 0180
0004f4 0180
0004f5 0180      	.DB  0x0,0x0,0x80,0x1,0x80,0x1,0x80,0x1
0004f6 0180
0004f7 1d80
0004f8 3f80
0004f9 7380      	.DB  0x80,0x1,0x80,0x1D,0x80,0x3F,0x80,0x73
0004fa 6180
0004fb 6180
0004fc 6180
0004fd 6180      	.DB  0x80,0x61,0x80,0x61,0x80,0x61,0x80,0x61
0004fe 7380
0004ff 3f80
000500 1d80
000501 0000      	.DB  0x80,0x73,0x80,0x3F,0x80,0x1D,0x0,0x0
000502 0000
000503 0000
000504 0000
000505 0000      	.DB  0x0,0x0,0x0,0x0,0x0,0x0,0x0,0x0
000506 0000
000507 0000
000508 0000
000509 1e00      	.DB  0x0,0x0,0x0,0x0,0x0,0x0,0x0,0x1E
00050a 3f00
00050b 7300
00050c 6180
00050d 7f80      	.DB  0x0,0x3F,0x0,0x73,0x80,0x61,0x80,0x7F
00050e 7f80
00050f 6000
000510 7180
000511 3f00      	.DB  0x80,0x7F,0x0,0x60,0x80,0x71,0x0,0x3F
000512 1e00
000513 0000
000514 0000
000515 0000      	.DB  0x0,0x1E,0x0,0x0,0x0,0x0,0x0,0x0
000516 0000
000517 07c0
000518 0fc0
000519 0c00      	.DB  0x0,0x0,0xC0,0x7,0xC0,0xF,0x0,0xC
00051a 0c00
00051b 7f80
00051c 7f80
00051d 0c00      	.DB  0x0,0xC,0x80,0x7F,0x80,0x7F,0x0,0xC
00051e 0c00
00051f 0c00
000520 0c00
000521 0c00      	.DB  0x0,0xC,0x0,0xC,0x0,0xC,0x0,0xC
000522 0c00
000523 0c00
000524 0c00
000525 0000      	.DB  0x0,0xC,0x0,0xC,0x0,0xC,0x0,0x0
000526 0000
000527 0000
000528 0000
000529 0000      	.DB  0x0,0x0,0x0,0x0,0x0,0x0,0x0,0x0
00052a 0000
00052b 0000
00052c 1d80
00052d 3f80      	.DB  0x0,0x0,0x0,0x0,0x80,0x1D,0x80,0x3F
00052e 7380
00052f 6180
000530 6180
000531 6180      	.DB  0x80,0x73,0x80,0x61,0x80,0x61,0x80,0x61
000532 6180
000533 7380
000534 3f80
000535 1d80      	.DB  0x80,0x61,0x80,0x73,0x80,0x3F,0x80,0x1D
000536 0180
000537 6380
000538 7f00
000539 3e00      	.DB  0x80,0x1,0x80,0x63,0x0,0x7F,0x0,0x3E
00053a 0000
00053b 6000
00053c 6000
00053d 6000      	.DB  0x0,0x0,0x0,0x60,0x0,0x60,0x0,0x60
00053e 6000
00053f 6f00
000540 7f80
000541 7180      	.DB  0x0,0x60,0x0,0x6F,0x80,0x7F,0x80,0x71
000542 6180
000543 6180
000544 6180
000545 6180      	.DB  0x80,0x61,0x80,0x61,0x80,0x61,0x80,0x61
000546 6180
000547 6180
000548 6180
000549 0000      	.DB  0x80,0x61,0x80,0x61,0x80,0x61,0x0,0x0
00054a 0000
00054b 0000
00054c 0000
00054d 0600      	.DB  0x0,0x0,0x0,0x0,0x0,0x0,0x0,0x6
00054e 0600
00054f 0000
000550 0000
000551 3e00      	.DB  0x0,0x6,0x0,0x0,0x0,0x0,0x0,0x3E
000552 3e00
000553 0600
000554 0600
000555 0600      	.DB  0x0,0x3E,0x0,0x6,0x0,0x6,0x0,0x6
000556 0600
000557 0600
000558 0600
000559 0600      	.DB  0x0,0x6,0x0,0x6,0x0,0x6,0x0,0x6
00055a 0600
00055b 0000
00055c 0000
00055d 0000      	.DB  0x0,0x6,0x0,0x0,0x0,0x0,0x0,0x0
00055e 0600
00055f 0600
000560 0000
000561 0000      	.DB  0x0,0x6,0x0,0x6,0x0,0x0,0x0,0x0
000562 3e00
000563 3e00
000564 0600
000565 0600      	.DB  0x0,0x3E,0x0,0x3E,0x0,0x6,0x0,0x6
000566 0600
000567 0600
000568 0600
000569 0600      	.DB  0x0,0x6,0x0,0x6,0x0,0x6,0x0,0x6
00056a 0600
00056b 0600
00056c 0600
00056d 4600      	.DB  0x0,0x6,0x0,0x6,0x0,0x6,0x0,0x46
00056e 7e00
00056f 3c00
000570 0000
000571 6000      	.DB  0x0,0x7E,0x0,0x3C,0x0,0x0,0x0,0x60
000572 6000
000573 6000
000574 6000
000575 6180      	.DB  0x0,0x60,0x0,0x60,0x0,0x60,0x80,0x61
000576 6300
000577 6600
000578 6c00
000579 7c00      	.DB  0x0,0x63,0x0,0x66,0x0,0x6C,0x0,0x7C
00057a 7600
00057b 6300
00057c 6300
00057d 6180      	.DB  0x0,0x76,0x0,0x63,0x0,0x63,0x80,0x61
00057e 60c0
00057f 0000
000580 0000
000581 0000      	.DB  0xC0,0x60,0x0,0x0,0x0,0x0,0x0,0x0
000582 0000
000583 3e00
000584 3e00
000585 0600      	.DB  0x0,0x0,0x0,0x3E,0x0,0x3E,0x0,0x6
000586 0600
000587 0600
000588 0600
000589 0600      	.DB  0x0,0x6,0x0,0x6,0x0,0x6,0x0,0x6
00058a 0600
00058b 0600
00058c 0600
00058d 0600      	.DB  0x0,0x6,0x0,0x6,0x0,0x6,0x0,0x6
00058e 0600
00058f 0600
000590 0600
000591 0000      	.DB  0x0,0x6,0x0,0x6,0x0,0x6,0x0,0x0
000592 0000
000593 0000
000594 0000
000595 0000      	.DB  0x0,0x0,0x0,0x0,0x0,0x0,0x0,0x0
000596 0000
000597 0000
000598 0000
000599 dd80      	.DB  0x0,0x0,0x0,0x0,0x0,0x0,0x80,0xDD
00059a ffc0
00059b cec0
00059c ccc0
00059d ccc0      	.DB  0xC0,0xFF,0xC0,0xCE,0xC0,0xCC,0xC0,0xCC
00059e ccc0
00059f ccc0
0005a0 ccc0
0005a1 ccc0      	.DB  0xC0,0xCC,0xC0,0xCC,0xC0,0xCC,0xC0,0xCC
0005a2 ccc0
0005a3 0000
0005a4 0000
0005a5 0000      	.DB  0xC0,0xCC,0x0,0x0,0x0,0x0,0x0,0x0
0005a6 0000
0005a7 0000
0005a8 0000
0005a9 0000      	.DB  0x0,0x0,0x0,0x0,0x0,0x0,0x0,0x0
0005aa 0000
0005ab 6f00
0005ac 7f80
0005ad 7180      	.DB  0x0,0x0,0x0,0x6F,0x80,0x7F,0x80,0x71
0005ae 6180
0005af 6180
0005b0 6180
0005b1 6180      	.DB  0x80,0x61,0x80,0x61,0x80,0x61,0x80,0x61
0005b2 6180
0005b3 6180
0005b4 6180
0005b5 0000      	.DB  0x80,0x61,0x80,0x61,0x80,0x61,0x0,0x0
0005b6 0000
0005b7 0000
0005b8 0000
0005b9 0000      	.DB  0x0,0x0,0x0,0x0,0x0,0x0,0x0,0x0
0005ba 0000
0005bb 0000
0005bc 0000
0005bd 1e00      	.DB  0x0,0x0,0x0,0x0,0x0,0x0,0x0,0x1E
0005be 3f00
0005bf 7380
0005c0 6180
0005c1 6180      	.DB  0x0,0x3F,0x80,0x73,0x80,0x61,0x80,0x61
0005c2 6180
0005c3 6180
0005c4 7380
0005c5 3f00      	.DB  0x80,0x61,0x80,0x61,0x80,0x73,0x0,0x3F
0005c6 1e00
0005c7 0000
0005c8 0000
0005c9 0000      	.DB  0x0,0x1E,0x0,0x0,0x0,0x0,0x0,0x0
0005ca 0000
0005cb 0000
0005cc 0000
0005cd 0000      	.DB  0x0,0x0,0x0,0x0,0x0,0x0,0x0,0x0
0005ce 6e00
0005cf 7f00
0005d0 7380
0005d1 6180      	.DB  0x0,0x6E,0x0,0x7F,0x80,0x73,0x80,0x61
0005d2 6180
0005d3 6180
0005d4 6180
0005d5 7380      	.DB  0x80,0x61,0x80,0x61,0x80,0x61,0x80,0x73
0005d6 7f00
0005d7 6e00
0005d8 6000
0005d9 6000      	.DB  0x0,0x7F,0x0,0x6E,0x0,0x60,0x0,0x60
0005da 6000
0005db 6000
0005dc 0000
0005dd 0000      	.DB  0x0,0x60,0x0,0x60,0x0,0x0,0x0,0x0
0005de 0000
0005df 0000
0005e0 1d80
0005e1 3f80      	.DB  0x0,0x0,0x0,0x0,0x80,0x1D,0x80,0x3F
0005e2 7380
0005e3 6180
0005e4 6180
0005e5 6180      	.DB  0x80,0x73,0x80,0x61,0x80,0x61,0x80,0x61
0005e6 6180
0005e7 7380
0005e8 3f80
0005e9 1d80      	.DB  0x80,0x61,0x80,0x73,0x80,0x3F,0x80,0x1D
0005ea 0180
0005eb 0180
0005ec 0180
0005ed 0180      	.DB  0x80,0x1,0x80,0x1,0x80,0x1,0x80,0x1
0005ee 0000
0005ef 0000
0005f0 0000
0005f1 0000      	.DB  0x0,0x0,0x0,0x0,0x0,0x0,0x0,0x0
0005f2 0000
0005f3 6700
0005f4 3f80
0005f5 3900      	.DB  0x0,0x0,0x0,0x67,0x80,0x3F,0x0,0x39
0005f6 3000
0005f7 3000
0005f8 3000
0005f9 3000      	.DB  0x0,0x30,0x0,0x30,0x0,0x30,0x0,0x30
0005fa 3000
0005fb 3000
0005fc 3000
0005fd 0000      	.DB  0x0,0x30,0x0,0x30,0x0,0x30,0x0,0x0
0005fe 0000
0005ff 0000
000600 0000
000601 0000      	.DB  0x0,0x0,0x0,0x0,0x0,0x0,0x0,0x0
000602 0000
000603 0000
000604 0000
000605 1e00      	.DB  0x0,0x0,0x0,0x0,0x0,0x0,0x0,0x1E
000606 3f80
000607 6180
000608 6000
000609 7f00      	.DB  0x80,0x3F,0x80,0x61,0x0,0x60,0x0,0x7F
00060a 3f80
00060b 0180
00060c 6180
00060d 7f00      	.DB  0x80,0x3F,0x80,0x1,0x80,0x61,0x0,0x7F
00060e 1e00
00060f 0000
000610 0000
000611 0000      	.DB  0x0,0x1E,0x0,0x0,0x0,0x0,0x0,0x0
000612 0000
000613 0000
000614 0800
000615 1800      	.DB  0x0,0x0,0x0,0x0,0x0,0x8,0x0,0x18
000616 1800
000617 7f00
000618 7f00
000619 1800      	.DB  0x0,0x18,0x0,0x7F,0x0,0x7F,0x0,0x18
00061a 1800
00061b 1800
00061c 1800
00061d 1800      	.DB  0x0,0x18,0x0,0x18,0x0,0x18,0x0,0x18
00061e 1800
00061f 1f80
000620 0f80
000621 0000      	.DB  0x0,0x18,0x80,0x1F,0x80,0xF,0x0,0x0
000622 0000
000623 0000
000624 0000
000625 0000      	.DB  0x0,0x0,0x0,0x0,0x0,0x0,0x0,0x0
000626 0000
000627 0000
000628 0000
000629 6180      	.DB  0x0,0x0,0x0,0x0,0x0,0x0,0x80,0x61
00062a 6180
00062b 6180
00062c 6180
00062d 6180      	.DB  0x80,0x61,0x80,0x61,0x80,0x61,0x80,0x61
00062e 6180
00062f 6180
000630 6380
000631 7f80      	.DB  0x80,0x61,0x80,0x61,0x80,0x63,0x80,0x7F
000632 3d80
000633 0000
000634 0000
000635 0000      	.DB  0x80,0x3D,0x0,0x0,0x0,0x0,0x0,0x0
000636 0000
000637 0000
000638 0000
000639 0000      	.DB  0x0,0x0,0x0,0x0,0x0,0x0,0x0,0x0
00063a 0000
00063b 60c0
00063c 3180
00063d 3180      	.DB  0x0,0x0,0xC0,0x60,0x80,0x31,0x80,0x31
00063e 3180
00063f 1b00
000640 1b00
000641 1b00      	.DB  0x80,0x31,0x0,0x1B,0x0,0x1B,0x0,0x1B
000642 0e00
000643 0e00
000644 0600
000645 0000      	.DB  0x0,0xE,0x0,0xE,0x0,0x6,0x0,0x0
000646 0000
000647 0000
000648 0000
000649 0000      	.DB  0x0,0x0,0x0,0x0,0x0,0x0,0x0,0x0
00064a 0000
00064b 0000
00064c 0000
00064d dd80      	.DB  0x0,0x0,0x0,0x0,0x0,0x0,0x80,0xDD
00064e dd80
00064f dd80
000650 5500
000651 5500      	.DB  0x80,0xDD,0x80,0xDD,0x0,0x55,0x0,0x55
000652 5500
000653 7700
000654 7700
000655 2200      	.DB  0x0,0x55,0x0,0x77,0x0,0x77,0x0,0x22
000656 2200
000657 0000
000658 0000
000659 0000      	.DB  0x0,0x22,0x0,0x0,0x0,0x0,0x0,0x0
00065a 0000
00065b 0000
00065c 0000
00065d 0000      	.DB  0x0,0x0,0x0,0x0,0x0,0x0,0x0,0x0
00065e 0000
00065f 6180
000660 3300
000661 3300      	.DB  0x0,0x0,0x80,0x61,0x0,0x33,0x0,0x33
000662 1e00
000663 0c00
000664 0c00
000665 1e00      	.DB  0x0,0x1E,0x0,0xC,0x0,0xC,0x0,0x1E
000666 3300
000667 3300
000668 6180
000669 0000      	.DB  0x0,0x33,0x0,0x33,0x80,0x61,0x0,0x0
00066a 0000
00066b 0000
00066c 0000
00066d 0000      	.DB  0x0,0x0,0x0,0x0,0x0,0x0,0x0,0x0
00066e 0000
00066f 0000
000670 6180
000671 6180      	.DB  0x0,0x0,0x0,0x0,0x80,0x61,0x80,0x61
000672 3180
000673 3300
000674 3300
000675 1b00      	.DB  0x80,0x31,0x0,0x33,0x0,0x33,0x0,0x1B
000676 1b00
000677 1b00
000678 0e00
000679 0e00      	.DB  0x0,0x1B,0x0,0x1B,0x0,0xE,0x0,0xE
00067a 0e00
00067b 1c00
00067c 7c00
00067d 7000      	.DB  0x0,0xE,0x0,0x1C,0x0,0x7C,0x0,0x70
00067e 0000
00067f 0000
000680 0000
000681 0000      	.DB  0x0,0x0,0x0,0x0,0x0,0x0,0x0,0x0
000682 0000
000683 7fc0
000684 7fc0
000685 0180      	.DB  0x0,0x0,0xC0,0x7F,0xC0,0x7F,0x80,0x1
000686 0300
000687 0600
000688 0c00
000689 1800      	.DB  0x0,0x3,0x0,0x6,0x0,0xC,0x0,0x18
00068a 3000
00068b 7fc0
00068c 7fc0
00068d 0000      	.DB  0x0,0x30,0xC0,0x7F,0xC0,0x7F,0x0,0x0
00068e 0000
00068f 0000
000690 0380
000691 0780      	.DB  0x0,0x0,0x0,0x0,0x80,0x3,0x80,0x7
000692 0600
000693 0600
000694 0600
000695 0600      	.DB  0x0,0x6,0x0,0x6,0x0,0x6,0x0,0x6
000696 0600
000697 0e00
000698 1c00
000699 1c00      	.DB  0x0,0x6,0x0,0xE,0x0,0x1C,0x0,0x1C
00069a 0e00
00069b 0600
00069c 0600
00069d 0600      	.DB  0x0,0xE,0x0,0x6,0x0,0x6,0x0,0x6
00069e 0600
00069f 0600
0006a0 0780
0006a1 0380      	.DB  0x0,0x6,0x0,0x6,0x80,0x7,0x80,0x3
0006a2 0600
0006a3 0600
0006a4 0600
0006a5 0600      	.DB  0x0,0x6,0x0,0x6,0x0,0x6,0x0,0x6
0006a6 0600
0006a7 0600
0006a8 0600
0006a9 0600      	.DB  0x0,0x6,0x0,0x6,0x0,0x6,0x0,0x6
0006aa 0600
0006ab 0600
0006ac 0600
0006ad 0600      	.DB  0x0,0x6,0x0,0x6,0x0,0x6,0x0,0x6
0006ae 0600
0006af 0600
0006b0 0600
0006b1 0600      	.DB  0x0,0x6,0x0,0x6,0x0,0x6,0x0,0x6
0006b2 0600
0006b3 0600
0006b4 3800
0006b5 3c00      	.DB  0x0,0x6,0x0,0x6,0x0,0x38,0x0,0x3C
0006b6 0c00
0006b7 0c00
0006b8 0c00
0006b9 0c00      	.DB  0x0,0xC,0x0,0xC,0x0,0xC,0x0,0xC
0006ba 0c00
0006bb 0e00
0006bc 0700
0006bd 0700      	.DB  0x0,0xC,0x0,0xE,0x0,0x7,0x0,0x7
0006be 0e00
0006bf 0c00
0006c0 0c00
0006c1 0c00      	.DB  0x0,0xE,0x0,0xC,0x0,0xC,0x0,0xC
0006c2 0c00
0006c3 0c00
0006c4 3c00
0006c5 3800      	.DB  0x0,0xC,0x0,0xC,0x0,0x3C,0x0,0x38
0006c6 0000
0006c7 0000
0006c8 0000
0006c9 0000      	.DB  0x0,0x0,0x0,0x0,0x0,0x0,0x0,0x0
0006ca 0000
0006cb 0000
0006cc 0000
0006cd 3880      	.DB  0x0,0x0,0x0,0x0,0x0,0x0,0x80,0x38
0006ce 7f80
0006cf 4700
0006d0 0000
0006d1 0000      	.DB  0x80,0x7F,0x0,0x47,0x0,0x0,0x0,0x0
0006d2 0000
0006d3 0000
0006d4 0000
0006d5 0000      	.DB  0x0,0x0,0x0,0x0,0x0,0x0,0x0,0x0
0006d6 0000
0006d7 0000
0006d8 0000
0006d9 0e00      	.DB  0x0,0x0,0x0,0x0,0x0,0x0,0x0,0xE
0006da 0e00
0006db 1b00
0006dc 1b00
0006dd 1b00      	.DB  0x0,0xE,0x0,0x1B,0x0,0x1B,0x0,0x1B
0006de 1b00
0006df 3180
0006e0 3180
0006e1 3f80      	.DB  0x0,0x1B,0x80,0x31,0x80,0x31,0x80,0x3F
0006e2 3f80
0006e3 3180
0006e4 60c0
0006e5 60c0      	.DB  0x80,0x3F,0x80,0x31,0xC0,0x60,0xC0,0x60
0006e6 60c0
0006e7 0000
0006e8 0000
0006e9 0000      	.DB  0xC0,0x60,0x0,0x0,0x0,0x0,0x0,0x0
0006ea 0000
0006eb 7f00
0006ec 7f00
0006ed 6000      	.DB  0x0,0x0,0x0,0x7F,0x0,0x7F,0x0,0x60
0006ee 6000
0006ef 6000
0006f0 6000
0006f1 7e00      	.DB  0x0,0x60,0x0,0x60,0x0,0x60,0x0,0x7E
0006f2 7e00
0006f3 6300
0006f4 6180
0006f5 6180      	.DB  0x0,0x7E,0x0,0x63,0x80,0x61,0x80,0x61
0006f6 6380
0006f7 7f00
0006f8 7c00
0006f9 0000      	.DB  0x80,0x63,0x0,0x7F,0x0,0x7C,0x0,0x0
0006fa 0000
0006fb 0000
0006fc 0000
0006fd 7c00      	.DB  0x0,0x0,0x0,0x0,0x0,0x0,0x0,0x7C
0006fe 7e00
0006ff 6300
000700 6300
000701 6300      	.DB  0x0,0x7E,0x0,0x63,0x0,0x63,0x0,0x63
000702 6300
000703 7e00
000704 7e00
000705 6300      	.DB  0x0,0x63,0x0,0x7E,0x0,0x7E,0x0,0x63
000706 6180
000707 6180
000708 6380
000709 7f00      	.DB  0x80,0x61,0x80,0x61,0x80,0x63,0x0,0x7F
00070a 7e00
00070b 0000
00070c 0000
00070d 0000      	.DB  0x0,0x7E,0x0,0x0,0x0,0x0,0x0,0x0
00070e 0000
00070f 7f00
000710 7f00
000711 6000      	.DB  0x0,0x0,0x0,0x7F,0x0,0x7F,0x0,0x60
000712 6000
000713 6000
000714 6000
000715 6000      	.DB  0x0,0x60,0x0,0x60,0x0,0x60,0x0,0x60
000716 6000
000717 6000
000718 6000
000719 6000      	.DB  0x0,0x60,0x0,0x60,0x0,0x60,0x0,0x60
00071a 6000
00071b 6000
00071c 6000
00071d 0000      	.DB  0x0,0x60,0x0,0x60,0x0,0x60,0x0,0x0
00071e 0000
00071f 0000
000720 0000
000721 3f80      	.DB  0x0,0x0,0x0,0x0,0x0,0x0,0x80,0x3F
000722 3f80
000723 3180
000724 3180
000725 3180      	.DB  0x80,0x3F,0x80,0x31,0x80,0x31,0x80,0x31
000726 3180
000727 3180
000728 3180
000729 3180      	.DB  0x80,0x31,0x80,0x31,0x80,0x31,0x80,0x31
00072a 3180
00072b 3180
00072c 3180
00072d ffe0      	.DB  0x80,0x31,0x80,0x31,0x80,0x31,0xE0,0xFF
00072e ffe0
00072f c060
000730 0000
000731 0000      	.DB  0xE0,0xFF,0x60,0xC0,0x0,0x0,0x0,0x0
000732 0000
000733 7f80
000734 7f80
000735 6000      	.DB  0x0,0x0,0x80,0x7F,0x80,0x7F,0x0,0x60
000736 6000
000737 6000
000738 6000
000739 7f00      	.DB  0x0,0x60,0x0,0x60,0x0,0x60,0x0,0x7F
00073a 7f00
00073b 6000
00073c 6000
00073d 6000      	.DB  0x0,0x7F,0x0,0x60,0x0,0x60,0x0,0x60
00073e 6000
00073f 7f80
000740 7f80
000741 0000      	.DB  0x0,0x60,0x80,0x7F,0x80,0x7F,0x0,0x0
000742 0000
000743 0000
000744 0000
000745 c460      	.DB  0x0,0x0,0x0,0x0,0x0,0x0,0x60,0xC4
000746 64c0
000747 64c0
000748 3580
000749 3580      	.DB  0xC0,0x64,0xC0,0x64,0x80,0x35,0x80,0x35
00074a 1f00
00074b 1f00
00074c 1f00
00074d 1f00      	.DB  0x0,0x1F,0x0,0x1F,0x0,0x1F,0x0,0x1F
00074e 3580
00074f 3580
000750 64c0
000751 64c0      	.DB  0x80,0x35,0x80,0x35,0xC0,0x64,0xC0,0x64
000752 c460
000753 0000
000754 0000
000755 0000      	.DB  0x60,0xC4,0x0,0x0,0x0,0x0,0x0,0x0
000756 0000
000757 3c00
000758 7e00
000759 0300      	.DB  0x0,0x0,0x0,0x3C,0x0,0x7E,0x0,0x3
00075a 0300
00075b 0300
00075c 0300
00075d 7e00      	.DB  0x0,0x3,0x0,0x3,0x0,0x3,0x0,0x7E
00075e 7e00
00075f 0300
000760 0180
000761 0180      	.DB  0x0,0x7E,0x0,0x3,0x80,0x1,0x80,0x1
000762 0380
000763 7f00
000764 3e00
000765 0000      	.DB  0x80,0x3,0x0,0x7F,0x0,0x3E,0x0,0x0
000766 0000
000767 0000
000768 0000
000769 6180      	.DB  0x0,0x0,0x0,0x0,0x0,0x0,0x80,0x61
00076a 6180
00076b 6180
00076c 6180
00076d 6380      	.DB  0x80,0x61,0x80,0x61,0x80,0x61,0x80,0x63
00076e 6780
00076f 6f80
000770 7d80
000771 7980      	.DB  0x80,0x67,0x80,0x6F,0x80,0x7D,0x80,0x79
000772 7180
000773 6180
000774 6180
000775 6180      	.DB  0x80,0x71,0x80,0x61,0x80,0x61,0x80,0x61
000776 6180
000777 0000
000778 0000
000779 0000      	.DB  0x80,0x61,0x0,0x0,0x0,0x0,0x0,0x0
00077a 0c00
00077b 6d80
00077c 6180
00077d 6180      	.DB  0x0,0xC,0x80,0x6D,0x80,0x61,0x80,0x61
00077e 6180
00077f 6380
000780 6780
000781 6f80      	.DB  0x80,0x61,0x80,0x63,0x80,0x67,0x80,0x6F
000782 7d80
000783 7980
000784 7180
000785 6180      	.DB  0x80,0x7D,0x80,0x79,0x80,0x71,0x80,0x61
000786 6180
000787 6180
000788 6180
000789 0000      	.DB  0x80,0x61,0x80,0x61,0x80,0x61,0x0,0x0
00078a 0000
00078b 0000
00078c 0000
00078d 60c0      	.DB  0x0,0x0,0x0,0x0,0x0,0x0,0xC0,0x60
00078e 6180
00078f 6300
000790 6600
000791 6600      	.DB  0x80,0x61,0x0,0x63,0x0,0x66,0x0,0x66
000792 6c00
000793 7800
000794 7c00
000795 6600      	.DB  0x0,0x6C,0x0,0x78,0x0,0x7C,0x0,0x66
000796 6600
000797 6300
000798 6180
000799 6180      	.DB  0x0,0x66,0x0,0x63,0x80,0x61,0x80,0x61
00079a 60c0
00079b 0000
00079c 0000
00079d 0000      	.DB  0xC0,0x60,0x0,0x0,0x0,0x0,0x0,0x0
00079e 0000
00079f 3fc0
0007a0 3fc0
0007a1 30c0      	.DB  0x0,0x0,0xC0,0x3F,0xC0,0x3F,0xC0,0x30
0007a2 30c0
0007a3 30c0
0007a4 30c0
0007a5 30c0      	.DB  0xC0,0x30,0xC0,0x30,0xC0,0x30,0xC0,0x30
0007a6 30c0
0007a7 30c0
0007a8 30c0
0007a9 30c0      	.DB  0xC0,0x30,0xC0,0x30,0xC0,0x30,0xC0,0x30
0007aa 30c0
0007ab f0c0
0007ac f0c0
0007ad 0000      	.DB  0xC0,0x30,0xC0,0xF0,0xC0,0xF0,0x0,0x0
0007ae 0000
0007af 0000
0007b0 0000
0007b1 71c0      	.DB  0x0,0x0,0x0,0x0,0x0,0x0,0xC0,0x71
0007b2 71c0
0007b3 7bc0
0007b4 7ac0
0007b5 6ac0      	.DB  0xC0,0x71,0xC0,0x7B,0xC0,0x7A,0xC0,0x6A
0007b6 6ac0
0007b7 6ec0
0007b8 64c0
0007b9 60c0      	.DB  0xC0,0x6A,0xC0,0x6E,0xC0,0x64,0xC0,0x60
0007ba 60c0
0007bb 60c0
0007bc 60c0
0007bd 60c0      	.DB  0xC0,0x60,0xC0,0x60,0xC0,0x60,0xC0,0x60
0007be 60c0
0007bf 0000
0007c0 0000
0007c1 0000      	.DB  0xC0,0x60,0x0,0x0,0x0,0x0,0x0,0x0
0007c2 0000
0007c3 6180
0007c4 6180
0007c5 6180      	.DB  0x0,0x0,0x80,0x61,0x80,0x61,0x80,0x61
0007c6 6180
0007c7 6180
0007c8 6180
0007c9 7f80      	.DB  0x80,0x61,0x80,0x61,0x80,0x61,0x80,0x7F
0007ca 7f80
0007cb 6180
0007cc 6180
0007cd 6180      	.DB  0x80,0x7F,0x80,0x61,0x80,0x61,0x80,0x61
0007ce 6180
0007cf 6180
0007d0 6180
0007d1 0000      	.DB  0x80,0x61,0x80,0x61,0x80,0x61,0x0,0x0
0007d2 0000
0007d3 0000
0007d4 0000
0007d5 1e00      	.DB  0x0,0x0,0x0,0x0,0x0,0x0,0x0,0x1E
0007d6 3f00
0007d7 3300
0007d8 6180
0007d9 6180      	.DB  0x0,0x3F,0x0,0x33,0x80,0x61,0x80,0x61
0007da 6180
0007db 6180
0007dc 6180
0007dd 6180      	.DB  0x80,0x61,0x80,0x61,0x80,0x61,0x80,0x61
0007de 6180
0007df 6180
0007e0 3300
0007e1 3f00      	.DB  0x80,0x61,0x80,0x61,0x0,0x33,0x0,0x3F
0007e2 1e00
0007e3 0000
0007e4 0000
0007e5 0000      	.DB  0x0,0x1E,0x0,0x0,0x0,0x0,0x0,0x0
0007e6 0000
0007e7 7fc0
0007e8 7fc0
0007e9 60c0      	.DB  0x0,0x0,0xC0,0x7F,0xC0,0x7F,0xC0,0x60
0007ea 60c0
0007eb 60c0
0007ec 60c0
0007ed 60c0      	.DB  0xC0,0x60,0xC0,0x60,0xC0,0x60,0xC0,0x60
0007ee 60c0
0007ef 60c0
0007f0 60c0
0007f1 60c0      	.DB  0xC0,0x60,0xC0,0x60,0xC0,0x60,0xC0,0x60
0007f2 60c0
0007f3 60c0
0007f4 60c0
0007f5 0000      	.DB  0xC0,0x60,0xC0,0x60,0xC0,0x60,0x0,0x0
0007f6 0000
0007f7 0000
0007f8 0000
0007f9 7e00      	.DB  0x0,0x0,0x0,0x0,0x0,0x0,0x0,0x7E
0007fa 7f00
0007fb 6380
0007fc 6180
0007fd 6180      	.DB  0x0,0x7F,0x80,0x63,0x80,0x61,0x80,0x61
0007fe 6180
0007ff 6380
000800 7f00
000801 7e00      	.DB  0x80,0x61,0x80,0x63,0x0,0x7F,0x0,0x7E
000802 6000
000803 6000
000804 6000
000805 6000      	.DB  0x0,0x60,0x0,0x60,0x0,0x60,0x0,0x60
000806 6000
000807 0000
000808 0000
000809 0000      	.DB  0x0,0x60,0x0,0x0,0x0,0x0,0x0,0x0
00080a 0000
00080b 1e00
00080c 3f00
00080d 3180      	.DB  0x0,0x0,0x0,0x1E,0x0,0x3F,0x80,0x31
00080e 6180
00080f 6000
000810 6000
000811 6000      	.DB  0x80,0x61,0x0,0x60,0x0,0x60,0x0,0x60
000812 6000
000813 6000
000814 6000
000815 6180      	.DB  0x0,0x60,0x0,0x60,0x0,0x60,0x80,0x61
000816 3180
000817 3f00
000818 1e00
000819 0000      	.DB  0x80,0x31,0x0,0x3F,0x0,0x1E,0x0,0x0
00081a 0000
00081b 0000
00081c 0000
00081d ffc0      	.DB  0x0,0x0,0x0,0x0,0x0,0x0,0xC0,0xFF
00081e ffc0
00081f 0c00
000820 0c00
000821 0c00      	.DB  0xC0,0xFF,0x0,0xC,0x0,0xC,0x0,0xC
000822 0c00
000823 0c00
000824 0c00
000825 0c00      	.DB  0x0,0xC,0x0,0xC,0x0,0xC,0x0,0xC
000826 0c00
000827 0c00
000828 0c00
000829 0c00      	.DB  0x0,0xC,0x0,0xC,0x0,0xC,0x0,0xC
00082a 0c00
00082b 0000
00082c 0000
00082d 0000      	.DB  0x0,0xC,0x0,0x0,0x0,0x0,0x0,0x0
00082e 0000
00082f c0c0
000830 6180
000831 6180      	.DB  0x0,0x0,0xC0,0xC0,0x80,0x61,0x80,0x61
000832 3300
000833 3300
000834 1f00
000835 1e00      	.DB  0x0,0x33,0x0,0x33,0x0,0x1F,0x0,0x1E
000836 0e00
000837 0e00
000838 0c00
000839 1c00      	.DB  0x0,0xE,0x0,0xE,0x0,0xC,0x0,0x1C
00083a 3800
00083b 7000
00083c e000
00083d 0000      	.DB  0x0,0x38,0x0,0x70,0x0,0xE0,0x0,0x0
00083e 0000
00083f 0000
000840 0000
000841 0400      	.DB  0x0,0x0,0x0,0x0,0x0,0x0,0x0,0x4
000842 1f00
000843 3580
000844 64c0
000845 64c0      	.DB  0x0,0x1F,0x80,0x35,0xC0,0x64,0xC0,0x64
000846 c460
000847 c460
000848 64c0
000849 64c0      	.DB  0x60,0xC4,0x60,0xC4,0xC0,0x64,0xC0,0x64
00084a 3580
00084b 1f00
00084c 0400
00084d 0400      	.DB  0x80,0x35,0x0,0x1F,0x0,0x4,0x0,0x4
00084e 0400
00084f 0000
000850 0000
000851 0000      	.DB  0x0,0x4,0x0,0x0,0x0,0x0,0x0,0x0
000852 0000
000853 c0c0
000854 6080
000855 6180      	.DB  0x0,0x0,0xC0,0xC0,0x80,0x60,0x80,0x61
000856 3300
000857 3b00
000858 1e00
000859 0c00      	.DB  0x0,0x33,0x0,0x3B,0x0,0x1E,0x0,0xC
00085a 0c00
00085b 1e00
00085c 1f00
00085d 3b00      	.DB  0x0,0xC,0x0,0x1E,0x0,0x1F,0x0,0x3B
00085e 7180
00085f 6180
000860 c0c0
000861 0000      	.DB  0x80,0x71,0x80,0x61,0xC0,0xC0,0x0,0x0
000862 0000
000863 0000
000864 0000
000865 60c0      	.DB  0x0,0x0,0x0,0x0,0x0,0x0,0xC0,0x60
000866 60c0
000867 60c0
000868 60c0
000869 60c0      	.DB  0xC0,0x60,0xC0,0x60,0xC0,0x60,0xC0,0x60
00086a 60c0
00086b 60c0
00086c 60c0
00086d 60c0      	.DB  0xC0,0x60,0xC0,0x60,0xC0,0x60,0xC0,0x60
00086e 60c0
00086f 60c0
000870 60c0
000871 7fc0      	.DB  0xC0,0x60,0xC0,0x60,0xC0,0x60,0xC0,0x7F
000872 7fc0
000873 0060
000874 0060
000875 0000      	.DB  0xC0,0x7F,0x60,0x0,0x60,0x0,0x0,0x0
000876 0000
000877 6180
000878 6180
000879 6180      	.DB  0x0,0x0,0x80,0x61,0x80,0x61,0x80,0x61
00087a 6180
00087b 6180
00087c 6180
00087d 7f80      	.DB  0x80,0x61,0x80,0x61,0x80,0x61,0x80,0x7F
00087e 3f80
00087f 0180
000880 0180
000881 0180      	.DB  0x80,0x3F,0x80,0x1,0x80,0x1,0x80,0x1
000882 0180
000883 01c0
000884 01c0
000885 0000      	.DB  0x80,0x1,0xC0,0x1,0xC0,0x1,0x0,0x0
000886 0000
000887 0000
000888 0000
000889 ccc0      	.DB  0x0,0x0,0x0,0x0,0x0,0x0,0xC0,0xCC
00088a ccc0
00088b ccc0
00088c ccc0
00088d ccc0      	.DB  0xC0,0xCC,0xC0,0xCC,0xC0,0xCC,0xC0,0xCC
00088e ccc0
00088f ccc0
000890 ccc0
000891 ccc0      	.DB  0xC0,0xCC,0xC0,0xCC,0xC0,0xCC,0xC0,0xCC
000892 ccc0
000893 ccc0
000894 ccc0
000895 ffc0      	.DB  0xC0,0xCC,0xC0,0xCC,0xC0,0xCC,0xC0,0xFF
000896 ffc0
000897 0000
000898 0000
000899 0000      	.DB  0xC0,0xFF,0x0,0x0,0x0,0x0,0x0,0x0
00089a 0000
00089b ccc0
00089c ccc0
00089d ccc0      	.DB  0x0,0x0,0xC0,0xCC,0xC0,0xCC,0xC0,0xCC
00089e ccc0
00089f ccc0
0008a0 ccc0
0008a1 ccc0      	.DB  0xC0,0xCC,0xC0,0xCC,0xC0,0xCC,0xC0,0xCC
0008a2 ccc0
0008a3 ccc0
0008a4 ccc0
0008a5 ccc0      	.DB  0xC0,0xCC,0xC0,0xCC,0xC0,0xCC,0xC0,0xCC
0008a6 ccc0
0008a7 ffc0
0008a8 ffc0
0008a9 0060      	.DB  0xC0,0xCC,0xC0,0xFF,0xC0,0xFF,0x60,0x0
0008aa 0060
0008ab 0000
0008ac 0000
0008ad 3f00      	.DB  0x60,0x0,0x0,0x0,0x0,0x0,0x0,0x3F
0008ae 3f00
0008af 0c00
0008b0 0c00
0008b1 0c00      	.DB  0x0,0x3F,0x0,0xC,0x0,0xC,0x0,0xC
0008b2 0c00
0008b3 0c00
0008b4 0c00
0008b5 0c00      	.DB  0x0,0xC,0x0,0xC,0x0,0xC,0x0,0xC
0008b6 0c00
0008b7 0c00
0008b8 0c00
0008b9 3f00      	.DB  0x0,0xC,0x0,0xC,0x0,0xC,0x0,0x3F
0008ba 3f00
0008bb 0000
0008bc 0000
0008bd 0000      	.DB  0x0,0x3F,0x0,0x0,0x0,0x0,0x0,0x0
0008be 0000
0008bf 3f00
0008c0 3f00
0008c1 0c00      	.DB  0x0,0x0,0x0,0x3F,0x0,0x3F,0x0,0xC
0008c2 0c00
0008c3 0c00
0008c4 0c00
0008c5 0c00      	.DB  0x0,0xC,0x0,0xC,0x0,0xC,0x0,0xC
0008c6 0c00
0008c7 0c00
0008c8 0c00
0008c9 0c00      	.DB  0x0,0xC,0x0,0xC,0x0,0xC,0x0,0xC
0008ca 0c00
0008cb 3f00
0008cc 3f00
0008cd 0000      	.DB  0x0,0xC,0x0,0x3F,0x0,0x3F,0x0,0x0
0008ce 0000
0008cf 0000
0008d0 0000
0008d1 3000      	.DB  0x0,0x0,0x0,0x0,0x0,0x0,0x0,0x30
0008d2 3000
0008d3 3000
0008d4 3000
0008d5 3c00      	.DB  0x0,0x30,0x0,0x30,0x0,0x30,0x0,0x3C
0008d6 3f00
0008d7 3300
0008d8 3180
0008d9 30c0      	.DB  0x0,0x3F,0x0,0x33,0x80,0x31,0xC0,0x30
0008da 30c0
0008db 31c0
0008dc 3380
0008dd 3f00      	.DB  0xC0,0x30,0xC0,0x31,0x80,0x33,0x0,0x3F
0008de 3e00
0008df 0000
0008e0 0000
0008e1 0000      	.DB  0x0,0x3E,0x0,0x0,0x0,0x0,0x0,0x0
0008e2 0000
0008e3 7800
0008e4 1e00
0008e5 0700      	.DB  0x0,0x0,0x0,0x78,0x0,0x1E,0x0,0x7
0008e6 0380
0008e7 0180
0008e8 0180
0008e9 7f80      	.DB  0x80,0x3,0x80,0x1,0x80,0x1,0x80,0x7F
0008ea 7f80
0008eb 0180
0008ec 0180
0008ed 0380      	.DB  0x80,0x7F,0x80,0x1,0x80,0x1,0x80,0x3
0008ee 0700
0008ef 1e00
0008f0 7800
0008f1 0000      	.DB  0x0,0x7,0x0,0x1E,0x0,0x78,0x0,0x0
0008f2 0000
0008f3 0000
0008f4 0000
0008f5 c700      	.DB  0x0,0x0,0x0,0x0,0x0,0x0,0x0,0xC7
0008f6 cd80
0008f7 cd80
0008f8 d8c0
0008f9 d8c0      	.DB  0x80,0xCD,0x80,0xCD,0xC0,0xD8,0xC0,0xD8
0008fa f0c0
0008fb f0c0
0008fc f0c0
0008fd d8c0      	.DB  0xC0,0xF0,0xC0,0xF0,0xC0,0xF0,0xC0,0xD8
0008fe d8c0
0008ff ccc0
000900 cd80
000901 cd80      	.DB  0xC0,0xD8,0xC0,0xCC,0x80,0xCD,0x80,0xCD
000902 c700
000903 0000
000904 0000
000905 0000      	.DB  0x0,0xC7,0x0,0x0,0x0,0x0,0x0,0x0
000906 0000
000907 1f80
000908 7f80
000909 6180      	.DB  0x0,0x0,0x80,0x1F,0x80,0x7F,0x80,0x61
00090a c180
00090b c180
00090c c180
00090d 6180      	.DB  0x80,0xC1,0x80,0xC1,0x80,0xC1,0x80,0x61
00090e 7f80
00090f 1f80
000910 0f80
000911 1980      	.DB  0x80,0x7F,0x80,0x1F,0x80,0xF,0x80,0x19
000912 3180
000913 6180
000914 c180
000915 0000      	.DB  0x80,0x31,0x80,0x61,0x80,0xC1,0x0,0x0
000916 0000
000917 0000
000918 0000
000919 0000      	.DB  0x0,0x0,0x0,0x0,0x0,0x0,0x0,0x0
00091a 0000
00091b 0000
00091c 0000
00091d 1f00      	.DB  0x0,0x0,0x0,0x0,0x0,0x0,0x0,0x1F
00091e 3f80
00091f 6180
000920 0180
000921 1f80      	.DB  0x80,0x3F,0x80,0x61,0x80,0x1,0x80,0x1F
000922 3f80
000923 6180
000924 6380
000925 7f80      	.DB  0x80,0x3F,0x80,0x61,0x80,0x63,0x80,0x7F
000926 38c0
000927 0000
000928 0000
000929 0000      	.DB  0xC0,0x38,0x0,0x0,0x0,0x0,0x0,0x0
00092a 0000
00092b 0000
00092c 0000
00092d 0000      	.DB  0x0,0x0,0x0,0x0,0x0,0x0,0x0,0x0
00092e 0100
00092f 3f00
000930 7f00
000931 6000      	.DB  0x0,0x1,0x0,0x3F,0x0,0x7F,0x0,0x60
000932 7e00
000933 7f00
000934 6180
000935 6180      	.DB  0x0,0x7E,0x0,0x7F,0x80,0x61,0x80,0x61
000936 6180
000937 7f00
000938 3e00
000939 0000      	.DB  0x80,0x61,0x0,0x7F,0x0,0x3E,0x0,0x0
00093a 0000
00093b 0000
00093c 0000
00093d 0000      	.DB  0x0,0x0,0x0,0x0,0x0,0x0,0x0,0x0
00093e 0000
00093f 0000
000940 0000
000941 3e00      	.DB  0x0,0x0,0x0,0x0,0x0,0x0,0x0,0x3E
000942 7f00
000943 6100
000944 7e00
000945 7f00      	.DB  0x0,0x7F,0x0,0x61,0x0,0x7E,0x0,0x7F
000946 6180
000947 6180
000948 6180
000949 7f00      	.DB  0x80,0x61,0x80,0x61,0x80,0x61,0x0,0x7F
00094a 3e00
00094b 0000
00094c 0000
00094d 0000      	.DB  0x0,0x3E,0x0,0x0,0x0,0x0,0x0,0x0
00094e 0000
00094f 0000
000950 0000
000951 0000      	.DB  0x0,0x0,0x0,0x0,0x0,0x0,0x0,0x0
000952 0000
000953 7f00
000954 7f00
000955 6000      	.DB  0x0,0x0,0x0,0x7F,0x0,0x7F,0x0,0x60
000956 6000
000957 6000
000958 6000
000959 6000      	.DB  0x0,0x60,0x0,0x60,0x0,0x60,0x0,0x60
00095a 6000
00095b 6000
00095c 6000
00095d 0000      	.DB  0x0,0x60,0x0,0x60,0x0,0x60,0x0,0x0
00095e 0000
00095f 0000
000960 0000
000961 0000      	.DB  0x0,0x0,0x0,0x0,0x0,0x0,0x0,0x0
000962 0000
000963 0000
000964 0000
000965 7f80      	.DB  0x0,0x0,0x0,0x0,0x0,0x0,0x80,0x7F
000966 7f80
000967 6180
000968 6180
000969 6180      	.DB  0x80,0x7F,0x80,0x61,0x80,0x61,0x80,0x61
00096a 6180
00096b 6180
00096c 6180
00096d 6180      	.DB  0x80,0x61,0x80,0x61,0x80,0x61,0x80,0x61
00096e ffc0
00096f ffc0
000970 c0c0
000971 0000      	.DB  0xC0,0xFF,0xC0,0xFF,0xC0,0xC0,0x0,0x0
000972 0000
000973 0000
000974 0000
000975 0000      	.DB  0x0,0x0,0x0,0x0,0x0,0x0,0x0,0x0
000976 0000
000977 1e00
000978 3f00
000979 7300      	.DB  0x0,0x0,0x0,0x1E,0x0,0x3F,0x0,0x73
00097a 6180
00097b 7f80
00097c 7f80
00097d 6000      	.DB  0x80,0x61,0x80,0x7F,0x80,0x7F,0x0,0x60
00097e 7180
00097f 3f00
000980 1e00
000981 0000      	.DB  0x80,0x71,0x0,0x3F,0x0,0x1E,0x0,0x0
000982 0000
000983 0000
000984 0000
000985 0000      	.DB  0x0,0x0,0x0,0x0,0x0,0x0,0x0,0x0
000986 0000
000987 0000
000988 0000
000989 c460      	.DB  0x0,0x0,0x0,0x0,0x0,0x0,0x60,0xC4
00098a 64c0
00098b 3580
00098c 1f00
00098d 0e00      	.DB  0xC0,0x64,0x80,0x35,0x0,0x1F,0x0,0xE
00098e 1f00
00098f 3580
000990 64c0
000991 c460      	.DB  0x0,0x1F,0x80,0x35,0xC0,0x64,0x60,0xC4
000992 8420
000993 0000
000994 0000
000995 0000      	.DB  0x20,0x84,0x0,0x0,0x0,0x0,0x0,0x0
000996 0000
000997 0000
000998 0000
000999 0000      	.DB  0x0,0x0,0x0,0x0,0x0,0x0,0x0,0x0
00099a 0000
00099b 3e00
00099c 3f00
00099d 0100      	.DB  0x0,0x0,0x0,0x3E,0x0,0x3F,0x0,0x1
00099e 3e00
00099f 3f00
0009a0 0180
0009a1 0180      	.DB  0x0,0x3E,0x0,0x3F,0x80,0x1,0x80,0x1
0009a2 0180
0009a3 3f00
0009a4 3e00
0009a5 0000      	.DB  0x80,0x1,0x0,0x3F,0x0,0x3E,0x0,0x0
0009a6 0000
0009a7 0000
0009a8 0000
0009a9 0000      	.DB  0x0,0x0,0x0,0x0,0x0,0x0,0x0,0x0
0009aa 0000
0009ab 0000
0009ac 0000
0009ad 6180      	.DB  0x0,0x0,0x0,0x0,0x0,0x0,0x80,0x61
0009ae 6180
0009af 6180
0009b0 6380
0009b1 6780      	.DB  0x80,0x61,0x80,0x61,0x80,0x63,0x80,0x67
0009b2 6d80
0009b3 7980
0009b4 7180
0009b5 6180      	.DB  0x80,0x6D,0x80,0x79,0x80,0x71,0x80,0x61
0009b6 6180
0009b7 0000
0009b8 0000
0009b9 0000      	.DB  0x80,0x61,0x0,0x0,0x0,0x0,0x0,0x0
0009ba 0000
0009bb 0000
0009bc 0000
0009bd 0c00      	.DB  0x0,0x0,0x0,0x0,0x0,0x0,0x0,0xC
0009be 0c00
0009bf 6180
0009c0 6180
0009c1 6180      	.DB  0x0,0xC,0x80,0x61,0x80,0x61,0x80,0x61
0009c2 6380
0009c3 6780
0009c4 6d80
0009c5 7980      	.DB  0x80,0x63,0x80,0x67,0x80,0x6D,0x80,0x79
0009c6 7180
0009c7 6180
0009c8 6180
0009c9 0000      	.DB  0x80,0x71,0x80,0x61,0x80,0x61,0x0,0x0
0009ca 0000
0009cb 0000
0009cc 0000
0009cd 0000      	.DB  0x0,0x0,0x0,0x0,0x0,0x0,0x0,0x0
0009ce 0000
0009cf 0000
0009d0 0000
0009d1 6180      	.DB  0x0,0x0,0x0,0x0,0x0,0x0,0x80,0x61
0009d2 6300
0009d3 6600
0009d4 6c00
0009d5 7c00      	.DB  0x0,0x63,0x0,0x66,0x0,0x6C,0x0,0x7C
0009d6 7600
0009d7 6300
0009d8 6300
0009d9 6180      	.DB  0x0,0x76,0x0,0x63,0x0,0x63,0x80,0x61
0009da 60c0
0009db 0000
0009dc 0000
0009dd 0000      	.DB  0xC0,0x60,0x0,0x0,0x0,0x0,0x0,0x0
0009de 0000
0009df 0000
0009e0 0000
0009e1 0000      	.DB  0x0,0x0,0x0,0x0,0x0,0x0,0x0,0x0
0009e2 0000
0009e3 3f80
0009e4 3f80
0009e5 3180      	.DB  0x0,0x0,0x80,0x3F,0x80,0x3F,0x80,0x31
0009e6 3180
0009e7 3180
0009e8 3180
0009e9 3180      	.DB  0x80,0x31,0x80,0x31,0x80,0x31,0x80,0x31
0009ea 3180
0009eb f180
0009ec f180
0009ed 0000      	.DB  0x80,0x31,0x80,0xF1,0x80,0xF1,0x0,0x0
0009ee 0000
0009ef 0000
0009f0 0000
0009f1 0000      	.DB  0x0,0x0,0x0,0x0,0x0,0x0,0x0,0x0
0009f2 0000
0009f3 0000
0009f4 0000
0009f5 c060      	.DB  0x0,0x0,0x0,0x0,0x0,0x0,0x60,0xC0
0009f6 e0e0
0009f7 f1e0
0009f8 db60
0009f9 ce60      	.DB  0xE0,0xE0,0xE0,0xF1,0x60,0xDB,0x60,0xCE
0009fa c460
0009fb c460
0009fc c060
0009fd c060      	.DB  0x60,0xC4,0x60,0xC4,0x60,0xC0,0x60,0xC0
0009fe c060
0009ff 0000
000a00 0000
000a01 0000      	.DB  0x60,0xC0,0x0,0x0,0x0,0x0,0x0,0x0
000a02 0000
000a03 0000
000a04 0000
000a05 0000      	.DB  0x0,0x0,0x0,0x0,0x0,0x0,0x0,0x0
000a06 0000
000a07 6180
000a08 6180
000a09 6180      	.DB  0x0,0x0,0x80,0x61,0x80,0x61,0x80,0x61
000a0a 6180
000a0b 7f80
000a0c 7f80
000a0d 6180      	.DB  0x80,0x61,0x80,0x7F,0x80,0x7F,0x80,0x61
000a0e 6180
000a0f 6180
000a10 6180
000a11 0000      	.DB  0x80,0x61,0x80,0x61,0x80,0x61,0x0,0x0
000a12 0000
000a13 0000
000a14 0000
000a15 0000      	.DB  0x0,0x0,0x0,0x0,0x0,0x0,0x0,0x0
000a16 0000
000a17 0000
000a18 0000
000a19 1e00      	.DB  0x0,0x0,0x0,0x0,0x0,0x0,0x0,0x1E
000a1a 3f00
000a1b 7380
000a1c 6180
000a1d 6180      	.DB  0x0,0x3F,0x80,0x73,0x80,0x61,0x80,0x61
000a1e 6180
000a1f 6180
000a20 7380
000a21 3f00      	.DB  0x80,0x61,0x80,0x61,0x80,0x73,0x0,0x3F
000a22 1e00
000a23 0000
000a24 0000
000a25 0000      	.DB  0x0,0x1E,0x0,0x0,0x0,0x0,0x0,0x0
000a26 0000
000a27 0000
000a28 0000
000a29 0000      	.DB  0x0,0x0,0x0,0x0,0x0,0x0,0x0,0x0
000a2a 0000
000a2b 7f80
000a2c 7f80
000a2d 6180      	.DB  0x0,0x0,0x80,0x7F,0x80,0x7F,0x80,0x61
000a2e 6180
000a2f 6180
000a30 6180
000a31 6180      	.DB  0x80,0x61,0x80,0x61,0x80,0x61,0x80,0x61
000a32 6180
000a33 6180
000a34 6180
000a35 0000      	.DB  0x80,0x61,0x80,0x61,0x80,0x61,0x0,0x0
000a36 0000
000a37 0000
000a38 0000
000a39 0000      	.DB  0x0,0x0,0x0,0x0,0x0,0x0,0x0,0x0
000a3a 0000
000a3b 0000
000a3c 6e00
000a3d 7f00      	.DB  0x0,0x0,0x0,0x0,0x0,0x6E,0x0,0x7F
000a3e 7380
000a3f 6180
000a40 6180
000a41 6180      	.DB  0x80,0x73,0x80,0x61,0x80,0x61,0x80,0x61
000a42 6180
000a43 7380
000a44 7f00
000a45 6e00      	.DB  0x80,0x61,0x80,0x73,0x0,0x7F,0x0,0x6E
000a46 6000
000a47 6000
000a48 6000
000a49 6000      	.DB  0x0,0x60,0x0,0x60,0x0,0x60,0x0,0x60
000a4a 0000
000a4b 0000
000a4c 0000
000a4d 0000      	.DB  0x0,0x0,0x0,0x0,0x0,0x0,0x0,0x0
000a4e 0000
000a4f 1e00
000a50 3f00
000a51 7380      	.DB  0x0,0x0,0x0,0x1E,0x0,0x3F,0x80,0x73
000a52 6180
000a53 6000
000a54 6000
000a55 6180      	.DB  0x80,0x61,0x0,0x60,0x0,0x60,0x80,0x61
000a56 7380
000a57 3f00
000a58 1e00
000a59 0000      	.DB  0x80,0x73,0x0,0x3F,0x0,0x1E,0x0,0x0
000a5a 0000
000a5b 0000
000a5c 0000
000a5d 0000      	.DB  0x0,0x0,0x0,0x0,0x0,0x0,0x0,0x0
000a5e 0000
000a5f 0000
000a60 0000
000a61 7f80      	.DB  0x0,0x0,0x0,0x0,0x0,0x0,0x80,0x7F
000a62 7f80
000a63 0c00
000a64 0c00
000a65 0c00      	.DB  0x80,0x7F,0x0,0xC,0x0,0xC,0x0,0xC
000a66 0c00
000a67 0c00
000a68 0c00
000a69 0c00      	.DB  0x0,0xC,0x0,0xC,0x0,0xC,0x0,0xC
000a6a 0c00
000a6b 0000
000a6c 0000
000a6d 0000      	.DB  0x0,0xC,0x0,0x0,0x0,0x0,0x0,0x0
000a6e 0000
000a6f 0000
000a70 0000
000a71 0000      	.DB  0x0,0x0,0x0,0x0,0x0,0x0,0x0,0x0
000a72 0000
000a73 60c0
000a74 60c0
000a75 3180      	.DB  0x0,0x0,0xC0,0x60,0xC0,0x60,0x80,0x31
000a76 1980
000a77 0f00
000a78 0700
000a79 0600      	.DB  0x80,0x19,0x0,0xF,0x0,0x7,0x0,0x6
000a7a 0e00
000a7b 0c00
000a7c 3800
000a7d 0000      	.DB  0x0,0xE,0x0,0xC,0x0,0x38,0x0,0x0
000a7e 0000
000a7f 0000
000a80 0000
000a81 0000      	.DB  0x0,0x0,0x0,0x0,0x0,0x0,0x0,0x0
000a82 0000
000a83 0000
000a84 0000
000a85 0c00      	.DB  0x0,0x0,0x0,0x0,0x0,0x0,0x0,0xC
000a86 7f80
000a87 ccc0
000a88 8c40
000a89 8c40      	.DB  0x80,0x7F,0xC0,0xCC,0x40,0x8C,0x40,0x8C
000a8a ccc0
000a8b 7f80
000a8c 0c00
000a8d 0c00      	.DB  0xC0,0xCC,0x80,0x7F,0x0,0xC,0x0,0xC
000a8e 0c00
000a8f 0000
000a90 0000
000a91 0000      	.DB  0x0,0xC,0x0,0x0,0x0,0x0,0x0,0x0
000a92 0000
000a93 0000
000a94 0000
000a95 0000      	.DB  0x0,0x0,0x0,0x0,0x0,0x0,0x0,0x0
000a96 0000
000a97 6180
000a98 3300
000a99 3300      	.DB  0x0,0x0,0x80,0x61,0x0,0x33,0x0,0x33
000a9a 1e00
000a9b 0c00
000a9c 0c00
000a9d 1e00      	.DB  0x0,0x1E,0x0,0xC,0x0,0xC,0x0,0x1E
000a9e 3300
000a9f 3300
000aa0 6180
000aa1 0000      	.DB  0x0,0x33,0x0,0x33,0x80,0x61,0x0,0x0
000aa2 0000
000aa3 0000
000aa4 0000
000aa5 0000      	.DB  0x0,0x0,0x0,0x0,0x0,0x0,0x0,0x0
000aa6 0000
000aa7 0000
000aa8 0000
000aa9 6180      	.DB  0x0,0x0,0x0,0x0,0x0,0x0,0x80,0x61
000aaa 6180
000aab 6180
000aac 6180
000aad 6180      	.DB  0x80,0x61,0x80,0x61,0x80,0x61,0x80,0x61
000aae 6180
000aaf 6180
000ab0 6180
000ab1 7f80      	.DB  0x80,0x61,0x80,0x61,0x80,0x61,0x80,0x7F
000ab2 7f80
000ab3 0180
000ab4 0000
000ab5 0000      	.DB  0x80,0x7F,0x80,0x1,0x0,0x0,0x0,0x0
000ab6 0000
000ab7 0000
000ab8 0000
000ab9 0000      	.DB  0x0,0x0,0x0,0x0,0x0,0x0,0x0,0x0
000aba 0000
000abb 6180
000abc 6180
000abd 6180      	.DB  0x0,0x0,0x80,0x61,0x80,0x61,0x80,0x61
000abe 6180
000abf 7f80
000ac0 7f80
000ac1 0180      	.DB  0x80,0x61,0x80,0x7F,0x80,0x7F,0x80,0x1
000ac2 0180
000ac3 01c0
000ac4 01c0
000ac5 0000      	.DB  0x80,0x1,0xC0,0x1,0xC0,0x1,0x0,0x0
000ac6 0000
000ac7 0000
000ac8 0000
000ac9 0000      	.DB  0x0,0x0,0x0,0x0,0x0,0x0,0x0,0x0
000aca 0000
000acb 0000
000acc 0000
000acd ccc0      	.DB  0x0,0x0,0x0,0x0,0x0,0x0,0xC0,0xCC
000ace ccc0
000acf ccc0
000ad0 ccc0
000ad1 ccc0      	.DB  0xC0,0xCC,0xC0,0xCC,0xC0,0xCC,0xC0,0xCC
000ad2 ccc0
000ad3 ccc0
000ad4 ccc0
000ad5 ffc0      	.DB  0xC0,0xCC,0xC0,0xCC,0xC0,0xCC,0xC0,0xFF
000ad6 ffc0
000ad7 0000
000ad8 0000
000ad9 0000      	.DB  0xC0,0xFF,0x0,0x0,0x0,0x0,0x0,0x0
000ada 0000
000adb 0000
000adc 0000
000add 0000      	.DB  0x0,0x0,0x0,0x0,0x0,0x0,0x0,0x0
000ade 0000
000adf ccc0
000ae0 ccc0
000ae1 ccc0      	.DB  0x0,0x0,0xC0,0xCC,0xC0,0xCC,0xC0,0xCC
000ae2 ccc0
000ae3 ccc0
000ae4 ccc0
000ae5 ccc0      	.DB  0xC0,0xCC,0xC0,0xCC,0xC0,0xCC,0xC0,0xCC
000ae6 ccc0
000ae7 ffc0
000ae8 ffe0
000ae9 0060      	.DB  0xC0,0xCC,0xC0,0xFF,0xE0,0xFF,0x60,0x0
000aea 0000
000aeb 0000
000aec 0000
000aed 0600      	.DB  0x0,0x0,0x0,0x0,0x0,0x0,0x0,0x6
000aee 0600
000aef 0000
000af0 0000
000af1 3e00      	.DB  0x0,0x6,0x0,0x0,0x0,0x0,0x0,0x3E
000af2 3e00
000af3 0600
000af4 0600
000af5 0600      	.DB  0x0,0x3E,0x0,0x6,0x0,0x6,0x0,0x6
000af6 0600
000af7 0600
000af8 0600
000af9 0600      	.DB  0x0,0x6,0x0,0x6,0x0,0x6,0x0,0x6
000afa 0600
000afb 0000
000afc 0000
000afd 0000      	.DB  0x0,0x6,0x0,0x0,0x0,0x0,0x0,0x0
000afe 0000
000aff 0600
000b00 0600
000b01 0000      	.DB  0x0,0x0,0x0,0x6,0x0,0x6,0x0,0x0
000b02 0000
000b03 3e00
000b04 3e00
000b05 0600      	.DB  0x0,0x0,0x0,0x3E,0x0,0x3E,0x0,0x6
000b06 0600
000b07 0600
000b08 0600
000b09 0600      	.DB  0x0,0x6,0x0,0x6,0x0,0x6,0x0,0x6
000b0a 0600
000b0b 0600
000b0c 0600
000b0d 0000      	.DB  0x0,0x6,0x0,0x6,0x0,0x6,0x0,0x0
000b0e 0000
000b0f 0000
000b10 0000
000b11 0000      	.DB  0x0,0x0,0x0,0x0,0x0,0x0,0x0,0x0
000b12 0000
000b13 0000
000b14 0000
000b15 6000      	.DB  0x0,0x0,0x0,0x0,0x0,0x0,0x0,0x60
000b16 6000
000b17 6000
000b18 6e00
000b19 7f00      	.DB  0x0,0x60,0x0,0x60,0x0,0x6E,0x0,0x7F
000b1a 6380
000b1b 6180
000b1c 6380
000b1d 7f00      	.DB  0x80,0x63,0x80,0x61,0x80,0x63,0x0,0x7F
000b1e 6e00
000b1f 0000
000b20 0000
000b21 0000      	.DB  0x0,0x6E,0x0,0x0,0x0,0x0,0x0,0x0
000b22 0000
000b23 0000
000b24 0000
000b25 0000      	.DB  0x0,0x0,0x0,0x0,0x0,0x0,0x0,0x0
000b26 0000
000b27 1e00
000b28 3f00
000b29 0380      	.DB  0x0,0x0,0x0,0x1E,0x0,0x3F,0x80,0x3
000b2a 0180
000b2b 3f80
000b2c 3f80
000b2d 0180      	.DB  0x80,0x1,0x80,0x3F,0x80,0x3F,0x80,0x1
000b2e 0380
000b2f 3f00
000b30 1e00
000b31 0000      	.DB  0x80,0x3,0x0,0x3F,0x0,0x1E,0x0,0x0
000b32 0000
000b33 0000
000b34 0000
000b35 0000      	.DB  0x0,0x0,0x0,0x0,0x0,0x0,0x0,0x0
000b36 0000
000b37 0000
000b38 0000
000b39 c300      	.DB  0x0,0x0,0x0,0x0,0x0,0x0,0x0,0xC3
000b3a c780
000b3b ccc0
000b3c d860
000b3d f860      	.DB  0x80,0xC7,0xC0,0xCC,0x60,0xD8,0x60,0xF8
000b3e f860
000b3f d860
000b40 cce0
000b41 c780      	.DB  0x60,0xF8,0x60,0xD8,0xE0,0xCC,0x80,0xC7
000b42 c300
000b43 0000
000b44 0000
000b45 0000      	.DB  0x0,0xC3,0x0,0x0,0x0,0x0,0x0,0x0
000b46 0000
000b47 0000
000b48 0000
000b49 0000      	.DB  0x0,0x0,0x0,0x0,0x0,0x0,0x0,0x0
000b4a 0000
000b4b 1f80
000b4c 3180
000b4d 6180      	.DB  0x0,0x0,0x80,0x1F,0x80,0x31,0x80,0x61
000b4e 6180
000b4f 6180
000b50 3180
000b51 1f80      	.DB  0x80,0x61,0x80,0x61,0x80,0x31,0x80,0x1F
000b52 0780
000b53 1980
000b54 6180
000b55 0000      	.DB  0x80,0x7,0x80,0x19,0x80,0x61,0x0,0x0
000b56 0000
000b57 0000      	.DB  0x0,0x0,0x0,0x0
                 _tbl10_G100:
000b58 2710
000b59 03e8
000b5a 0064
000b5b 000a      	.DB  0x10,0x27,0xE8,0x3,0x64,0x0,0xA,0x0
000b5c 0001      	.DB  0x1,0x0
                 _tbl16_G100:
000b5d 1000
000b5e 0100
000b5f 0010
000b60 0001      	.DB  0x0,0x10,0x0,0x1,0x10,0x0,0x1,0x0
                 
                 ;REGISTER BIT VARIABLES INITIALIZATION
                 __REG_BIT_VARS:
000b61 0000      	.DW  0x0000
                 
                 _0x3:
000b62 0202
000b63 0202      	.DB  0x2,0x2,0x2,0x2
                 _0x4:
000b64 ffff      	.DB  0xFF,0xFF
                 _0x5:
000b65 07c6      	.DB  0xC6,0x7
                 _0x6:
000b66 07c6      	.DB  0xC6,0x7
                 _0x7:
000b67 1706
000b68 1712
000b69 171c
000b6a 1723      	.DB  LOW(_0x0*2),HIGH(_0x0*2),LOW(_0x0*2+12),HIGH(_0x0*2+12),LOW(_0x0*2+22),HIGH(_0x0*2+22),LOW(_0x0*2+29),HIGH(_0x0*2+29)
000b6b 172d      	.DB  LOW(_0x0*2+39),HIGH(_0x0*2+39)
                 _0x8:
000b6c 173a
000b6d 1742
000b6e 174a
000b6f 1752      	.DB  LOW(_0x0*2+52),HIGH(_0x0*2+52),LOW(_0x0*2+60),HIGH(_0x0*2+60),LOW(_0x0*2+68),HIGH(_0x0*2+68),LOW(_0x0*2+76),HIGH(_0x0*2+76)
                 _0x9:
000b70 1758
000b71 1760
000b72 1769
000b73 1772      	.DB  LOW(_0x0*2+82),HIGH(_0x0*2+82),LOW(_0x0*2+90),HIGH(_0x0*2+90),LOW(_0x0*2+99),HIGH(_0x0*2+99),LOW(_0x0*2+108),HIGH(_0x0*2+108)
                 _0xA:
000b74 1776
000b75 1781
000b76 178d
000b77 1797      	.DB  LOW(_0x0*2+112),HIGH(_0x0*2+112),LOW(_0x0*2+123),HIGH(_0x0*2+123),LOW(_0x0*2+135),HIGH(_0x0*2+135),LOW(_0x0*2+145),HIGH(_0x0*2+145)
                 _0xB:
000b78 179e
000b79 17a5
000b7a 17aa
000b7b 17af      	.DB  LOW(_0x0*2+152),HIGH(_0x0*2+152),LOW(_0x0*2+159),HIGH(_0x0*2+159),LOW(_0x0*2+164),HIGH(_0x0*2+164),LOW(_0x0*2+169),HIGH(_0x0*2+169)
000b7c 17b5      	.DB  LOW(_0x0*2+175),HIGH(_0x0*2+175)
                 _0xC:
000b7d 1eff
000b7e ff5a      	.DB  0xFF,0x1E,0x5A,0xFF
                 _0xD:
000b7f 0202
000b80 0202      	.DB  0x2,0x2,0x2,0x2
                 _0xE:
000b81 120b
000b82 0054      	.DB  0xB,0x12,LOW(_Font11x18*2),HIGH(_Font11x18*2)
                 _0x0:
000b83 e5d2
000b84 efec
000b85 f0e5
000b86 f2e0      	.DB  0xD2,0xE5,0xEC,0xEF,0xE5,0xF0,0xE0,0xF2
000b87 f0f3
000b88 00e0
000b89 ebc2
000b8a e6e0      	.DB  0xF3,0xF0,0xE0,0x0,0xC2,0xEB,0xE0,0xE6
000b8b eeed
000b8c f2f1
000b8d 00fc
000b8e e0d2      	.DB  0xED,0xEE,0xF1,0xF2,0xFC,0x0,0xD2,0xE0
000b8f ece9
000b90 f0e5
000b91 cd00
000b92 f1e0      	.DB  0xE9,0xEC,0xE5,0xF0,0x0,0xCD,0xE0,0xF1
000b93 f0f2
000b94 e9ee
000b95 e8ea
000b96 c200      	.DB  0xF2,0xF0,0xEE,0xE9,0xEA,0xE8,0x0,0xC2
000b97 e5f0
000b98 ffec
000b99 e820
000b9a c420      	.DB  0xF0,0xE5,0xEC,0xFF,0x20,0xE8,0x20,0xC4
000b9b f2e0
000b9c 00e0
000b9d e0c7
000b9e e0e4      	.DB  0xE0,0xF2,0xE0,0x0,0xC7,0xE0,0xE4,0xE0
000b9f e8ed
000ba0 00e5
000ba1 f2ce
000ba2 ebea      	.DB  0xED,0xE8,0xE5,0x0,0xCE,0xF2,0xEA,0xEB
000ba3 edee
000ba4 002e
000ba5 e8c3
000ba6 f2f1      	.DB  0xEE,0xED,0x2E,0x0,0xC3,0xE8,0xF1,0xF2
000ba7 f0e5
000ba8 002e
000ba9 e5d0
000baa e8e6      	.DB  0xE5,0xF0,0x2E,0x0,0xD0,0xE5,0xE6,0xE8
000bab 00ec
000bac eac2
000bad feeb
000bae e5f7      	.DB  0xEC,0x0,0xC2,0xEA,0xEB,0xFE,0xF7,0xE5
000baf 00ed
000bb0 fbc2
000bb1 ebea
000bb2 f7fe      	.DB  0xED,0x0,0xC2,0xFB,0xEA,0xEB,0xFE,0xF7
000bb3 ede5
000bb4 d000
000bb5 e7e0
000bb6 e5ec      	.DB  0xE5,0xED,0x0,0xD0,0xE0,0xE7,0xEC,0xE5
000bb7 edf0
000bb8 002e
000bb9 e0d8
000bba 00e3      	.DB  0xF0,0xED,0x2E,0x0,0xD8,0xE0,0xE3,0x0
000bbb eeca
000bbc e5f0
000bbd f6ea
000bbe ffe8      	.DB  0xCA,0xEE,0xF0,0xE5,0xEA,0xF6,0xE8,0xFF
000bbf d220
000bc0 ca00
000bc1 f0ee
000bc2 eae5      	.DB  0x20,0xD2,0x0,0xCA,0xEE,0xF0,0xE5,0xEA
000bc3 e8f6
000bc4 20ff
000bc5 ebc2
000bc6 c400      	.DB  0xF6,0xE8,0xFF,0x20,0xC2,0xEB,0x0,0xC4
000bc7 f2e0
000bc8 e8f7
000bc9 20ea
000bca ebc2      	.DB  0xE0,0xF2,0xF7,0xE8,0xEA,0x20,0xC2,0xEB
000bcb d000
000bcc e7e5
000bcd f0e5
000bce 00e2      	.DB  0x0,0xD0,0xE5,0xE7,0xE5,0xF0,0xE2,0x0
000bcf e8ec
000bd0 f3ed
000bd1 fbf2
000bd2 f700      	.DB  0xEC,0xE8,0xED,0xF3,0xF2,0xFB,0x0,0xF7
000bd3 f1e0
000bd4 00fb
000bd5 e5e4
000bd6 fced      	.DB  0xE0,0xF1,0xFB,0x0,0xE4,0xE5,0xED,0xFC
000bd7 ec00
000bd8 f1e5
000bd9 f6ff
000bda e300      	.DB  0x0,0xEC,0xE5,0xF1,0xFF,0xF6,0x0,0xE3
000bdb e4ee
000bdc 2d00
000bdd 2b00
000bde c200      	.DB  0xEE,0xE4,0x0,0x2D,0x0,0x2B,0x0,0xC2
000bdf cfdb
000be0 cbce
000be1 dfcd
000be2 20de      	.DB  0xDB,0xCF,0xCE,0xCB,0xCD,0xDF,0xDE,0x20
000be3 c720
000be4 cfc0
000be5 d1c8
000be6 00dc      	.DB  0x20,0xC7,0xC0,0xCF,0xC8,0xD1,0xDC,0x0
000be7 eecf
000be8 fbe2
000be9 f0f2
000bea 00ff      	.DB  0xCF,0xEE,0xE2,0xFB,0xF2,0xF0,0xFF,0x0
000beb f0c3
000bec edf3
000bed 00f2
000bee efd3      	.DB  0xC3,0xF0,0xF3,0xED,0xF2,0x0,0xD3,0xEF
000bef e0f0
000bf0 ebe2
000bf1 cd00
000bf2 ebe0      	.DB  0xF0,0xE0,0xE2,0xEB,0x0,0xCD,0xE0,0xEB
000bf3 f8e0
000bf4 00f2
000bf5 3025
000bf6 7832      	.DB  0xE0,0xF8,0xF2,0x0,0x25,0x30,0x32,0x78
000bf7 253a
000bf8 3230
000bf9 2078
000bfa 2020      	.DB  0x3A,0x25,0x30,0x32,0x78,0x20,0x20,0x20
000bfb 3025
000bfc 7832
000bfd 252e
000bfe 3230      	.DB  0x25,0x30,0x32,0x78,0x2E,0x25,0x30,0x32
000bff 2e78
000c00 3032
000c01 3025
000c02 7832      	.DB  0x78,0x2E,0x32,0x30,0x25,0x30,0x32,0x78
000c03 cf00
000c04 ecee
000c05 ebe8
000c06 e0ea      	.DB  0x0,0xCF,0xEE,0xEC,0xE8,0xEB,0xEA,0xE0
000c07 f720
000c08 f1e0
000c09 e2fb
000c0a 0021      	.DB  0x20,0xF7,0xE0,0xF1,0xFB,0xE2,0x21,0x0
000c0b 255b
000c0c 7532
000c0d 252e
000c0e 5d75      	.DB  0x5B,0x25,0x32,0x75,0x2E,0x25,0x75,0x5D
000c0f f200
000c10 ece5
000c11 e5ef
000c12 e0f0      	.DB  0x0,0xF2,0xE5,0xEC,0xEF,0xE5,0xF0,0xE0
000c13 f3f2
000c14 e0f0
000c15 2a00
000c16 2e2a      	.DB  0xF2,0xF3,0xF0,0xE0,0x0,0x2A,0x2A,0x2E
000c17 002a
000c18 3225
000c19 2e75
000c1a 7525      	.DB  0x2A,0x0,0x25,0x32,0x75,0x2E,0x25,0x75
000c1b 5b00
000c1c 3325
000c1d 2575
000c1e 5d25      	.DB  0x0,0x5B,0x25,0x33,0x75,0x25,0x25,0x5D
000c1f e200
000c20 ebee
000c21 e3ee
000c22 f1fb      	.DB  0x0,0xE2,0xEE,0xEB,0xEE,0xE3,0xFB,0xF1
000c23 fcf2
000c24 2a00
000c25 2a2a
000c26 2525      	.DB  0xF2,0xFC,0x0,0x2A,0x2A,0x2A,0x25,0x25
000c27 2500
000c28 7533
000c29 2525
000c2a 0020      	.DB  0x0,0x25,0x33,0x75,0x25,0x25,0x20,0x0
000c2b 4f43
000c2c 2032
000c2d eeef
000c2e e8ec      	.DB  0x43,0x4F,0x32,0x20,0xEF,0xEE,0xEC,0xE8
000c2f eaeb
000c30 20e0
000c31 eeec
000c32 f3e4      	.DB  0xEB,0xEA,0xE0,0x20,0xEC,0xEE,0xE4,0xF3
000c33 ffeb
000c34 0021
000c35 4f43
000c36 2032      	.DB  0xEB,0xFF,0x21,0x0,0x43,0x4F,0x32,0x20
000c37 2020
000c38 3425
000c39 0075
000c3a 7070      	.DB  0x20,0x20,0x25,0x34,0x75,0x0,0x70,0x70
000c3b 006d
000c3c 4f43
000c3d 2032
000c3e eeec      	.DB  0x6D,0x0,0x43,0x4F,0x32,0x20,0xEC,0xEE
000c3f f3e4
000c40 fceb
000c41 e220
000c42 e4fb      	.DB  0xE4,0xF3,0xEB,0xFC,0x20,0xE2,0xFB,0xE4
000c43 f3f1
000c44 edf2
000c45 e9fb
000c46 002e      	.DB  0xF1,0xF3,0xF2,0xED,0xFB,0xE9,0x2E,0x0
000c47 cdf0
000c48 ef20
000c49 ecee
000c4a ebe8      	.DB  0xF0,0xCD,0x20,0xEF,0xEE,0xEC,0xE8,0xEB
000c4b e0ea
000c4c ec20
000c4d e4ee
000c4e ebf3      	.DB  0xEA,0xE0,0x20,0xEC,0xEE,0xE4,0xF3,0xEB
000c4f 21ff
000c50 f000
000c51 20cd
000c52 2020      	.DB  0xFF,0x21,0x0,0xF0,0xCD,0x20,0x20,0x20
000c53 3225
000c54 2e75
000c55 7525
000c56 ee00      	.DB  0x25,0x32,0x75,0x2E,0x25,0x75,0x0,0xEE
000c57 e8e4
000c58 e8ed
000c59 fcf6
000c5a f000      	.DB  0xE4,0xE8,0xED,0xE8,0xF6,0xFC,0x0,0xF0
000c5b 20cd
000c5c ec20
000c5d e4ee
000c5e ebf3      	.DB  0xCD,0x20,0x20,0xEC,0xEE,0xE4,0xF3,0xEB
000c5f 20fc
000c60 fbe2
000c61 f1e4
000c62 f2f3      	.DB  0xFC,0x20,0xE2,0xFB,0xE4,0xF1,0xF3,0xF2
000c63 fbed
000c64 2ee9
000c65 d100
000c66 c0d2      	.DB  0xED,0xFB,0xE9,0x2E,0x0,0xD1,0xD2,0xC0
000c67 20cd
000c68 d0c3
000c69 cdd3
000c6a d3d2      	.DB  0xCD,0x20,0xC3,0xD0,0xD3,0xCD,0xD2,0xD3
000c6b e400
000c6c f2e0
000c6d e8f7
000c6e 20ea      	.DB  0x0,0xE4,0xE0,0xF2,0xF7,0xE8,0xEA,0x20
000c6f 7525
000c70 d100
000c71 c0d2
000c72 20cd      	.DB  0x25,0x75,0x0,0xD1,0xD2,0xC0,0xCD,0x20
000c73 cfd3
000c74 c0d0
000c75 cbc2
000c76 cddb      	.DB  0xD3,0xCF,0xD0,0xC0,0xC2,0xCB,0xDB,0xCD
000c77 dfcd
000c78 d000
000c79 cbc5
000c7a 20c5      	.DB  0xCD,0xDF,0x0,0xD0,0xC5,0xCB,0xC5,0x20
000c7b 4e20
000c7c 7525
000c7d 203a
000c7e c000      	.DB  0x20,0x4E,0x25,0x75,0x3A,0x20,0x0,0xC0
000c7f d2c2
000c80 4f00
000c81 204e
000c82 4f00      	.DB  0xC2,0xD2,0x0,0x4F,0x4E,0x20,0x0,0x4F
000c83 4646
000c84 c200
000c85 d5c8
000c86 c4db      	.DB  0x46,0x46,0x0,0xC2,0xC8,0xD5,0xDB,0xC4
000c87 4e20
000c88 7525
000c89 203a
000c8a d000      	.DB  0x20,0x4E,0x25,0x75,0x3A,0x20,0x0,0xD0
000c8b d7d3
000c8c 2000
000c8d 3325
000c8e 2575      	.DB  0xD3,0xD7,0x0,0x20,0x25,0x33,0x75,0x25
000c8f 2025
000c90 7700
000c91 7777
000c92 672e      	.DB  0x25,0x20,0x0,0x77,0x77,0x77,0x2E,0x67
000c93 6172
000c94 6976
000c95 6f74
000c96 2e6e      	.DB  0x72,0x61,0x76,0x69,0x74,0x6F,0x6E,0x2E
000c97 6f63
000c98 2e6d
000c99 6175
000c9a d000      	.DB  0x63,0x6F,0x6D,0x2E,0x75,0x61,0x0,0xD0
000c9b e7ee
000c9c ecf3
000c9d e0ed
000c9e f200      	.DB  0xEE,0xE7,0xF3,0xEC,0xED,0xE0,0x0,0xF2
000c9f efe5
000ca0 e8eb
000ca1 fff6
000ca2 c400      	.DB  0xE5,0xEF,0xEB,0xE8,0xF6,0xFF,0x0,0xC4
000ca3 f2e0
000ca4 e8f7
000ca5 fbea
000ca6 20e2      	.DB  0xE0,0xF2,0xF7,0xE8,0xEA,0xFB,0xE2,0x20
000ca7 e5f2
000ca8 efec
000ca9 f0e5
000caa f2e0      	.DB  0xF2,0xE5,0xEC,0xEF,0xE5,0xF0,0xE0,0xF2
000cab f0f3
000cac 20e8
000cad 7525
000cae c400      	.DB  0xF3,0xF0,0xE8,0x20,0x25,0x75,0x0,0xC4
000caf f2e0
000cb0 e8f7
000cb1 20ea
000cb2 eee2      	.DB  0xE0,0xF2,0xF7,0xE8,0xEA,0x20,0xE2,0xEE
000cb3 eeeb
000cb4 eee3
000cb5 f2f1
000cb6 20fb      	.DB  0xEB,0xEE,0xE3,0xEE,0xF1,0xF2,0xFB,0x20
000cb7 7525
E:\!PROJECTS\C++\2023\GreenhouseNewFont\Debug\List\Greenhouse.asm(1959): warning: .cseg .db misalignment - padding zero byte
000cb8 0000      	.DB  0x25,0x75,0x0
                 _0x2020003:
E:\!PROJECTS\C++\2023\GreenhouseNewFont\Debug\List\Greenhouse.asm(1961): warning: .cseg .db misalignment - padding zero byte
000cb9 0007      	.DB  0x7
                 _0x2060060:
E:\!PROJECTS\C++\2023\GreenhouseNewFont\Debug\List\Greenhouse.asm(1963): warning: .cseg .db misalignment - padding zero byte
000cba 0001      	.DB  0x1
                 _0x2060000:
000cbb 4e2d
000cbc 4e41
000cbd 4900
000cbe 464e      	.DB  0x2D,0x4E,0x41,0x4E,0x0,0x49,0x4E,0x46
E:\!PROJECTS\C++\2023\GreenhouseNewFont\Debug\List\Greenhouse.asm(1966): warning: .cseg .db misalignment - padding zero byte
000cbf 0000      	.DB  0x0
                 
                 __GLOBAL_INI_TBL:
000cc0 0002      	.DW  0x02
000cc1 0002      	.DW  0x02
000cc2 16c2      	.DW  __REG_BIT_VARS*2
                 
000cc3 0004      	.DW  0x04
000cc4 03bc      	.DW  _alarm
000cc5 16c4      	.DW  _0x3*2
                 
000cc6 0002      	.DW  0x02
000cc7 03c4      	.DW  _fillScreen
000cc8 16c8      	.DW  _0x4*2
                 
000cc9 0002      	.DW  0x02
000cca 03c6      	.DW  _pvT
000ccb 16ca      	.DW  _0x5*2
                 
000ccc 0002      	.DW  0x02
000ccd 03ca      	.DW  _pvRH
000cce 16cc      	.DW  _0x6*2
                 
000ccf 0004      	.DW  0x04
000cd0 03f4      	.DW  _analog
000cd1 16fa      	.DW  _0xC*2
                 
000cd2 0004      	.DW  0x04
000cd3 03f8      	.DW  _relay
000cd4 16fe      	.DW  _0xD*2
                 
000cd5 0004      	.DW  0x04
000cd6 0363      	.DW  _Font_11x18
000cd7 1702      	.DW  _0xE*2
                 
000cd8 0002      	.DW  0x02
000cd9 0260      	.DW  _0xB4
000cda 17b9      	.DW  _0x0*2+179
                 
000cdb 0002      	.DW  0x02
000cdc 0262      	.DW  _0xB4+2
000cdd 17bb      	.DW  _0x0*2+181
                 
000cde 0011      	.DW  0x11
000cdf 0264      	.DW  _0x1DF
000ce0 17bd      	.DW  _0x0*2+183
                 
000ce1 0011      	.DW  0x11
000ce2 0275      	.DW  _0x1DF+17
000ce3 17bd      	.DW  _0x0*2+183
                 
000ce4 0011      	.DW  0x11
000ce5 0286      	.DW  _0x1DF+34
000ce6 17bd      	.DW  _0x0*2+183
                 
000ce7 000c      	.DW  0x0C
000ce8 0297      	.DW  _0x229
000ce9 181f      	.DW  _0x0*2+281
                 
000cea 000a      	.DW  0x0A
000ceb 02a3      	.DW  _0x229+12
000cec 183f      	.DW  _0x0*2+313
                 
000ced 0014      	.DW  0x14
000cee 02ad      	.DW  _0x229+22
000cef 1856      	.DW  _0x0*2+336
                 
000cf0 0004      	.DW  0x04
000cf1 02c1      	.DW  _0x229+42
000cf2 1874      	.DW  _0x0*2+366
                 
000cf3 0016      	.DW  0x16
000cf4 02c5      	.DW  _0x229+46
000cf5 1878      	.DW  _0x0*2+370
                 
000cf6 0013      	.DW  0x13
000cf7 02db      	.DW  _0x229+68
000cf8 188e      	.DW  _0x0*2+392
                 
000cf9 0008      	.DW  0x08
000cfa 02ee      	.DW  _0x229+87
000cfb 18ad      	.DW  _0x0*2+423
                 
000cfc 0016      	.DW  0x16
000cfd 02f6      	.DW  _0x229+95
000cfe 18b5      	.DW  _0x0*2+431
                 
000cff 000c      	.DW  0x0C
000d00 030c      	.DW  _0x246
000d01 18cb      	.DW  _0x0*2+453
                 
000d02 0010      	.DW  0x10
000d03 0318      	.DW  _0x24E
000d04 18e1      	.DW  _0x0*2+475
                 
000d05 0004      	.DW  0x04
000d06 0328      	.DW  _0x24E+16
000d07 18fd      	.DW  _0x0*2+503
                 
000d08 0004      	.DW  0x04
000d09 032c      	.DW  _0x24E+20
000d0a 1901      	.DW  _0x0*2+507
                 
000d0b 0004      	.DW  0x04
000d0c 0330      	.DW  _0x24E+24
000d0d 1905      	.DW  _0x0*2+511
                 
000d0e 0004      	.DW  0x04
000d0f 0334      	.DW  _0x24E+28
000d10 18fd      	.DW  _0x0*2+503
                 
000d11 0004      	.DW  0x04
000d12 0338      	.DW  _0x24E+32
000d13 1915      	.DW  _0x0*2+527
                 
000d14 0014      	.DW  0x14
000d15 033c      	.DW  _0x26A
000d16 1921      	.DW  _0x0*2+539
                 
000d17 0008      	.DW  0x08
000d18 0350      	.DW  _0x26A+20
000d19 1935      	.DW  _0x0*2+559
                 
000d1a 0008      	.DW  0x08
000d1b 0358      	.DW  _0x26A+28
000d1c 193d      	.DW  _0x0*2+567
                 
000d1d 0001      	.DW  0x01
000d1e 0362      	.DW  _twi_result
000d1f 1972      	.DW  _0x2020003*2
                 
000d20 0001      	.DW  0x01
000d21 0469      	.DW  __seed_G103
000d22 1974      	.DW  _0x2060060*2
                 
                 _0xFFFFFFFF:
000d23 0000      	.DW  0
                 
                 #define __GLOBAL_INI_TBL_PRESENT 1
                 
                 __RESET:
000d24 94f8      	CLI
000d25 27ee      	CLR  R30
000d26 bbec      	OUT  EECR,R30
                 
                 ;INTERRUPT VECTORS ARE PLACED
                 ;AT THE START OF FLASH
000d27 e0f1      	LDI  R31,1
000d28 bffb      	OUT  GICR,R31
000d29 bfeb      	OUT  GICR,R30
000d2a bfe5      	OUT  MCUCR,R30
                 
                 ;CLEAR R2-R14
000d2b e08d      	LDI  R24,(14-2)+1
000d2c e0a2      	LDI  R26,2
000d2d 27bb      	CLR  R27
                 __CLEAR_REG:
000d2e 93ed      	ST   X+,R30
000d2f 958a      	DEC  R24
000d30 f7e9      	BRNE __CLEAR_REG
                 
                 ;CLEAR SRAM
000d31 e080      	LDI  R24,LOW(__CLEAR_SRAM_SIZE)
000d32 e098      	LDI  R25,HIGH(__CLEAR_SRAM_SIZE)
000d33 e6a0      	LDI  R26,__SRAM_START
                 __CLEAR_SRAM:
000d34 93ed      	ST   X+,R30
000d35 9701      	SBIW R24,1
000d36 f7e9      	BRNE __CLEAR_SRAM
                 
                 ;GLOBAL VARIABLES INITIALIZATION
000d37 e8e0      	LDI  R30,LOW(__GLOBAL_INI_TBL*2)
000d38 e1f9      	LDI  R31,HIGH(__GLOBAL_INI_TBL*2)
                 __GLOBAL_INI_NEXT:
000d39 9185      	LPM  R24,Z+
000d3a 9195      	LPM  R25,Z+
000d3b 9700      	SBIW R24,0
000d3c f061      	BREQ __GLOBAL_INI_END
000d3d 91a5      	LPM  R26,Z+
000d3e 91b5      	LPM  R27,Z+
000d3f 9005      	LPM  R0,Z+
000d40 9015      	LPM  R1,Z+
000d41 01bf      	MOVW R22,R30
000d42 01f0      	MOVW R30,R0
                 __GLOBAL_INI_LOOP:
000d43 9005      	LPM  R0,Z+
000d44 920d      	ST   X+,R0
000d45 9701      	SBIW R24,1
000d46 f7e1      	BRNE __GLOBAL_INI_LOOP
000d47 01fb      	MOVW R30,R22
000d48 cff0      	RJMP __GLOBAL_INI_NEXT
                 __GLOBAL_INI_END:
                 
                 ;HARDWARE STACK POINTER INITIALIZATION
000d49 e5ef      	LDI  R30,LOW(__SRAM_END-__HEAP_SIZE)
000d4a bfed      	OUT  SPL,R30
000d4b e0e8      	LDI  R30,HIGH(__SRAM_END-__HEAP_SIZE)
000d4c bfee      	OUT  SPH,R30
                 
                 ;DATA STACK POINTER INITIALIZATION
000d4d e6c0      	LDI  R28,LOW(__SRAM_START+__DSTACK_SIZE)
000d4e e0d2      	LDI  R29,HIGH(__SRAM_START+__DSTACK_SIZE)
                 
000d4f 940c 1d77 	JMP  _main
                 
                 	.ESEG
                 	.ORG 0
                 
                 	.DSEG
                 	.ORG 0x260
                 
                 	.CSEG
                 ;/*******************************************************
                 ;Project : Greenhouse
                 ;Version : 0.0
                 ;Date    : 07.10.2022
                 ;Chip type               : ATmega32
                 ;Program type            : Application
                 ;Clock frequency     : 16 MHz
                 ;Programm size       : 11358 words (22716 bytes), 69,3% of FLASH 11.09.2022
                 ;*******************************************************/
                 ;
                 ;#include <mega32.h>
                 	#ifndef __SLEEP_DEFINED__
                 	#define __SLEEP_DEFINED__
                 	.EQU __se_bit=0x80
                 	.EQU __sm_mask=0x70
                 	.EQU __sm_powerdown=0x20
                 	.EQU __sm_powersave=0x30
                 	.EQU __sm_standby=0x60
                 	.EQU __sm_ext_standby=0x70
                 	.EQU __sm_adc_noise_red=0x10
                 	.SET power_ctrl_reg=mcucr
                 	#endif
                 ;#include <stdio.h>
                 ;#include <twi.h>
                 ;#include <delay.h>
                 ;#include <stdio.h>
                 ;#include <math.h>
                 ;#include <stdlib.h>
                 ;#include <string.h>
                 ;#include <1wire.h>
                 ;#include "fontsN.h"
                 ;#include "tft.h"
                 ;#include "9341.h"
                 ;
                 ;#define CONECT          PINB.3    //  bluetooth    +3,3
                 ;#define MAX_DEVICES     3
                 ;#define MAX_MENU        5
                 ;#define MAX_SET         4
                 ;#define MAX_DATE        5
                 ;
                 ;#define ON              1
                 ;#define OFF             0
                 ;#define UNCHANGED       2
                 ;#define MISTAKE         3
                 ;
                 ;#define SBLK		    0x91      //   
                 ;#define BSTR		    0x81      //   
                 ;#define EBLK            0xF1      //   
                 ;#define DS3231          0xD0      //  
                 ;
                 ;#define TWI_CLK_RATE    100000    // TWI clock rate [bps]
                 ;#define EEPROM_TWI_BUS_ADDRESS (0xA0 >> 1)// 7 bit TWI bus slave address of the AT24C16B 2kbyte EEPROM
                 ;#define ADC_VREF_TYPE   0x40
                 ;
                 ;// Declare your global variables here
                 ;unsigned char BeepT, displ_num, newButton, newSetButt, ds18b20, pointY, DHTexist, signchar, intval, frcval, error;
                 ;signed char numMenu, numSet/*, displCO2, timerCO2*/;
                 ;unsigned char relOut[4]={0}, analogOut[4], buff[40], familycode[MAX_DEVICES][9], clock_buffer[7], alarm[4]={2,2,2,2};
                 
                 	.DSEG
                 ;unsigned int  max_X, max_Y, fillScreen = BLACK;
                 ;signed int pvT=1990, offsetT, pvRH=1990, offsetRH, pvCO2, pvPH, newval[MAX_DATE];
                 ;unsigned char *ptr_char;
                 ;const char* setMenu[MAX_MENU]={"","","","","  "};
                 ;const char* setName0[MAX_SET]={"",".",".",""};
                 ;const char* setName1[MAX_SET]={"","", ".",""};
                 ;const char* setName2[MAX_SET]={" "," "," ",""};
                 ;const char* setName3[MAX_DATE]={"","","","",""};
                 ;//--------------- union declaration -----------------------------------------------
                 ;union {signed int point[MAX_DEVICES]; unsigned char buff[];} t; //   
                 ;union {unsigned char buffer[8]; unsigned int pvT;} ds;          //   DS18B20
                 ;union {unsigned char buffer[4]; unsigned int val[2];} in;
                 ;union {unsigned char buffer[4]; unsigned int val[2];} out;
                 ;//---------------------------------------------------------------------------------
                 ;signed char analog[4]={-1,30,90,-1};
                 ;signed char relay[4]={2,2,2,2};
                 ;float Told1[5], Told2[5];
                 ;
                 ;//-------------------------
                 ;eeprom signed int set[5][4]={
                 ;                     {270,10, 5, 0},  // Tset; dTalarm; hysteresis;  mode=0 ->  / mode=1 -> ;
                 ;                     { 55, 5, 5, 0},  // RHset; dRHalarm; hysteresis;  mode=0 ->  / mode=1 -> ;
                 ;                     {250, 8, 4, 0},  // Tset; dTalarm; hysteresis;  mode=0 ->  / mode=1 -> ;
                 ;                     {  5,10, 1, 0},  // tmOn; tmOff; dimension=0 ->  / direction=1 -> ; dimension=0 ->  ...
                 ;                     {  0, 0, 0, 0}}; //   T;   ;   = 0 -> DHT21; Other = 1 -> ...
                 ;
                 ;bit Sec;
                 ;bit Clock_Ok;
                 ;bit Dht;
                 ;bit Soil;
                 ;bit pHsensor;
                 ;bit typeS;
                 ;bit CO2module;          //   2
                 ;bit CheckCO2;           //     2
                 ;
                 ;//- prototypes ------
                 ;char newButtonCheck(void);
                 ;
                 ;#include "fontsN.c"
                 ;
                 ;flash uint16_t Font11x18 [] = {
                 ;0x0000, 0x0000, 0x0000, 0x0000, 0x0000, 0x0000, 0x0000, 0x0000, 0x0000, 0x0000, 0x0000, 0x0000, 0x0000, 0x0000, 0x0000,  ...
                 ;0x0000, 0x0C00, 0x0C00, 0x0C00, 0x0C00, 0x0C00, 0x0C00, 0x0C00, 0x0C00, 0x0C00, 0x0C00, 0x0C00, 0x0000, 0x0C00, 0x0C00,  ...
                 ;0x0000, 0x1B00, 0x1B00, 0x1B00, 0x1B00, 0x1B00, 0x0000, 0x0000, 0x0000, 0x0000, 0x0000, 0x0000, 0x0000, 0x0000, 0x0000,  ...
                 ;0x0000, 0x1980, 0x1980, 0x1980, 0x1980, 0x7FC0, 0x7FC0, 0x1980, 0x3300, 0x7FC0, 0x7FC0, 0x3300, 0x3300, 0x3300, 0x3300,  ...
                 ;0x0000, 0x1E00, 0x3F00, 0x7580, 0x6580, 0x7400, 0x3C00, 0x1E00, 0x0700, 0x0580, 0x6580, 0x6580, 0x7580, 0x3F00, 0x1E00,  ...
                 ;0x0000, 0x7000, 0xD800, 0xD840, 0xD8C0, 0xD980, 0x7300, 0x0600, 0x0C00, 0x1B80, 0x36C0, 0x66C0, 0x46C0, 0x06C0, 0x0380,  ...
                 ;0x0000, 0x1E00, 0x3F00, 0x3300, 0x3300, 0x3300, 0x1E00, 0x0C00, 0x3CC0, 0x66C0, 0x6380, 0x6180, 0x6380, 0x3EC0, 0x1C80,  ...
                 ;0x0000, 0x0C00, 0x0C00, 0x0C00, 0x0C00, 0x0C00, 0x0000, 0x0000, 0x0000, 0x0000, 0x0000, 0x0000, 0x0000, 0x0000, 0x0000,  ...
                 ;0x0080, 0x0100, 0x0300, 0x0600, 0x0600, 0x0400, 0x0C00, 0x0C00, 0x0C00, 0x0C00, 0x0C00, 0x0C00, 0x0400, 0x0600, 0x0600,  ...
                 ;0x2000, 0x1000, 0x1800, 0x0C00, 0x0C00, 0x0400, 0x0600, 0x0600, 0x0600, 0x0600, 0x0600, 0x0600, 0x0400, 0x0C00, 0x0C00,  ...
                 ;0x0000, 0x0C00, 0x2D00, 0x3F00, 0x1E00, 0x3300, 0x0000, 0x0000, 0x0000, 0x0000, 0x0000, 0x0000, 0x0000, 0x0000, 0x0000,  ...
                 ;0x0000, 0x0000, 0x0000, 0x0C00, 0x0C00, 0x0C00, 0x0C00, 0xFFC0, 0xFFC0, 0x0C00, 0x0C00, 0x0C00, 0x0C00, 0x0000, 0x0000,  ...
                 ;0x0000, 0x0000, 0x0000, 0x0000, 0x0000, 0x0000, 0x0000, 0x0000, 0x0000, 0x0000, 0x0000, 0x0000, 0x0000, 0x0C00, 0x0C00,  ...
                 ;0x0000, 0x0000, 0x0000, 0x0000, 0x0000, 0x0000, 0x0000, 0x0000, 0x0000, 0x1E00, 0x1E00, 0x0000, 0x0000, 0x0000, 0x0000,  ...
                 ;0x0000, 0x0000, 0x0000, 0x0000, 0x0000, 0x0000, 0x0000, 0x0000, 0x0000, 0x0000, 0x0000, 0x0000, 0x0000, 0x0C00, 0x0C00,  ...
                 ;0x0000, 0x0300, 0x0300, 0x0300, 0x0600, 0x0600, 0x0600, 0x0600, 0x0C00, 0x0C00, 0x0C00, 0x0C00, 0x1800, 0x1800, 0x1800,  ...
                 ;0x0000, 0x1E00, 0x3F00, 0x3300, 0x6180, 0x6180, 0x6180, 0x6D80, 0x6D80, 0x6180, 0x6180, 0x6180, 0x3300, 0x3F00, 0x1E00,  ...
                 ;0x0000, 0x0600, 0x0E00, 0x1E00, 0x3600, 0x2600, 0x0600, 0x0600, 0x0600, 0x0600, 0x0600, 0x0600, 0x0600, 0x0600, 0x0600,  ...
                 ;0x0000, 0x1E00, 0x3F00, 0x7380, 0x6180, 0x6180, 0x0180, 0x0300, 0x0600, 0x0C00, 0x1800, 0x3000, 0x6000, 0x7F80, 0x7F80,  ...
                 ;0x0000, 0x1C00, 0x3E00, 0x6300, 0x6300, 0x0300, 0x0E00, 0x0E00, 0x0300, 0x0180, 0x0180, 0x6180, 0x7380, 0x3F00, 0x1E00,  ...
                 ;0x0000, 0x0600, 0x0E00, 0x0E00, 0x1E00, 0x1E00, 0x1600, 0x3600, 0x3600, 0x6600, 0x7F80, 0x7F80, 0x0600, 0x0600, 0x0600,  ...
                 ;0x0000, 0x7F00, 0x7F00, 0x6000, 0x6000, 0x6000, 0x6E00, 0x7F00, 0x6380, 0x0180, 0x0180, 0x6180, 0x7380, 0x3F00, 0x1E00,  ...
                 ;0x0000, 0x1E00, 0x3F00, 0x3380, 0x6180, 0x6000, 0x6E00, 0x7F00, 0x7380, 0x6180, 0x6180, 0x6180, 0x3380, 0x3F00, 0x1E00,  ...
                 ;0x0000, 0x7F80, 0x7F80, 0x0180, 0x0300, 0x0300, 0x0600, 0x0600, 0x0C00, 0x0C00, 0x0C00, 0x0800, 0x1800, 0x1800, 0x1800,  ...
                 ;0x0000, 0x1E00, 0x3F00, 0x6380, 0x6180, 0x6180, 0x2100, 0x1E00, 0x3F00, 0x6180, 0x6180, 0x6180, 0x6180, 0x3F00, 0x1E00,  ...
                 ;0x0000, 0x1E00, 0x3F00, 0x7300, 0x6180, 0x6180, 0x6180, 0x7380, 0x3F80, 0x1D80, 0x0180, 0x6180, 0x7300, 0x3F00, 0x1E00,  ...
                 ;0x0000, 0x0000, 0x0000, 0x0000, 0x0000, 0x0C00, 0x0C00, 0x0000, 0x0000, 0x0000, 0x0000, 0x0000, 0x0000, 0x0C00, 0x0C00,  ...
                 ;0x0000, 0x0000, 0x0000, 0x0000, 0x0000, 0x0000, 0x0C00, 0x0C00, 0x0000, 0x0000, 0x0000, 0x0000, 0x0000, 0x0C00, 0x0C00,  ...
                 ;0x0000, 0x0000, 0x0000, 0x0000, 0x0080, 0x0380, 0x0E00, 0x3800, 0x6000, 0x3800, 0x0E00, 0x0380, 0x0080, 0x0000, 0x0000,  ...
                 ;0x0000, 0x0000, 0x0000, 0x0000, 0x0000, 0x7F80, 0x7F80, 0x0000, 0x0000, 0x7F80, 0x7F80, 0x0000, 0x0000, 0x0000, 0x0000,  ...
                 ;0x0000, 0x0000, 0x0000, 0x0000, 0x4000, 0x7000, 0x1C00, 0x0700, 0x0180, 0x0700, 0x1C00, 0x7000, 0x4000, 0x0000, 0x0000,  ...
                 ;0x0000, 0x1F00, 0x3F80, 0x71C0, 0x60C0, 0x00C0, 0x01C0, 0x0380, 0x0700, 0x0E00, 0x0C00, 0x0C00, 0x0000, 0x0C00, 0x0C00,  ...
                 ;0x0000, 0x1E00, 0x3F00, 0x3180, 0x7180, 0x6380, 0x6F80, 0x6D80, 0x6D80, 0x6F80, 0x6780, 0x6000, 0x3200, 0x3E00, 0x1C00,  ...
                 ;0x0000, 0x0E00, 0x0E00, 0x1B00, 0x1B00, 0x1B00, 0x1B00, 0x3180, 0x3180, 0x3F80, 0x3F80, 0x3180, 0x60C0, 0x60C0, 0x60C0,  ...
                 ;0x0000, 0x7C00, 0x7E00, 0x6300, 0x6300, 0x6300, 0x6300, 0x7E00, 0x7E00, 0x6300, 0x6180, 0x6180, 0x6380, 0x7F00, 0x7E00,  ...
                 ;0x0000, 0x1E00, 0x3F00, 0x3180, 0x6180, 0x6000, 0x6000, 0x6000, 0x6000, 0x6000, 0x6000, 0x6180, 0x3180, 0x3F00, 0x1E00,  ...
                 ;0x0000, 0x7C00, 0x7F00, 0x6300, 0x6380, 0x6180, 0x6180, 0x6180, 0x6180, 0x6180, 0x6180, 0x6300, 0x6300, 0x7E00, 0x7C00,  ...
                 ;0x0000, 0x7F80, 0x7F80, 0x6000, 0x6000, 0x6000, 0x6000, 0x7F00, 0x7F00, 0x6000, 0x6000, 0x6000, 0x6000, 0x7F80, 0x7F80,  ...
                 ;0x0000, 0x7F80, 0x7F80, 0x6000, 0x6000, 0x6000, 0x6000, 0x7F00, 0x7F00, 0x6000, 0x6000, 0x6000, 0x6000, 0x6000, 0x6000,  ...
                 ;0x0000, 0x1E00, 0x3F00, 0x3180, 0x6180, 0x6000, 0x6000, 0x6000, 0x6380, 0x6380, 0x6180, 0x6180, 0x3180, 0x3F80, 0x1E00,  ...
                 ;0x0000, 0x6180, 0x6180, 0x6180, 0x6180, 0x6180, 0x6180, 0x7F80, 0x7F80, 0x6180, 0x6180, 0x6180, 0x6180, 0x6180, 0x6180,  ...
                 ;0x0000, 0x3F00, 0x3F00, 0x0C00, 0x0C00, 0x0C00, 0x0C00, 0x0C00, 0x0C00, 0x0C00, 0x0C00, 0x0C00, 0x0C00, 0x3F00, 0x3F00,  ...
                 ;0x0000, 0x0180, 0x0180, 0x0180, 0x0180, 0x0180, 0x0180, 0x0180, 0x0180, 0x0180, 0x6180, 0x6180, 0x7380, 0x3F00, 0x1E00,  ...
                 ;0x0000, 0x60C0, 0x6180, 0x6300, 0x6600, 0x6600, 0x6C00, 0x7800, 0x7C00, 0x6600, 0x6600, 0x6300, 0x6180, 0x6180, 0x60C0,  ...
                 ;0x0000, 0x6000, 0x6000, 0x6000, 0x6000, 0x6000, 0x6000, 0x6000, 0x6000, 0x6000, 0x6000, 0x6000, 0x6000, 0x7F80, 0x7F80,  ...
                 ;0x0000, 0x71C0, 0x71C0, 0x7BC0, 0x7AC0, 0x6AC0, 0x6AC0, 0x6EC0, 0x64C0, 0x60C0, 0x60C0, 0x60C0, 0x60C0, 0x60C0, 0x60C0,  ...
                 ;0x0000, 0x7180, 0x7180, 0x7980, 0x7980, 0x7980, 0x6D80, 0x6D80, 0x6D80, 0x6580, 0x6780, 0x6780, 0x6780, 0x6380, 0x6380,  ...
                 ;0x0000, 0x1E00, 0x3F00, 0x3300, 0x6180, 0x6180, 0x6180, 0x6180, 0x6180, 0x6180, 0x6180, 0x6180, 0x3300, 0x3F00, 0x1E00,  ...
                 ;0x0000, 0x7E00, 0x7F00, 0x6380, 0x6180, 0x6180, 0x6180, 0x6380, 0x7F00, 0x7E00, 0x6000, 0x6000, 0x6000, 0x6000, 0x6000,  ...
                 ;0x0000, 0x1E00, 0x3F00, 0x3300, 0x6180, 0x6180, 0x6180, 0x6180, 0x6180, 0x6180, 0x6580, 0x6780, 0x3300, 0x3F80, 0x1E40,  ...
                 ;0x0000, 0x7E00, 0x7F00, 0x6380, 0x6180, 0x6180, 0x6380, 0x7F00, 0x7E00, 0x6600, 0x6300, 0x6300, 0x6180, 0x6180, 0x60C0,  ...
                 ;0x0000, 0x0E00, 0x1F00, 0x3180, 0x3180, 0x3000, 0x3800, 0x1E00, 0x0700, 0x0380, 0x6180, 0x6180, 0x3180, 0x3F00, 0x1E00,  ...
                 ;0x0000, 0xFFC0, 0xFFC0, 0x0C00, 0x0C00, 0x0C00, 0x0C00, 0x0C00, 0x0C00, 0x0C00, 0x0C00, 0x0C00, 0x0C00, 0x0C00, 0x0C00,  ...
                 ;0x0000, 0x6180, 0x6180, 0x6180, 0x6180, 0x6180, 0x6180, 0x6180, 0x6180, 0x6180, 0x6180, 0x6180, 0x7380, 0x3F00, 0x1E00,  ...
                 ;0x0000, 0x60C0, 0x60C0, 0x60C0, 0x3180, 0x3180, 0x3180, 0x1B00, 0x1B00, 0x1B00, 0x1B00, 0x0E00, 0x0E00, 0x0E00, 0x0400,  ...
                 ;0x0000, 0xC0C0, 0xC0C0, 0xC0C0, 0xC0C0, 0xC0C0, 0xCCC0, 0x4C80, 0x4C80, 0x5E80, 0x5280, 0x5280, 0x7380, 0x6180, 0x6180,  ...
                 ;0x0000, 0xC0C0, 0x6080, 0x6180, 0x3300, 0x3B00, 0x1E00, 0x0C00, 0x0C00, 0x1E00, 0x1F00, 0x3B00, 0x7180, 0x6180, 0xC0C0,  ...
                 ;0x0000, 0xC0C0, 0x6180, 0x6180, 0x3300, 0x3300, 0x1E00, 0x1E00, 0x0C00, 0x0C00, 0x0C00, 0x0C00, 0x0C00, 0x0C00, 0x0C00,  ...
                 ;0x0000, 0x3F80, 0x3F80, 0x0180, 0x0300, 0x0300, 0x0600, 0x0C00, 0x0C00, 0x1800, 0x1800, 0x3000, 0x6000, 0x7F80, 0x7F80,  ...
                 ;0x0F00, 0x0F00, 0x0C00, 0x0C00, 0x0C00, 0x0C00, 0x0C00, 0x0C00, 0x0C00, 0x0C00, 0x0C00, 0x0C00, 0x0C00, 0x0C00, 0x0C00,  ...
                 ;0x0000, 0x1800, 0x1800, 0x1800, 0x0C00, 0x0C00, 0x0C00, 0x0C00, 0x0600, 0x0600, 0x0600, 0x0600, 0x0300, 0x0300, 0x0300,  ...
                 ;0x1E00, 0x1E00, 0x0600, 0x0600, 0x0600, 0x0600, 0x0600, 0x0600, 0x0600, 0x0600, 0x0600, 0x0600, 0x0600, 0x0600, 0x0600,  ...
                 ;0x0000, 0x0C00, 0x0C00, 0x1E00, 0x1200, 0x3300, 0x3300, 0x6180, 0x6180, 0x0000, 0x0000, 0x0000, 0x0000, 0x0000, 0x0000,  ...
                 ;0x0000, 0x0000, 0x0000, 0x0000, 0x0000, 0x0000, 0x0000, 0x0000, 0x0000, 0x0000, 0x0000, 0x0000, 0x0000, 0x0000, 0x0000,  ...
                 ;0x0000, 0x3800, 0x1800, 0x0C00, 0x0000, 0x0000, 0x0000, 0x0000, 0x0000, 0x0000, 0x0000, 0x0000, 0x0000, 0x0000, 0x0000,  ...
                 ;0x0000, 0x0000, 0x0000, 0x0000, 0x0000, 0x1F00, 0x3F80, 0x6180, 0x0180, 0x1F80, 0x3F80, 0x6180, 0x6380, 0x7F80, 0x38C0,  ...
                 ;0x0000, 0x6000, 0x6000, 0x6000, 0x6000, 0x6E00, 0x7F00, 0x7380, 0x6180, 0x6180, 0x6180, 0x6180, 0x7380, 0x7F00, 0x6E00,  ...
                 ;0x0000, 0x0000, 0x0000, 0x0000, 0x0000, 0x1E00, 0x3F00, 0x7380, 0x6180, 0x6000, 0x6000, 0x6180, 0x7380, 0x3F00, 0x1E00,  ...
                 ;0x0000, 0x0180, 0x0180, 0x0180, 0x0180, 0x1D80, 0x3F80, 0x7380, 0x6180, 0x6180, 0x6180, 0x6180, 0x7380, 0x3F80, 0x1D80,  ...
                 ;0x0000, 0x0000, 0x0000, 0x0000, 0x0000, 0x1E00, 0x3F00, 0x7300, 0x6180, 0x7F80, 0x7F80, 0x6000, 0x7180, 0x3F00, 0x1E00,  ...
                 ;0x0000, 0x07C0, 0x0FC0, 0x0C00, 0x0C00, 0x7F80, 0x7F80, 0x0C00, 0x0C00, 0x0C00, 0x0C00, 0x0C00, 0x0C00, 0x0C00, 0x0C00,  ...
                 ;0x0000, 0x0000, 0x0000, 0x0000, 0x1D80, 0x3F80, 0x7380, 0x6180, 0x6180, 0x6180, 0x6180, 0x7380, 0x3F80, 0x1D80, 0x0180,  ...
                 ;0x0000, 0x6000, 0x6000, 0x6000, 0x6000, 0x6F00, 0x7F80, 0x7180, 0x6180, 0x6180, 0x6180, 0x6180, 0x6180, 0x6180, 0x6180,  ...
                 ;0x0000, 0x0600, 0x0600, 0x0000, 0x0000, 0x3E00, 0x3E00, 0x0600, 0x0600, 0x0600, 0x0600, 0x0600, 0x0600, 0x0600, 0x0600,  ...
                 ;0x0600, 0x0600, 0x0000, 0x0000, 0x3E00, 0x3E00, 0x0600, 0x0600, 0x0600, 0x0600, 0x0600, 0x0600, 0x0600, 0x0600, 0x0600,  ...
                 ;0x0000, 0x6000, 0x6000, 0x6000, 0x6000, 0x6180, 0x6300, 0x6600, 0x6C00, 0x7C00, 0x7600, 0x6300, 0x6300, 0x6180, 0x60C0,  ...
                 ;0x0000, 0x3E00, 0x3E00, 0x0600, 0x0600, 0x0600, 0x0600, 0x0600, 0x0600, 0x0600, 0x0600, 0x0600, 0x0600, 0x0600, 0x0600,  ...
                 ;0x0000, 0x0000, 0x0000, 0x0000, 0x0000, 0xDD80, 0xFFC0, 0xCEC0, 0xCCC0, 0xCCC0, 0xCCC0, 0xCCC0, 0xCCC0, 0xCCC0, 0xCCC0,  ...
                 ;0x0000, 0x0000, 0x0000, 0x0000, 0x0000, 0x6F00, 0x7F80, 0x7180, 0x6180, 0x6180, 0x6180, 0x6180, 0x6180, 0x6180, 0x6180,  ...
                 ;0x0000, 0x0000, 0x0000, 0x0000, 0x0000, 0x1E00, 0x3F00, 0x7380, 0x6180, 0x6180, 0x6180, 0x6180, 0x7380, 0x3F00, 0x1E00,  ...
                 ;0x0000, 0x0000, 0x0000, 0x0000, 0x6E00, 0x7F00, 0x7380, 0x6180, 0x6180, 0x6180, 0x6180, 0x7380, 0x7F00, 0x6E00, 0x6000,  ...
                 ;0x0000, 0x0000, 0x0000, 0x0000, 0x1D80, 0x3F80, 0x7380, 0x6180, 0x6180, 0x6180, 0x6180, 0x7380, 0x3F80, 0x1D80, 0x0180,  ...
                 ;0x0000, 0x0000, 0x0000, 0x0000, 0x0000, 0x6700, 0x3F80, 0x3900, 0x3000, 0x3000, 0x3000, 0x3000, 0x3000, 0x3000, 0x3000,  ...
                 ;0x0000, 0x0000, 0x0000, 0x0000, 0x0000, 0x1E00, 0x3F80, 0x6180, 0x6000, 0x7F00, 0x3F80, 0x0180, 0x6180, 0x7F00, 0x1E00,  ...
                 ;0x0000, 0x0000, 0x0800, 0x1800, 0x1800, 0x7F00, 0x7F00, 0x1800, 0x1800, 0x1800, 0x1800, 0x1800, 0x1800, 0x1F80, 0x0F80,  ...
                 ;0x0000, 0x0000, 0x0000, 0x0000, 0x0000, 0x6180, 0x6180, 0x6180, 0x6180, 0x6180, 0x6180, 0x6180, 0x6380, 0x7F80, 0x3D80,  ...
                 ;0x0000, 0x0000, 0x0000, 0x0000, 0x0000, 0x60C0, 0x3180, 0x3180, 0x3180, 0x1B00, 0x1B00, 0x1B00, 0x0E00, 0x0E00, 0x0600,  ...
                 ;0x0000, 0x0000, 0x0000, 0x0000, 0x0000, 0xDD80, 0xDD80, 0xDD80, 0x5500, 0x5500, 0x5500, 0x7700, 0x7700, 0x2200, 0x2200,  ...
                 ;0x0000, 0x0000, 0x0000, 0x0000, 0x0000, 0x6180, 0x3300, 0x3300, 0x1E00, 0x0C00, 0x0C00, 0x1E00, 0x3300, 0x3300, 0x6180,  ...
                 ;0x0000, 0x0000, 0x0000, 0x0000, 0x6180, 0x6180, 0x3180, 0x3300, 0x3300, 0x1B00, 0x1B00, 0x1B00, 0x0E00, 0x0E00, 0x0E00,  ...
                 ;0x0000, 0x0000, 0x0000, 0x0000, 0x0000, 0x7FC0, 0x7FC0, 0x0180, 0x0300, 0x0600, 0x0C00, 0x1800, 0x3000, 0x7FC0, 0x7FC0,  ...
                 ;0x0380, 0x0780, 0x0600, 0x0600, 0x0600, 0x0600, 0x0600, 0x0E00, 0x1C00, 0x1C00, 0x0E00, 0x0600, 0x0600, 0x0600, 0x0600,  ...
                 ;0x0600, 0x0600, 0x0600, 0x0600, 0x0600, 0x0600, 0x0600, 0x0600, 0x0600, 0x0600, 0x0600, 0x0600, 0x0600, 0x0600, 0x0600,  ...
                 ;0x3800, 0x3C00, 0x0C00, 0x0C00, 0x0C00, 0x0C00, 0x0C00, 0x0E00, 0x0700, 0x0700, 0x0E00, 0x0C00, 0x0C00, 0x0C00, 0x0C00,  ...
                 ;0x0000, 0x0000, 0x0000, 0x0000, 0x0000, 0x0000, 0x0000, 0x3880, 0x7F80, 0x4700, 0x0000, 0x0000, 0x0000, 0x0000, 0x0000,  ...
                 ;0x0000, 0x0E00, 0x0E00, 0x1B00, 0x1B00, 0x1B00, 0x1B00, 0x3180, 0x3180, 0x3F80, 0x3F80, 0x3180, 0x60C0, 0x60C0, 0x60C0,  ...
                 ;0x0000, 0x7F00, 0x7F00, 0x6000, 0x6000, 0x6000, 0x6000, 0x7E00, 0x7E00, 0x6300, 0x6180, 0x6180, 0x6380, 0x7F00, 0x7C00,  ...
                 ;0x0000, 0x7C00, 0x7E00, 0x6300, 0x6300, 0x6300, 0x6300, 0x7E00, 0x7E00, 0x6300, 0x6180, 0x6180, 0x6380, 0x7F00, 0x7E00,  ...
                 ;0x0000, 0x7F00, 0x7F00, 0x6000, 0x6000, 0x6000, 0x6000, 0x6000, 0x6000, 0x6000, 0x6000, 0x6000, 0x6000, 0x6000, 0x6000,  ...
                 ;0x0000, 0x3F80, 0x3F80, 0x3180, 0x3180, 0x3180, 0x3180, 0x3180, 0x3180, 0x3180, 0x3180, 0x3180, 0x3180, 0xFFE0, 0xFFE0,  ...
                 ;0x0000, 0x7F80, 0x7F80, 0x6000, 0x6000, 0x6000, 0x6000, 0x7F00, 0x7F00, 0x6000, 0x6000, 0x6000, 0x6000, 0x7F80, 0x7F80,  ...
                 ;0x0000, 0xC460, 0x64C0, 0x64C0, 0x3580, 0x3580, 0x1F00, 0x1F00, 0x1F00, 0x1F00, 0x3580, 0x3580, 0x64C0, 0x64C0, 0xC460,  ...
                 ;0x0000, 0x3C00, 0x7E00, 0x0300, 0x0300, 0x0300, 0x0300, 0x7E00, 0x7E00, 0x0300, 0x0180, 0x0180, 0x0380, 0x7F00, 0x3E00,  ...
                 ;0x0000, 0x6180, 0x6180, 0x6180, 0x6180, 0x6380, 0x6780, 0x6F80, 0x7D80, 0x7980, 0x7180, 0x6180, 0x6180, 0x6180, 0x6180,  ...
                 ;0x0C00, 0x6D80, 0x6180, 0x6180, 0x6180, 0x6380, 0x6780, 0x6F80, 0x7D80, 0x7980, 0x7180, 0x6180, 0x6180, 0x6180, 0x6180,  ...
                 ;0x0000, 0x60C0, 0x6180, 0x6300, 0x6600, 0x6600, 0x6C00, 0x7800, 0x7C00, 0x6600, 0x6600, 0x6300, 0x6180, 0x6180, 0x60C0,  ...
                 ;0x0000, 0x3FC0, 0x3FC0, 0x30C0, 0x30C0, 0x30C0, 0x30C0, 0x30C0, 0x30C0, 0x30C0, 0x30C0, 0x30C0, 0x30C0, 0xF0C0, 0xF0C0,  ...
                 ;0x0000, 0x71C0, 0x71C0, 0x7BC0, 0x7AC0, 0x6AC0, 0x6AC0, 0x6EC0, 0x64C0, 0x60C0, 0x60C0, 0x60C0, 0x60C0, 0x60C0, 0x60C0,  ...
                 ;0x0000, 0x6180, 0x6180, 0x6180, 0x6180, 0x6180, 0x6180, 0x7F80, 0x7F80, 0x6180, 0x6180, 0x6180, 0x6180, 0x6180, 0x6180,  ...
                 ;0x0000, 0x1E00, 0x3F00, 0x3300, 0x6180, 0x6180, 0x6180, 0x6180, 0x6180, 0x6180, 0x6180, 0x6180, 0x3300, 0x3F00, 0x1E00,  ...
                 ;0x0000, 0x7FC0, 0x7FC0, 0x60C0, 0x60C0, 0x60C0, 0x60C0, 0x60C0, 0x60C0, 0x60C0, 0x60C0, 0x60C0, 0x60C0, 0x60C0, 0x60C0,  ...
                 ;0x0000, 0x7E00, 0x7F00, 0x6380, 0x6180, 0x6180, 0x6180, 0x6380, 0x7F00, 0x7E00, 0x6000, 0x6000, 0x6000, 0x6000, 0x6000,  ...
                 ;0x0000, 0x1E00, 0x3F00, 0x3180, 0x6180, 0x6000, 0x6000, 0x6000, 0x6000, 0x6000, 0x6000, 0x6180, 0x3180, 0x3F00, 0x1E00,  ...
                 ;0x0000, 0xFFC0, 0xFFC0, 0x0C00, 0x0C00, 0x0C00, 0x0C00, 0x0C00, 0x0C00, 0x0C00, 0x0C00, 0x0C00, 0x0C00, 0x0C00, 0x0C00,  ...
                 ;0x0000, 0xC0C0, 0x6180, 0x6180, 0x3300, 0x3300, 0x1F00, 0x1E00, 0x0E00, 0x0E00, 0x0C00, 0x1C00, 0x3800, 0x7000, 0xE000,  ...
                 ;0x0000, 0x0400, 0x1F00, 0x3580, 0x64C0, 0x64C0, 0xC460, 0xC460, 0x64C0, 0x64C0, 0x3580, 0x1F00, 0x0400, 0x0400, 0x0400,  ...
                 ;0x0000, 0xC0C0, 0x6080, 0x6180, 0x3300, 0x3B00, 0x1E00, 0x0C00, 0x0C00, 0x1E00, 0x1F00, 0x3B00, 0x7180, 0x6180, 0xC0C0,  ...
                 ;0x0000, 0x60C0, 0x60C0, 0x60C0, 0x60C0, 0x60C0, 0x60C0, 0x60C0, 0x60C0, 0x60C0, 0x60C0, 0x60C0, 0x60C0, 0x7FC0, 0x7FC0,  ...
                 ;0x0000, 0x6180, 0x6180, 0x6180, 0x6180, 0x6180, 0x6180, 0x7F80, 0x3F80, 0x0180, 0x0180, 0x0180, 0x0180, 0x01C0, 0x01C0,  ...
                 ;0x0000, 0xCCC0, 0xCCC0, 0xCCC0, 0xCCC0, 0xCCC0, 0xCCC0, 0xCCC0, 0xCCC0, 0xCCC0, 0xCCC0, 0xCCC0, 0xCCC0, 0xFFC0, 0xFFC0,  ...
                 ;0x0000, 0xCCC0, 0xCCC0, 0xCCC0, 0xCCC0, 0xCCC0, 0xCCC0, 0xCCC0, 0xCCC0, 0xCCC0, 0xCCC0, 0xCCC0, 0xCCC0, 0xFFC0, 0xFFC0,  ...
                 ;0x0000, 0x3F00, 0x3F00, 0x0C00, 0x0C00, 0x0C00, 0x0C00, 0x0C00, 0x0C00, 0x0C00, 0x0C00, 0x0C00, 0x0C00, 0x3F00, 0x3F00,  ...
                 ;0x0000, 0x3F00, 0x3F00, 0x0C00, 0x0C00, 0x0C00, 0x0C00, 0x0C00, 0x0C00, 0x0C00, 0x0C00, 0x0C00, 0x0C00, 0x3F00, 0x3F00,  ...
                 ;0x0000, 0x3000, 0x3000, 0x3000, 0x3000, 0x3C00, 0x3F00, 0x3300, 0x3180, 0x30C0, 0x30C0, 0x31C0, 0x3380, 0x3F00, 0x3E00,  ...
                 ;0x0000, 0x7800, 0x1E00, 0x0700, 0x0380, 0x0180, 0x0180, 0x7F80, 0x7F80, 0x0180, 0x0180, 0x0380, 0x0700, 0x1E00, 0x7800,  ...
                 ;0x0000, 0xC700, 0xCD80, 0xCD80, 0xD8C0, 0xD8C0, 0xF0C0, 0xF0C0, 0xF0C0, 0xD8C0, 0xD8C0, 0xCCC0, 0xCD80, 0xCD80, 0xC700,  ...
                 ;0x0000, 0x1F80, 0x7F80, 0x6180, 0xC180, 0xC180, 0xC180, 0x6180, 0x7F80, 0x1F80, 0x0F80, 0x1980, 0x3180, 0x6180, 0xC180,  ...
                 ;0x0000, 0x0000, 0x0000, 0x0000, 0x0000, 0x1F00, 0x3F80, 0x6180, 0x0180, 0x1F80, 0x3F80, 0x6180, 0x6380, 0x7F80, 0x38C0,  ...
                 ;0x0000, 0x0000, 0x0000, 0x0000, 0x0100, 0x3F00, 0x7F00, 0x6000, 0x7E00, 0x7F00, 0x6180, 0x6180, 0x6180, 0x7F00, 0x3E00,  ...
                 ;0x0000, 0x0000, 0x0000, 0x0000, 0x0000, 0x3E00, 0x7F00, 0x6100, 0x7E00, 0x7F00, 0x6180, 0x6180, 0x6180, 0x7F00, 0x3E00,  ...
                 ;0x0000, 0x0000, 0x0000, 0x0000, 0x0000, 0x7F00, 0x7F00, 0x6000, 0x6000, 0x6000, 0x6000, 0x6000, 0x6000, 0x6000, 0x6000,  ...
                 ;0x0000, 0x0000, 0x0000, 0x0000, 0x0000, 0x7F80, 0x7F80, 0x6180, 0x6180, 0x6180, 0x6180, 0x6180, 0x6180, 0x6180, 0xFFC0,  ...
                 ;0x0000, 0x0000, 0x0000, 0x0000, 0x0000, 0x1E00, 0x3F00, 0x7300, 0x6180, 0x7F80, 0x7F80, 0x6000, 0x7180, 0x3F00, 0x1E00,  ...
                 ;0x0000, 0x0000, 0x0000, 0x0000, 0x0000, 0xC460, 0x64C0, 0x3580, 0x1F00, 0x0E00, 0x1F00, 0x3580, 0x64C0, 0xC460, 0x8420,  ...
                 ;0x0000, 0x0000, 0x0000, 0x0000, 0x0000, 0x3E00, 0x3F00, 0x0100, 0x3E00, 0x3F00, 0x0180, 0x0180, 0x0180, 0x3F00, 0x3E00,  ...
                 ;0x0000, 0x0000, 0x0000, 0x0000, 0x0000, 0x6180, 0x6180, 0x6180, 0x6380, 0x6780, 0x6D80, 0x7980, 0x7180, 0x6180, 0x6180,  ...
                 ;0x0000, 0x0000, 0x0000, 0x0C00, 0x0C00, 0x6180, 0x6180, 0x6180, 0x6380, 0x6780, 0x6D80, 0x7980, 0x7180, 0x6180, 0x6180,  ...
                 ;0x0000, 0x0000, 0x0000, 0x0000, 0x0000, 0x6180, 0x6300, 0x6600, 0x6C00, 0x7C00, 0x7600, 0x6300, 0x6300, 0x6180, 0x60C0,  ...
                 ;0x0000, 0x0000, 0x0000, 0x0000, 0x0000, 0x3F80, 0x3F80, 0x3180, 0x3180, 0x3180, 0x3180, 0x3180, 0x3180, 0xF180, 0xF180,  ...
                 ;0x0000, 0x0000, 0x0000, 0x0000, 0x0000, 0xC060, 0xE0E0, 0xF1E0, 0xDB60, 0xCE60, 0xC460, 0xC460, 0xC060, 0xC060, 0xC060,  ...
                 ;0x0000, 0x0000, 0x0000, 0x0000, 0x0000, 0x6180, 0x6180, 0x6180, 0x6180, 0x7F80, 0x7F80, 0x6180, 0x6180, 0x6180, 0x6180,  ...
                 ;0x0000, 0x0000, 0x0000, 0x0000, 0x0000, 0x1E00, 0x3F00, 0x7380, 0x6180, 0x6180, 0x6180, 0x6180, 0x7380, 0x3F00, 0x1E00,  ...
                 ;0x0000, 0x0000, 0x0000, 0x0000, 0x0000, 0x7F80, 0x7F80, 0x6180, 0x6180, 0x6180, 0x6180, 0x6180, 0x6180, 0x6180, 0x6180,  ...
                 ;0x0000, 0x0000, 0x0000, 0x0000, 0x6E00, 0x7F00, 0x7380, 0x6180, 0x6180, 0x6180, 0x6180, 0x7380, 0x7F00, 0x6E00, 0x6000,  ...
                 ;0x0000, 0x0000, 0x0000, 0x0000, 0x0000, 0x1E00, 0x3F00, 0x7380, 0x6180, 0x6000, 0x6000, 0x6180, 0x7380, 0x3F00, 0x1E00,  ...
                 ;0x0000, 0x0000, 0x0000, 0x0000, 0x0000, 0x7F80, 0x7F80, 0x0C00, 0x0C00, 0x0C00, 0x0C00, 0x0C00, 0x0C00, 0x0C00, 0x0C00,  ...
                 ;0x0000, 0x0000, 0x0000, 0x0000, 0x0000, 0x60C0, 0x60C0, 0x3180, 0x1980, 0x0F00, 0x0700, 0x0600, 0x0E00, 0x0C00, 0x3800,  ...
                 ;0x0000, 0x0000, 0x0000, 0x0000, 0x0000, 0x0C00, 0x7F80, 0xCCC0, 0x8C40, 0x8C40, 0xCCC0, 0x7F80, 0x0C00, 0x0C00, 0x0C00,  ...
                 ;0x0000, 0x0000, 0x0000, 0x0000, 0x0000, 0x6180, 0x3300, 0x3300, 0x1E00, 0x0C00, 0x0C00, 0x1E00, 0x3300, 0x3300, 0x6180,  ...
                 ;0x0000, 0x0000, 0x0000, 0x0000, 0x0000, 0x6180, 0x6180, 0x6180, 0x6180, 0x6180, 0x6180, 0x6180, 0x6180, 0x7F80, 0x7F80,  ...
                 ;0x0000, 0x0000, 0x0000, 0x0000, 0x0000, 0x6180, 0x6180, 0x6180, 0x6180, 0x7F80, 0x7F80, 0x0180, 0x0180, 0x01C0, 0x01C0,  ...
                 ;0x0000, 0x0000, 0x0000, 0x0000, 0x0000, 0xCCC0, 0xCCC0, 0xCCC0, 0xCCC0, 0xCCC0, 0xCCC0, 0xCCC0, 0xCCC0, 0xFFC0, 0xFFC0,  ...
                 ;0x0000, 0x0000, 0x0000, 0x0000, 0x0000, 0xCCC0, 0xCCC0, 0xCCC0, 0xCCC0, 0xCCC0, 0xCCC0, 0xCCC0, 0xCCC0, 0xFFC0, 0xFFE0,  ...
                 ;0x0000, 0x0600, 0x0600, 0x0000, 0x0000, 0x3E00, 0x3E00, 0x0600, 0x0600, 0x0600, 0x0600, 0x0600, 0x0600, 0x0600, 0x0600,  ...
                 ;0x0000, 0x0600, 0x0600, 0x0000, 0x0000, 0x3E00, 0x3E00, 0x0600, 0x0600, 0x0600, 0x0600, 0x0600, 0x0600, 0x0600, 0x0600,  ...
                 ;0x0000, 0x0000, 0x0000, 0x0000, 0x0000, 0x6000, 0x6000, 0x6000, 0x6E00, 0x7F00, 0x6380, 0x6180, 0x6380, 0x7F00, 0x6E00,  ...
                 ;0x0000, 0x0000, 0x0000, 0x0000, 0x0000, 0x1E00, 0x3F00, 0x0380, 0x0180, 0x3F80, 0x3F80, 0x0180, 0x0380, 0x3F00, 0x1E00,  ...
                 ;0x0000, 0x0000, 0x0000, 0x0000, 0x0000, 0xC300, 0xC780, 0xCCC0, 0xD860, 0xF860, 0xF860, 0xD860, 0xCCE0, 0xC780, 0xC300,  ...
                 ;0x0000, 0x0000, 0x0000, 0x0000, 0x0000, 0x1F80, 0x3180, 0x6180, 0x6180, 0x6180, 0x3180, 0x1F80, 0x0780, 0x1980, 0x6180,  ...
                 ;};
                 ;
                 ;FontDef Font_11x18 = {11,18,Font11x18};
                 ;#include "ili9341.c"
                 ;/* vim: set ai et ts=4 sw=4: */
                 ;//#include "stm32f1xx_hal.h"
                 ;#include "ili9341.h"
                 ;
                 ;void ILI9341_WriteCommand(unsigned char cmd) {
                 ; 0000 0057 void ILI9341_WriteCommand(unsigned char cmd) {
                 
                 	.CSEG
                 _ILI9341_WriteCommand:
                 ; .FSTART _ILI9341_WriteCommand
                 ;// 8080 MCU 8-bit bus interface I (page 27)
                 ;  TFT_CTRL_PORT = ((TFT_CTRL_PORT & 0b11111100) | (cmd & 0b00000011));// DATA[0..1]
000d51 940e 21d4 	CALL SUBOPT_0x0
                 ;	cmd -> Y+0
                 ;  TFT_DATA_PORT = ((TFT_DATA_PORT & 0b00000011) | (cmd & 0b11111100));// DATA[2..7]
                 ;  TFT_CSX_LO;  // enable ILI9341 chip
000d53 98dc      	CBI  0x1B,4
                 ;  TFT_DCX_LO;  // commands
000d54 98dd      	CBI  0x1B,5
                 ;  TFT_RDX_HIGH;
000d55 9adf      	SBI  0x1B,7
                 ;  TFT_WRX_LO;
000d56 98de      	CBI  0x1B,6
                 ;  #asm("nop");
000d57 0000      	nop
                 ;  TFT_WRX_HIGH;// parallel data write strobe
000d58 9ade      	SBI  0x1B,6
                 ;}
000d59 c499      	RJMP _0x20C000B
                 ; .FEND
                 ;
                 ;void ILI9341_WriteByte(unsigned char data) {
                 _ILI9341_WriteByte:
                 ; .FSTART _ILI9341_WriteByte
                 ;// 8080 MCU 8-bit bus interface I
                 ;  TFT_CTRL_PORT = ((TFT_CTRL_PORT & 0b11111100) | (data & 0b00000011));// DATA[0..1]
000d5a 940e 21d4 	CALL SUBOPT_0x0
                 ;	data -> Y+0
                 ;  TFT_DATA_PORT = ((TFT_DATA_PORT & 0b00000011) | (data & 0b11111100));// DATA[2..7]
                 ;  TFT_DCX_HIGH;// display RAM data or commands parameters
000d5c 9add      	SBI  0x1B,5
                 ;  TFT_WRX_LO;
000d5d 98de      	CBI  0x1B,6
                 ;  #asm("nop");
000d5e 0000      	nop
                 ;  TFT_WRX_HIGH;// parallel data write strobe
000d5f 9ade      	SBI  0x1B,6
                 ;}
000d60 c492      	RJMP _0x20C000B
                 ; .FEND
                 ;
                 ;void ILI9341_SetCol(unsigned int startCol,unsigned int endCol){
                 _ILI9341_SetCol:
                 ; .FSTART _ILI9341_SetCol
                 ; ILI9341_WriteCommand(0x2A);// Column Command address
000d61 93ba      	ST   -Y,R27
000d62 93aa      	ST   -Y,R26
                 ;	startCol -> Y+2
                 ;	endCol -> Y+0
000d63 e2aa      	LDI  R26,LOW(42)
000d64 c003      	RJMP _0x20C000E
                 ; ILI9341_WriteByte(startCol>>8); ILI9341_WriteByte(startCol&0xFF);
                 ; ILI9341_WriteByte(endCol>>8); ILI9341_WriteByte(endCol&0xFF);
                 ; TFT_CSX_HIGH;// disable ILI9341 chip
                 ;}
                 ; .FEND
                 ;
                 ;void ILI9341_SetRow(unsigned int startRow,unsigned int endRow){
                 _ILI9341_SetRow:
                 ; .FSTART _ILI9341_SetRow
                 ; ILI9341_WriteCommand(0x2B);// Page Command address
000d65 93ba      	ST   -Y,R27
000d66 93aa      	ST   -Y,R26
                 ;	startRow -> Y+2
                 ;	endRow -> Y+0
000d67 e2ab      	LDI  R26,LOW(43)
                 _0x20C000E:
000d68 dfe8      	RCALL _ILI9341_WriteCommand
                 ; ILI9341_WriteByte(startRow>>8); ILI9341_WriteByte(startRow&0xFF);
000d69 940e 21e4 	CALL SUBOPT_0x1
                 ; ILI9341_WriteByte(endRow>>8); ILI9341_WriteByte(endRow&0xFF);
000d6b 940e 21eb 	CALL SUBOPT_0x2
                 ; TFT_CSX_HIGH;// disable ILI9341 chip
000d6d 9adc      	SBI  0x1B,4
                 ;}
000d6e 9624      	ADIW R28,4
000d6f 9508      	RET
                 ; .FEND
                 ;
                 ;static void ILI9341_SetAddressWindow(unsigned int startCol, unsigned int startRow, unsigned int endCol, unsigned int end ...
                 _ILI9341_SetAddressWindow_G000:
                 ; .FSTART _ILI9341_SetAddressWindow_G000
                 ;    ILI9341_SetCol(startCol,endCol);     // column address set
000d70 93ba      	ST   -Y,R27
000d71 93aa      	ST   -Y,R26
                 ;	startCol -> Y+6
                 ;	startRow -> Y+4
                 ;	endCol -> Y+2
                 ;	endRow -> Y+0
000d72 940e 21f2 	CALL SUBOPT_0x3
000d74 81ac      	LDD  R26,Y+4
000d75 81bd      	LDD  R27,Y+4+1
000d76 dfea      	RCALL _ILI9341_SetCol
                 ;    ILI9341_SetRow(startRow,endRow);     // row address set
000d77 81ec      	LDD  R30,Y+4
000d78 81fd      	LDD  R31,Y+4+1
000d79 93fa      	ST   -Y,R31
000d7a 93ea      	ST   -Y,R30
000d7b 81aa      	LDD  R26,Y+2
000d7c 81bb      	LDD  R27,Y+2+1
000d7d 940e 21f7 	CALL SUBOPT_0x4
                 ;    ILI9341_WriteCommand(0x2C); // write to RAM
                 ;}
000d7f 9628      	ADIW R28,8
000d80 9508      	RET
                 ; .FEND
                 ;
                 ;void ILI9341_FillRectangle(uint16_t x, uint16_t y, uint16_t w, uint16_t h, uint16_t color){
                 _ILI9341_FillRectangle:
                 ; .FSTART _ILI9341_FillRectangle
                 ;    //   ILI9341_WIDTH = 320, ILI9341_HEIGHT = 240
                 ;    if((x >= ILI9341_WIDTH) || (y >= ILI9341_HEIGHT)) return;
000d81 93ba      	ST   -Y,R27
000d82 93aa      	ST   -Y,R26
                 ;	x -> Y+8
                 ;	y -> Y+6
                 ;	w -> Y+4
                 ;	h -> Y+2
                 ;	color -> Y+0
000d83 85a8      	LDD  R26,Y+8
000d84 85b9      	LDD  R27,Y+8+1
000d85 34a0      	CPI  R26,LOW(0x140)
000d86 e0e1      	LDI  R30,HIGH(0x140)
000d87 07be      	CPC  R27,R30
000d88 f430      	BRSH _0x10
000d89 81ae      	LDD  R26,Y+6
000d8a 81bf      	LDD  R27,Y+6+1
000d8b 3fa0      	CPI  R26,LOW(0xF0)
000d8c e0e0      	LDI  R30,HIGH(0xF0)
000d8d 07be      	CPC  R27,R30
000d8e f008      	BRLO _0xF
                 _0x10:
000d8f c0ae      	RJMP _0x20C000D
                 ;    if((x + w - 1) >= ILI9341_WIDTH) w = ILI9341_WIDTH - x;
                 _0xF:
000d90 940e 21fc 	CALL SUBOPT_0x5
000d92 0fae      	ADD  R26,R30
000d93 1fbf      	ADC  R27,R31
000d94 9711      	SBIW R26,1
000d95 34a0      	CPI  R26,LOW(0x140)
000d96 e0e1      	LDI  R30,HIGH(0x140)
000d97 07be      	CPC  R27,R30
000d98 f040      	BRLO _0x12
000d99 85a8      	LDD  R26,Y+8
000d9a 85b9      	LDD  R27,Y+8+1
000d9b e4e0      	LDI  R30,LOW(320)
000d9c e0f1      	LDI  R31,HIGH(320)
000d9d 1bea      	SUB  R30,R26
000d9e 0bfb      	SBC  R31,R27
000d9f 83ec      	STD  Y+4,R30
000da0 83fd      	STD  Y+4+1,R31
                 ;    if((y + h - 1) >= ILI9341_HEIGHT) h = ILI9341_HEIGHT - y;
                 _0x12:
000da1 81ea      	LDD  R30,Y+2
000da2 81fb      	LDD  R31,Y+2+1
000da3 81ae      	LDD  R26,Y+6
000da4 81bf      	LDD  R27,Y+6+1
000da5 0fae      	ADD  R26,R30
000da6 1fbf      	ADC  R27,R31
000da7 9711      	SBIW R26,1
000da8 3fa0      	CPI  R26,LOW(0xF0)
000da9 e0e0      	LDI  R30,HIGH(0xF0)
000daa 07be      	CPC  R27,R30
000dab f040      	BRLO _0x13
000dac 81ae      	LDD  R26,Y+6
000dad 81bf      	LDD  R27,Y+6+1
000dae efe0      	LDI  R30,LOW(240)
000daf e0f0      	LDI  R31,HIGH(240)
000db0 1bea      	SUB  R30,R26
000db1 0bfb      	SBC  R31,R27
000db2 83ea      	STD  Y+2,R30
000db3 83fb      	STD  Y+2+1,R31
                 ;    ILI9341_SetAddressWindow(x, y, x+w-1, y+h-1);  //0,0,319,239
                 _0x13:
000db4 940e 2201 	CALL SUBOPT_0x6
000db6 940e 2201 	CALL SUBOPT_0x6
000db8 940e 2206 	CALL SUBOPT_0x7
000dba 93ba      	ST   -Y,R27
000dbb 93aa      	ST   -Y,R26
000dbc 940e 2206 	CALL SUBOPT_0x7
000dbe dfb1      	RCALL _ILI9341_SetAddressWindow_G000
                 ;    for(y = h; y > 0; y--) {
000dbf 81ea      	LDD  R30,Y+2
000dc0 81fb      	LDD  R31,Y+2+1
000dc1 83ee      	STD  Y+6,R30
000dc2 83ff      	STD  Y+6+1,R31
                 _0x15:
000dc3 81ae      	LDD  R26,Y+6
000dc4 81bf      	LDD  R27,Y+6+1
000dc5 940e 2744 	CALL __CPW02
000dc7 f4b8      	BRSH _0x16
                 ;        for(x = w; x > 0; x--) {
000dc8 81ec      	LDD  R30,Y+4
000dc9 81fd      	LDD  R31,Y+4+1
000dca 87e8      	STD  Y+8,R30
000dcb 87f9      	STD  Y+8+1,R31
                 _0x18:
000dcc 85a8      	LDD  R26,Y+8
000dcd 85b9      	LDD  R27,Y+8+1
000dce 940e 2744 	CALL __CPW02
000dd0 f440      	BRSH _0x19
                 ;           ILI9341_WriteByte(color>>8); ILI9341_WriteByte(color&0xFF);
000dd1 940e 21eb 	CALL SUBOPT_0x2
                 ;        }
000dd3 85e8      	LDD  R30,Y+8
000dd4 85f9      	LDD  R31,Y+8+1
000dd5 9731      	SBIW R30,1
000dd6 87e8      	STD  Y+8,R30
000dd7 87f9      	STD  Y+8+1,R31
000dd8 cff3      	RJMP _0x18
                 _0x19:
                 ;    }
000dd9 81ee      	LDD  R30,Y+6
000dda 81ff      	LDD  R31,Y+6+1
000ddb 9731      	SBIW R30,1
000ddc 83ee      	STD  Y+6,R30
000ddd 83ff      	STD  Y+6+1,R31
000dde cfe4      	RJMP _0x15
                 _0x16:
                 ;}
000ddf c05e      	RJMP _0x20C000D
                 ; .FEND
                 ;
                 ;void  ILI9341_DrawHorizontalLine( unsigned int poX, unsigned int poY, unsigned int length,unsigned int color) {
                 _ILI9341_DrawHorizontalLine:
                 ; .FSTART _ILI9341_DrawHorizontalLine
                 ;unsigned int i;
                 ; ILI9341_SetCol(poX,poX + length);
000de0 940e 220e 	CALL SUBOPT_0x8
                 ;	poX -> Y+8
                 ;	poY -> Y+6
                 ;	length -> Y+4
                 ;	color -> Y+2
                 ;	i -> R16,R17
000de2 81ee      	LDD  R30,Y+6
000de3 81ff      	LDD  R31,Y+6+1
000de4 85aa      	LDD  R26,Y+10
000de5 85bb      	LDD  R27,Y+10+1
000de6 0fae      	ADD  R26,R30
000de7 1fbf      	ADC  R27,R31
000de8 df78      	RCALL _ILI9341_SetCol
                 ; ILI9341_SetRow(poY,poY);
000de9 940e 21f2 	CALL SUBOPT_0x3
000deb 85a8      	LDD  R26,Y+8
000dec 85b9      	LDD  R27,Y+8+1
000ded 940e 21f7 	CALL SUBOPT_0x4
                 ; ILI9341_WriteCommand(0x2c);
                 ; for(i=0; i<length; i++){ILI9341_WriteByte(color>>8); ILI9341_WriteByte(color&0xFF);}
                +
000def e000     +LDI R16 , LOW ( 0 )
000df0 e010     +LDI R17 , HIGH ( 0 )
                 	__GETWRN 16,17,0
                 _0x1B:
000df1 81ec      	LDD  R30,Y+4
000df2 81fd      	LDD  R31,Y+4+1
000df3 170e      	CP   R16,R30
000df4 071f      	CPC  R17,R31
000df5 f428      	BRSH _0x1C
000df6 940e 21e4 	CALL SUBOPT_0x1
                +
000df8 5f0f     +SUBI R16 , LOW ( - 1 )
000df9 4f1f     +SBCI R17 , HIGH ( - 1 )
                 	__ADDWRN 16,17,1
000dfa cff6      	RJMP _0x1B
                 _0x1C:
                 ; TFT_CSX_HIGH; // disable ILI9341 chip
000dfb 9adc      	SBI  0x1B,4
                 ;}
000dfc 8119      	LDD  R17,Y+1
000dfd 8108      	LDD  R16,Y+0
000dfe c03f      	RJMP _0x20C000D
                 ; .FEND
                 ;
                 ;void ILI9341_DrawVerticalLine( unsigned int poX, unsigned int poY, unsigned int length, unsigned int color) {
                 _ILI9341_DrawVerticalLine:
                 ; .FSTART _ILI9341_DrawVerticalLine
                 ;unsigned int i;
                 ; ILI9341_SetCol(poX,poX);
000dff 940e 220e 	CALL SUBOPT_0x8
                 ;	poX -> Y+8
                 ;	poY -> Y+6
                 ;	length -> Y+4
                 ;	color -> Y+2
                 ;	i -> R16,R17
000e01 85aa      	LDD  R26,Y+10
000e02 85bb      	LDD  R27,Y+10+1
000e03 df5d      	RCALL _ILI9341_SetCol
                 ; ILI9341_SetRow(poY,poY+length);
000e04 940e 21f2 	CALL SUBOPT_0x3
000e06 81ee      	LDD  R30,Y+6
000e07 81ff      	LDD  R31,Y+6+1
000e08 85a8      	LDD  R26,Y+8
000e09 85b9      	LDD  R27,Y+8+1
000e0a 0fae      	ADD  R26,R30
000e0b 1fbf      	ADC  R27,R31
000e0c 940e 21f7 	CALL SUBOPT_0x4
                 ; ILI9341_WriteCommand(0x2c);
                 ; for(i=0; i<length; i++){ILI9341_WriteByte(color>>8); ILI9341_WriteByte(color&0xFF);}
                +
000e0e e000     +LDI R16 , LOW ( 0 )
000e0f e010     +LDI R17 , HIGH ( 0 )
                 	__GETWRN 16,17,0
                 _0x1E:
000e10 81ec      	LDD  R30,Y+4
000e11 81fd      	LDD  R31,Y+4+1
000e12 170e      	CP   R16,R30
000e13 071f      	CPC  R17,R31
000e14 f428      	BRSH _0x1F
000e15 940e 21e4 	CALL SUBOPT_0x1
                +
000e17 5f0f     +SUBI R16 , LOW ( - 1 )
000e18 4f1f     +SBCI R17 , HIGH ( - 1 )
                 	__ADDWRN 16,17,1
000e19 cff6      	RJMP _0x1E
                 _0x1F:
                 ; TFT_CSX_HIGH; // disable ILI9341 chip
000e1a 9adc      	SBI  0x1B,4
                 ;}
000e1b 8119      	LDD  R17,Y+1
000e1c 8108      	LDD  R16,Y+0
000e1d c020      	RJMP _0x20C000D
                 ; .FEND
                 ;
                 ;void ILI9341_DrawRectangle(unsigned int poX, unsigned int poY, unsigned int length, unsigned int width,unsigned int colo ...
                 _ILI9341_DrawRectangle:
                 ; .FSTART _ILI9341_DrawRectangle
                 ; ILI9341_DrawHorizontalLine(poX, poY, length, color);
000e1e 93ba      	ST   -Y,R27
000e1f 93aa      	ST   -Y,R26
                 ;	poX -> Y+8
                 ;	poY -> Y+6
                 ;	length -> Y+4
                 ;	width -> Y+2
                 ;	color -> Y+0
000e20 940e 2201 	CALL SUBOPT_0x6
000e22 940e 2201 	CALL SUBOPT_0x6
000e24 940e 2201 	CALL SUBOPT_0x6
000e26 940e 2213 	CALL SUBOPT_0x9
                 ; ILI9341_DrawHorizontalLine(poX, poY+width, length, color);
000e28 940e 21fc 	CALL SUBOPT_0x5
000e2a 940e 2218 	CALL SUBOPT_0xA
000e2c 940e 2213 	CALL SUBOPT_0x9
                 ; ILI9341_DrawVerticalLine(poX, poY, width,color);
000e2e 940e 2201 	CALL SUBOPT_0x6
000e30 940e 21f2 	CALL SUBOPT_0x3
000e32 81ae      	LDD  R26,Y+6
000e33 81bf      	LDD  R27,Y+6+1
000e34 dfca      	RCALL _ILI9341_DrawVerticalLine
                 ; ILI9341_DrawVerticalLine(poX + length, poY, width,color);
000e35 940e 21fc 	CALL SUBOPT_0x5
000e37 940e 2218 	CALL SUBOPT_0xA
000e39 940e 21f2 	CALL SUBOPT_0x3
000e3b 81ae      	LDD  R26,Y+6
000e3c 81bf      	LDD  R27,Y+6+1
000e3d dfc1      	RCALL _ILI9341_DrawVerticalLine
                 ;}
                 _0x20C000D:
000e3e 962a      	ADIW R28,10
000e3f 9508      	RET
                 ; .FEND
                 ;
                 ;static void ILI9341_WriteChar(uint16_t x, uint16_t y, char ch, FontDef font, uint16_t color, uint16_t bgcolor, uint8_t s ...
                 _ILI9341_WriteChar_G000:
                 ; .FSTART _ILI9341_WriteChar_G000
                 ;    uint32_t i, b, j;
                 ;    for(i = 0; i < font.height; i++) {
000e40 93aa      	ST   -Y,R26
000e41 972c      	SBIW R28,12
                 ;	x -> Y+24
                 ;	y -> Y+22
                 ;	ch -> Y+21
                 ;	font -> Y+17
                 ;	color -> Y+15
                 ;	bgcolor -> Y+13
                 ;	size -> Y+12
                 ;	i -> Y+8
                 ;	b -> Y+4
                 ;	j -> Y+0
000e42 e0e0      	LDI  R30,LOW(0)
                +
000e43 87e8     +STD Y + 8 , R30
000e44 87e9     +STD Y + 8 + 1 , R30
000e45 87ea     +STD Y + 8 + 2 , R30
000e46 87eb     +STD Y + 8 + 3 , R30
                 	__CLRD1S 8
                 _0x21:
000e47 89ea      	LDD  R30,Y+18
                +
000e48 85a8     +LDD R26 , Y + 8
000e49 85b9     +LDD R27 , Y + 8 + 1
000e4a 858a     +LDD R24 , Y + 8 + 2
000e4b 859b     +LDD R25 , Y + 8 + 3
                 	__GETD2S 8
000e4c 27ff      	CLR  R31
000e4d 2766      	CLR  R22
000e4e 2777      	CLR  R23
000e4f 940e 2748 	CALL __CPD21
000e51 f008      	BRLO PC+2
000e52 c04e      	RJMP _0x22
                 ;      if (ch>=32 && ch<127) b = font.data[(ch - 32) * font.height + i];// 
000e53 89ad      	LDD  R26,Y+21
000e54 32a0      	CPI  R26,LOW(0x20)
000e55 f010      	BRLO _0x24
000e56 37af      	CPI  R26,LOW(0x7F)
000e57 f008      	BRLO _0x25
                 _0x24:
000e58 c004      	RJMP _0x23
                 _0x25:
000e59 89ed      	LDD  R30,Y+21
000e5a e0f0      	LDI  R31,0
000e5b 97b0      	SBIW R30,32
000e5c c004      	RJMP _0x278
                 ;      else b = font.data[(ch - 97) * font.height + i];  //  192 - 96 = 96
                 _0x23:
000e5d 89ed      	LDD  R30,Y+21
000e5e e0f0      	LDI  R31,0
000e5f 56e1      	SUBI R30,LOW(97)
000e60 40f0      	SBCI R31,HIGH(97)
                 _0x278:
000e61 01df      	MOVW R26,R30
000e62 89ea      	LDD  R30,Y+18
000e63 e0f0      	LDI  R31,0
000e64 940e 2678 	CALL __MULW12
000e66 85a8      	LDD  R26,Y+8
000e67 85b9      	LDD  R27,Y+8+1
000e68 0fea      	ADD  R30,R26
000e69 1ffb      	ADC  R31,R27
000e6a 89ab      	LDD  R26,Y+19
000e6b 89bc      	LDD  R27,Y+19+1
000e6c 940e 221d 	CALL SUBOPT_0xB
000e6e 940e 26f7 	CALL __GETW1PF
000e70 940e 2222 	CALL SUBOPT_0xC
                 ;        for(j = 0; j < font.width; j++) {
000e72 e0e0      	LDI  R30,LOW(0)
000e73 940e 270a 	CALL __CLRD1S0
                 _0x28:
000e75 89e9      	LDD  R30,Y+17
000e76 940e 2229 	CALL SUBOPT_0xD
000e78 27ff      	CLR  R31
000e79 2766      	CLR  R22
000e7a 2777      	CLR  R23
000e7b 940e 2748 	CALL __CPD21
000e7d f4b0      	BRSH _0x29
                 ;            if((b << j) & 0x8000)  {
000e7e 81e8      	LD   R30,Y
                +
000e7f 81ac     +LDD R26 , Y + 4
000e80 81bd     +LDD R27 , Y + 4 + 1
000e81 818e     +LDD R24 , Y + 4 + 2
000e82 819f     +LDD R25 , Y + 4 + 3
                 	__GETD2S 4
000e83 940e 262c 	CALL __LSLD12
000e85 78f0      	ANDI R31,HIGH(0x8000)
000e86 f029      	BREQ _0x2A
                 ;              ILI9341_FillRectangle(x+j*size,y+i*size,size,size,color);
000e87 940e 222c 	CALL SUBOPT_0xE
000e89 89af      	LDD  R26,Y+23
000e8a 8db8      	LDD  R27,Y+23+1
000e8b c004      	RJMP _0x279
                 ;            }
                 ;            else {
                 _0x2A:
                 ;              ILI9341_FillRectangle(x+j*size,y+i*size,size,size,bgcolor);
000e8c 940e 222c 	CALL SUBOPT_0xE
000e8e 89ad      	LDD  R26,Y+21
000e8f 89be      	LDD  R27,Y+21+1
                 _0x279:
000e90 def0      	RCALL _ILI9341_FillRectangle
                 ;            }
                 ;        }
000e91 940e 224d 	CALL SUBOPT_0xF
000e93 cfe1      	RJMP _0x28
                 _0x29:
                 ;    }
                +
000e94 85e8     +LDD R30 , Y + 8
000e95 85f9     +LDD R31 , Y + 8 + 1
000e96 856a     +LDD R22 , Y + 8 + 2
000e97 857b     +LDD R23 , Y + 8 + 3
                 	__GETD1S 8
                +
000e98 5fef     +SUBI R30 , LOW ( - 1 )
000e99 4fff     +SBCI R31 , HIGH ( - 1 )
000e9a 4f6f     +SBCI R22 , BYTE3 ( - 1 )
000e9b 4f7f     +SBCI R23 , BYTE4 ( - 1 )
                 	__SUBD1N -1
                +
000e9c 87e8     +STD Y + 8 , R30
000e9d 87f9     +STD Y + 8 + 1 , R31
000e9e 876a     +STD Y + 8 + 2 , R22
000e9f 877b     +STD Y + 8 + 3 , R23
                 	__PUTD1S 8
000ea0 cfa6      	RJMP _0x21
                 _0x22:
                 ;}
000ea1 966a      	ADIW R28,26
000ea2 9508      	RET
                 ; .FEND
                 ;
                 ;void ILI9341_WriteString(uint16_t x, uint16_t y, const char* str, FontDef font, uint16_t color, uint16_t bgcolor, uint8_ ...
                 _ILI9341_WriteString:
                 ; .FSTART _ILI9341_WriteString
                 ;    if(size==0) size=1;
000ea3 93aa      	ST   -Y,R26
                 ;	x -> Y+13
                 ;	y -> Y+11
                 ;	*str -> Y+9
                 ;	font -> Y+5
                 ;	color -> Y+3
                 ;	bgcolor -> Y+1
                 ;	size -> Y+0
000ea4 81e8      	LD   R30,Y
000ea5 30e0      	CPI  R30,0
000ea6 f411      	BRNE _0x2C
000ea7 e0e1      	LDI  R30,LOW(1)
000ea8 83e8      	ST   Y,R30
                 ;    while(*str){
                 _0x2C:
                 _0x2D:
000ea9 85a9      	LDD  R26,Y+9
000eaa 85ba      	LDD  R27,Y+9+1
000eab 91ec      	LD   R30,X
000eac 30e0      	CPI  R30,0
000ead f409      	BRNE PC+2
000eae c058      	RJMP _0x2F
                 ;        if(x + font.width >= ILI9341_WIDTH){
000eaf 81ed      	LDD  R30,Y+5
000eb0 e0f0      	LDI  R31,0
000eb1 85ad      	LDD  R26,Y+13
000eb2 85be      	LDD  R27,Y+13+1
000eb3 0fae      	ADD  R26,R30
000eb4 1fbf      	ADC  R27,R31
000eb5 34a0      	CPI  R26,LOW(0x140)
000eb6 e0e1      	LDI  R30,HIGH(0x140)
000eb7 07be      	CPC  R27,R30
000eb8 f120      	BRLO _0x30
                 ;            x = 0;
000eb9 e0e0      	LDI  R30,LOW(0)
000eba 87ed      	STD  Y+13,R30
000ebb 87ee      	STD  Y+13+1,R30
                 ;            y += font.height*size;
000ebc 81ae      	LDD  R26,Y+6
000ebd 27bb      	CLR  R27
000ebe 81e8      	LD   R30,Y
000ebf e0f0      	LDI  R31,0
000ec0 940e 2678 	CALL __MULW12
000ec2 85ab      	LDD  R26,Y+11
000ec3 85bc      	LDD  R27,Y+11+1
000ec4 0fea      	ADD  R30,R26
000ec5 1ffb      	ADC  R31,R27
000ec6 87eb      	STD  Y+11,R30
000ec7 87fc      	STD  Y+11+1,R31
                 ;            if(y + font.height >= ILI9341_HEIGHT) break;
000ec8 81ee      	LDD  R30,Y+6
000ec9 e0f0      	LDI  R31,0
000eca 85ab      	LDD  R26,Y+11
000ecb 85bc      	LDD  R27,Y+11+1
000ecc 0fae      	ADD  R26,R30
000ecd 1fbf      	ADC  R27,R31
000ece 3fa0      	CPI  R26,LOW(0xF0)
000ecf e0e0      	LDI  R30,HIGH(0xF0)
000ed0 07be      	CPC  R27,R30
000ed1 f5a8      	BRSH _0x2F
                 ;            if(*str == ' ') {
000ed2 85a9      	LDD  R26,Y+9
000ed3 85ba      	LDD  R27,Y+9+1
000ed4 91ac      	LD   R26,X
000ed5 32a0      	CPI  R26,LOW(0x20)
000ed6 f431      	BRNE _0x32
                 ;                // skip spaces in the beginning of the new line
                 ;                str++;
000ed7 85e9      	LDD  R30,Y+9
000ed8 85fa      	LDD  R31,Y+9+1
000ed9 9631      	ADIW R30,1
000eda 87e9      	STD  Y+9,R30
000edb 87fa      	STD  Y+9+1,R31
                 ;                continue;
000edc cfcc      	RJMP _0x2D
                 ;            }
                 ;        }
                 _0x32:
                 ;        ILI9341_WriteChar(x, y, *str, font, color, bgcolor, size);
                 _0x30:
000edd 85ed      	LDD  R30,Y+13
000ede 85fe      	LDD  R31,Y+13+1
000edf 93fa      	ST   -Y,R31
000ee0 93ea      	ST   -Y,R30
000ee1 85ed      	LDD  R30,Y+13
000ee2 85fe      	LDD  R31,Y+13+1
000ee3 93fa      	ST   -Y,R31
000ee4 93ea      	ST   -Y,R30
000ee5 85ad      	LDD  R26,Y+13
000ee6 85be      	LDD  R27,Y+13+1
000ee7 91ec      	LD   R30,X
000ee8 93ea      	ST   -Y,R30
                +
000ee9 85ea     +LDD R30 , Y + 10
000eea 85fb     +LDD R31 , Y + 10 + 1
000eeb 856c     +LDD R22 , Y + 10 + 2
000eec 857d     +LDD R23 , Y + 10 + 3
                 	__GETD1S 10
000eed 940e 270f 	CALL __PUTPARD1
000eef 940e 2256 	CALL SUBOPT_0x10
000ef1 940e 2256 	CALL SUBOPT_0x10
000ef3 85ad      	LDD  R26,Y+13
000ef4 df4b      	RCALL _ILI9341_WriteChar_G000
                 ;        x += font.width*size;
000ef5 81ad      	LDD  R26,Y+5
000ef6 27bb      	CLR  R27
000ef7 81e8      	LD   R30,Y
000ef8 e0f0      	LDI  R31,0
000ef9 940e 2678 	CALL __MULW12
000efb 85ad      	LDD  R26,Y+13
000efc 85be      	LDD  R27,Y+13+1
000efd 0fea      	ADD  R30,R26
000efe 1ffb      	ADC  R31,R27
000eff 87ed      	STD  Y+13,R30
000f00 87fe      	STD  Y+13+1,R31
                 ;        str++;
000f01 85e9      	LDD  R30,Y+9
000f02 85fa      	LDD  R31,Y+9+1
000f03 9631      	ADIW R30,1
000f04 87e9      	STD  Y+9,R30
000f05 87fa      	STD  Y+9+1,R31
                 ;    }
000f06 cfa2      	RJMP _0x2D
                 _0x2F:
                 ;}
000f07 962f      	ADIW R28,15
000f08 9508      	RET
                 ; .FEND
                 ;
                 ;void InitInterface(void){
                 _InitInterface:
                 ; .FSTART _InitInterface
                 ;  TFT_CTRL_DIR |= (1 << TFT_RDX) | (1 << TFT_WRX) | (1 << TFT_DCX) | (1 << TFT_CSX) | (1 << TFT_RST);
000f09 b3ea      	IN   R30,0x1A
000f0a 6fe4      	ORI  R30,LOW(0xF4)
000f0b bbea      	OUT  0x1A,R30
                 ;  TFT_CTRL_DIR |= 0x03;// DATA[0..1]
000f0c b3ea      	IN   R30,0x1A
000f0d 60e3      	ORI  R30,LOW(0x3)
000f0e bbea      	OUT  0x1A,R30
                 ;  TFT_CTRL_PORT |= (1 << TFT_RDX) | (1 << TFT_WRX) | (1 << TFT_DCX) | (1 << TFT_CSX) & (~(1 << TFT_RST));
000f0f b3eb      	IN   R30,0x1B
000f10 6fe0      	ORI  R30,LOW(0xF0)
000f11 bbeb      	OUT  0x1B,R30
                 ;  TFT_DATA_DIR |= 0xFC;// DATA[2..7]
000f12 b3e4      	IN   R30,0x14
000f13 6fec      	ORI  R30,LOW(0xFC)
000f14 bbe4      	OUT  0x14,R30
                 ;  TFT_DATA_PORT &= 0x03;// DATA[2..7]
000f15 b3e5      	IN   R30,0x15
000f16 70e3      	ANDI R30,LOW(0x3)
000f17 bbe5      	OUT  0x15,R30
                 ;}
000f18 9508      	RET
                 ; .FEND
                 ;
                 ;unsigned int constrain(unsigned int a, unsigned int b, unsigned int c)
                 ;{
                 _constrain:
                 ; .FSTART _constrain
                 ;  if (a < b) return b;
000f19 93ba      	ST   -Y,R27
000f1a 93aa      	ST   -Y,R26
                 ;	a -> Y+4
                 ;	b -> Y+2
                 ;	c -> Y+0
000f1b 81ea      	LDD  R30,Y+2
000f1c 81fb      	LDD  R31,Y+2+1
000f1d 81ac      	LDD  R26,Y+4
000f1e 81bd      	LDD  R27,Y+4+1
000f1f 17ae      	CP   R26,R30
000f20 07bf      	CPC  R27,R31
000f21 f408      	BRSH _0x33
000f22 c545      	RJMP _0x20C0005
                 ;  if (c < a) return c;
                 _0x33:
000f23 81ec      	LDD  R30,Y+4
000f24 81fd      	LDD  R31,Y+4+1
000f25 81a8      	LD   R26,Y
000f26 81b9      	LDD  R27,Y+1
000f27 17ae      	CP   R26,R30
000f28 07bf      	CPC  R27,R31
000f29 f418      	BRSH _0x34
000f2a 81e8      	LD   R30,Y
000f2b 81f9      	LDD  R31,Y+1
000f2c c53b      	RJMP _0x20C0005
                 ;  else return a;
                 _0x34:
000f2d 81ec      	LDD  R30,Y+4
000f2e 81fd      	LDD  R31,Y+4+1
000f2f c538      	RJMP _0x20C0005
                 ;}
                 ; .FEND
                 ;
                 ;void ILI9341_FillScreen(unsigned int XL, unsigned int XR, unsigned int YU, unsigned int YD, unsigned int color)
                 ;{
                 _ILI9341_FillScreen:
                 ; .FSTART _ILI9341_FillScreen
                 ;unsigned long XY=0;
                 ;unsigned long i=0;
                 ; if(XL > XR){XL = XL^XR; XR = XL^XR; XL = XL^XR;}
000f30 93ba      	ST   -Y,R27
000f31 93aa      	ST   -Y,R26
000f32 9728      	SBIW R28,8
000f33 e0e0      	LDI  R30,LOW(0)
000f34 83e8      	ST   Y,R30
000f35 83e9      	STD  Y+1,R30
000f36 83ea      	STD  Y+2,R30
000f37 83eb      	STD  Y+3,R30
000f38 83ec      	STD  Y+4,R30
000f39 83ed      	STD  Y+5,R30
000f3a 83ee      	STD  Y+6,R30
000f3b 83ef      	STD  Y+7,R30
                 ;	XL -> Y+16
                 ;	XR -> Y+14
                 ;	YU -> Y+12
                 ;	YD -> Y+10
                 ;	color -> Y+8
                 ;	XY -> Y+4
                 ;	i -> Y+0
000f3c 940e 225b 	CALL SUBOPT_0x11
000f3e 17ea      	CP   R30,R26
000f3f 07fb      	CPC  R31,R27
000f40 f490      	BRSH _0x36
000f41 940e 225b 	CALL SUBOPT_0x11
000f43 27ea      	EOR  R30,R26
000f44 27fb      	EOR  R31,R27
000f45 8be8      	STD  Y+16,R30
000f46 8bf9      	STD  Y+16+1,R31
000f47 940e 225b 	CALL SUBOPT_0x11
000f49 27ea      	EOR  R30,R26
000f4a 27fb      	EOR  R31,R27
000f4b 87ee      	STD  Y+14,R30
000f4c 87ff      	STD  Y+14+1,R31
000f4d 940e 225b 	CALL SUBOPT_0x11
000f4f 27ea      	EOR  R30,R26
000f50 27fb      	EOR  R31,R27
000f51 8be8      	STD  Y+16,R30
000f52 8bf9      	STD  Y+16+1,R31
                 ; if(YU > YD){YU = YU^YD; YD = YU^YD; YU = YU^YD;}
                 _0x36:
000f53 940e 2260 	CALL SUBOPT_0x12
000f55 17ea      	CP   R30,R26
000f56 07fb      	CPC  R31,R27
000f57 f490      	BRSH _0x37
000f58 940e 2260 	CALL SUBOPT_0x12
000f5a 27ea      	EOR  R30,R26
000f5b 27fb      	EOR  R31,R27
000f5c 87ec      	STD  Y+12,R30
000f5d 87fd      	STD  Y+12+1,R31
000f5e 940e 2260 	CALL SUBOPT_0x12
000f60 27ea      	EOR  R30,R26
000f61 27fb      	EOR  R31,R27
000f62 87ea      	STD  Y+10,R30
000f63 87fb      	STD  Y+10+1,R31
000f64 940e 2260 	CALL SUBOPT_0x12
000f66 27ea      	EOR  R30,R26
000f67 27fb      	EOR  R31,R27
000f68 87ec      	STD  Y+12,R30
000f69 87fd      	STD  Y+12+1,R31
                 ; XL = constrain(XL, 0, max_X);
                 _0x37:
000f6a 89e8      	LDD  R30,Y+16
000f6b 89f9      	LDD  R31,Y+16+1
000f6c 940e 2265 	CALL SUBOPT_0x13
000f6e 8be8      	STD  Y+16,R30
000f6f 8bf9      	STD  Y+16+1,R31
                 ; XR = constrain(XR, 0, max_X);
000f70 85ee      	LDD  R30,Y+14
000f71 85ff      	LDD  R31,Y+14+1
000f72 940e 2265 	CALL SUBOPT_0x13
000f74 87ee      	STD  Y+14,R30
000f75 87ff      	STD  Y+14+1,R31
                 ; YU = constrain(YU, 0, max_Y);
000f76 940e 2256 	CALL SUBOPT_0x10
000f78 940e 2271 	CALL SUBOPT_0x14
000f7a 87ec      	STD  Y+12,R30
000f7b 87fd      	STD  Y+12+1,R31
                 ; YD = constrain(YD, 0, max_Y);
000f7c 85ea      	LDD  R30,Y+10
000f7d 85fb      	LDD  R31,Y+10+1
000f7e 93fa      	ST   -Y,R31
000f7f 93ea      	ST   -Y,R30
000f80 940e 2271 	CALL SUBOPT_0x14
000f82 87ea      	STD  Y+10,R30
000f83 87fb      	STD  Y+10+1,R31
                 ;#pragma warn-
                 ; XY = (XR-XL+1);
000f84 89a8      	LDD  R26,Y+16
000f85 89b9      	LDD  R27,Y+16+1
000f86 85ee      	LDD  R30,Y+14
000f87 85ff      	LDD  R31,Y+14+1
000f88 1bea      	SUB  R30,R26
000f89 0bfb      	SBC  R31,R27
000f8a 9631      	ADIW R30,1
000f8b 940e 2222 	CALL SUBOPT_0xC
                 ; XY = XY*(YD-YU+1);
000f8d 85ac      	LDD  R26,Y+12
000f8e 85bd      	LDD  R27,Y+12+1
000f8f 85ea      	LDD  R30,Y+10
000f90 85fb      	LDD  R31,Y+10+1
000f91 1bea      	SUB  R30,R26
000f92 0bfb      	SBC  R31,R27
000f93 9631      	ADIW R30,1
                +
000f94 81ac     +LDD R26 , Y + 4
000f95 81bd     +LDD R27 , Y + 4 + 1
000f96 818e     +LDD R24 , Y + 4 + 2
000f97 819f     +LDD R25 , Y + 4 + 3
                 	__GETD2S 4
000f98 2766      	CLR  R22
000f99 2777      	CLR  R23
000f9a 940e 2658 	CALL __MULD12U
                +
000f9c 83ec     +STD Y + 4 , R30
000f9d 83fd     +STD Y + 4 + 1 , R31
000f9e 836e     +STD Y + 4 + 2 , R22
000f9f 837f     +STD Y + 4 + 3 , R23
                 	__PUTD1S 4
                 ;#pragma warn+
                 ; ILI9341_SetCol(XL,XR);
000fa0 89e8      	LDD  R30,Y+16
000fa1 89f9      	LDD  R31,Y+16+1
000fa2 93fa      	ST   -Y,R31
000fa3 93ea      	ST   -Y,R30
000fa4 89a8      	LDD  R26,Y+16
000fa5 89b9      	LDD  R27,Y+16+1
000fa6 ddba      	RCALL _ILI9341_SetCol
                 ; ILI9341_SetRow(YU, YD);
000fa7 940e 2256 	CALL SUBOPT_0x10
000fa9 85ac      	LDD  R26,Y+12
000faa 85bd      	LDD  R27,Y+12+1
000fab 940e 21f7 	CALL SUBOPT_0x4
                 ; ILI9341_WriteCommand(0x2C); // start to write to display ram
                 ; for(i=0; i < XY; i++){ILI9341_WriteByte(color>>8); ILI9341_WriteByte(color&0xFF);}
000fad e0e0      	LDI  R30,LOW(0)
000fae 940e 270a 	CALL __CLRD1S0
                 _0x39:
                +
000fb0 81ec     +LDD R30 , Y + 4
000fb1 81fd     +LDD R31 , Y + 4 + 1
000fb2 816e     +LDD R22 , Y + 4 + 2
000fb3 817f     +LDD R23 , Y + 4 + 3
                 	__GETD1S 4
000fb4 940e 2229 	CALL SUBOPT_0xD
000fb6 940e 2748 	CALL __CPD21
000fb8 f440      	BRSH _0x3A
000fb9 85a9      	LDD  R26,Y+9
000fba dd9f      	RCALL _ILI9341_WriteByte
000fbb 85e8      	LDD  R30,Y+8
000fbc 2fae      	MOV  R26,R30
000fbd dd9c      	RCALL _ILI9341_WriteByte
000fbe 940e 224d 	CALL SUBOPT_0xF
000fc0 cfef      	RJMP _0x39
                 _0x3A:
                 ; TFT_CSX_HIGH; // disable ILI9341 chip
000fc1 9adc      	SBI  0x1B,4
                 ;}
000fc2 9662      	ADIW R28,18
000fc3 9508      	RET
                 ; .FEND
                 ;
                 ;void ILI9341_Init(void) {
                 _ILI9341_Init:
                 ; .FSTART _ILI9341_Init
                 ;//unsigned char orient
                 ;  TFT_RST_HIGH;
000fc4 9ada      	SBI  0x1B,2
                 ;  delay_ms(1);
000fc5 e0a1      	LDI  R26,LOW(1)
000fc6 e0b0      	LDI  R27,0
000fc7 940e 2535 	CALL _delay_ms
                 ;  ILI9341_WriteCommand(0x01);
000fc9 e0a1      	LDI  R26,LOW(1)
000fca 940e 227b 	CALL SUBOPT_0x15
                 ;  ILI9341_WriteByte(0x00);
                 ;  delay_ms(50);
000fcc e3a2      	LDI  R26,LOW(50)
000fcd e0b0      	LDI  R27,0
000fce 940e 2535 	CALL _delay_ms
                 ;//DISPLAYOFF
                 ;  ILI9341_WriteCommand(0x28);
000fd0 e2a8      	LDI  R26,LOW(40)
000fd1 940e 227b 	CALL SUBOPT_0x15
                 ;  ILI9341_WriteByte(0x00);
                 ;//Power Control 1
                 ;  ILI9341_WriteCommand(0xC0);
000fd3 eca0      	LDI  R26,LOW(192)
000fd4 dd7c      	RCALL _ILI9341_WriteCommand
                 ;  ILI9341_WriteByte(0x23);
000fd5 e2a3      	LDI  R26,LOW(35)
000fd6 dd83      	RCALL _ILI9341_WriteByte
                 ;//Power Control 2
                 ;  ILI9341_WriteCommand(0xC1);
000fd7 eca1      	LDI  R26,LOW(193)
000fd8 dd78      	RCALL _ILI9341_WriteCommand
                 ;  ILI9341_WriteByte(0x10);
000fd9 e1a0      	LDI  R26,LOW(16)
000fda dd7f      	RCALL _ILI9341_WriteByte
                 ;//VCOM Control 1
                 ;  ILI9341_WriteCommand(0xC5);
000fdb eca5      	LDI  R26,LOW(197)
000fdc dd74      	RCALL _ILI9341_WriteCommand
                 ;  ILI9341_WriteByte(0x2B);
000fdd e2ab      	LDI  R26,LOW(43)
000fde dd7b      	RCALL _ILI9341_WriteByte
                 ;  ILI9341_WriteByte(0x2B);
000fdf e2ab      	LDI  R26,LOW(43)
000fe0 dd79      	RCALL _ILI9341_WriteByte
                 ;//VCOM Control 2
                 ;  ILI9341_WriteCommand(0xC7);
000fe1 eca7      	LDI  R26,LOW(199)
000fe2 dd6e      	RCALL _ILI9341_WriteCommand
                 ;  ILI9341_WriteByte(0xC0);
000fe3 eca0      	LDI  R26,LOW(192)
000fe4 dd75      	RCALL _ILI9341_WriteByte
                 ;//-MEMCONTROL-----------------
                 ;  ILI9341_WriteCommand(ILI9341_MADCTL);
000fe5 e3a6      	LDI  R26,LOW(54)
000fe6 dd6a      	RCALL _ILI9341_WriteCommand
                 ;  ILI9341_WriteByte(ILI9341_MADCTL_MV | ILI9341_MADCTL_BGR);
000fe7 e2a8      	LDI  R26,LOW(40)
000fe8 dd71      	RCALL _ILI9341_WriteByte
                 ;  max_X=TFTWIDTH-1; max_Y=TFTHEIGHT-1;
000fe9 e3ef      	LDI  R30,LOW(319)
000fea e0f1      	LDI  R31,HIGH(319)
000feb 93e0 03c0 	STS  _max_X,R30
000fed 93f0 03c1 	STS  _max_X+1,R31
000fef eeef      	LDI  R30,LOW(239)
000ff0 e0f0      	LDI  R31,HIGH(239)
000ff1 93e0 03c2 	STS  _max_Y,R30
000ff3 93f0 03c3 	STS  _max_Y+1,R31
                 ;  ILI9341_SetCol(0,max_X); ILI9341_SetRow(0,max_Y);
000ff5 940e 2280 	CALL SUBOPT_0x16
000ff7 940e 2285 	CALL SUBOPT_0x17
000ff9 dd67      	RCALL _ILI9341_SetCol
000ffa 940e 2280 	CALL SUBOPT_0x16
000ffc 940e 228a 	CALL SUBOPT_0x18
000ffe dd66      	RCALL _ILI9341_SetRow
                 ;//----------------------------
                 ;//COLMOD: Pixel Format Set
                 ;  ILI9341_WriteCommand(0x3A);
000fff e3aa      	LDI  R26,LOW(58)
001000 dd50      	RCALL _ILI9341_WriteCommand
                 ;  ILI9341_WriteByte(0x55);
001001 e5a5      	LDI  R26,LOW(85)
001002 dd57      	RCALL _ILI9341_WriteByte
                 ;//Frame Rate Control (In Normal Mode/Full Colors)
                 ;  ILI9341_WriteCommand(0xB1);
001003 eba1      	LDI  R26,LOW(177)
001004 940e 227b 	CALL SUBOPT_0x15
                 ;  ILI9341_WriteByte(0x00);
                 ;  ILI9341_WriteByte(0x1B);
001006 e1ab      	LDI  R26,LOW(27)
001007 dd52      	RCALL _ILI9341_WriteByte
                 ;//ENTRYMODE
                 ;  ILI9341_WriteCommand(0xB7);
001008 eba7      	LDI  R26,LOW(183)
001009 dd47      	RCALL _ILI9341_WriteCommand
                 ;  ILI9341_WriteByte(0x07);
00100a e0a7      	LDI  R26,LOW(7)
00100b dd4e      	RCALL _ILI9341_WriteByte
                 ;  ILI9341_WriteCommand(ILI9341_SLEEPOUT);
00100c e1a1      	LDI  R26,LOW(17)
00100d 940e 227b 	CALL SUBOPT_0x15
                 ;  ILI9341_WriteByte(0x00);
                 ;  delay_ms(150);
00100f e9a6      	LDI  R26,LOW(150)
001010 e0b0      	LDI  R27,0
001011 940e 2535 	CALL _delay_ms
                 ;//Display On
                 ;  ILI9341_WriteCommand(ILI9341_DISPLAYON);
001013 e2a9      	LDI  R26,LOW(41)
001014 940e 227b 	CALL SUBOPT_0x15
                 ;  ILI9341_WriteByte(0x00);
                 ;  delay_ms(500);
001016 efa4      	LDI  R26,LOW(500)
001017 e0b1      	LDI  R27,HIGH(500)
001018 940e 2535 	CALL _delay_ms
                 ;}
00101a 9508      	RET
                 ; .FEND
                 ;#include "twi.c"
                 ;#include "twi.h"
                 ;#define BITRATE      100     //Bit Rate: 66,000 kHz -> TWBR=0x14;/Bit Rate: 102,000 kH -> TWBR=0x0A;/Bit Rate: 115,000 k ...
                 ;
                 ;unsigned char wait_int(void)    //Wait for TWINT flag set.
                 ; 0000 0058 {
                 _wait_int:
                 ; .FSTART _wait_int
                 ; unsigned char count=0, val=0;
                 ;  while (!(TWCR & 0x80)){if(++count>200) {TWBR=0; TWCR=0; val=1; TWBR=BITRATE; break;}};
00101b 931a      	ST   -Y,R17
00101c 930a      	ST   -Y,R16
                 ;	count -> R17
                 ;	val -> R16
00101d e010      	LDI  R17,0
00101e e000      	LDI  R16,0
                 _0x3B:
00101f b7e6      	IN   R30,0x36
001020 78e0      	ANDI R30,LOW(0x80)
001021 f459      	BRNE _0x3D
001022 5f1f      	SUBI R17,-LOW(1)
001023 3c19      	CPI  R17,201
001024 f038      	BRLO _0x3E
001025 e0e0      	LDI  R30,LOW(0)
001026 b9e0      	OUT  0x0,R30
001027 bfe6      	OUT  0x36,R30
001028 e001      	LDI  R16,LOW(1)
001029 e6e4      	LDI  R30,LOW(100)
00102a b9e0      	OUT  0x0,R30
00102b c001      	RJMP _0x3D
                 _0x3E:
00102c cff2      	RJMP _0x3B
                 _0x3D:
                 ;  return val;
00102d 2fe0      	MOV  R30,R16
00102e 9109      	LD   R16,Y+
00102f 9119      	LD   R17,Y+
001030 9508      	RET
                 ;}
                 ; .FEND
                 ;
                 ;unsigned char read_TWI(char devaddr, int address, char *data, int byte)
                 ;{
                 _read_TWI:
                 ; .FSTART _read_TWI
                 ; unsigned char ok=1;
                 ; int tmpint;
                 ;  TWCR = 0xA4;//(1<<TWINT)|(1<<TWSTA)|(TWEN) - Send START condition
001031 93ba      	ST   -Y,R27
001032 93aa      	ST   -Y,R26
001033 940e 2754 	CALL __SAVELOCR4
                 ;	devaddr -> Y+10
                 ;	address -> Y+8
                 ;	*data -> Y+6
                 ;	byte -> Y+4
                 ;	ok -> R17
                 ;	tmpint -> R18,R19
001035 e011      	LDI  R17,1
001036 eae4      	LDI  R30,LOW(164)
001037 940e 228f 	CALL SUBOPT_0x19
                 ;  if(wait_int()){ok=0; goto EXIT_read_clock;};
001039 f011      	BREQ _0x3F
00103a e010      	LDI  R17,LOW(0)
00103b c081      	RJMP _0x40
                 _0x3F:
                 ;  if((TWSR & 0xF8) != START_OK){ok=0; goto EXIT_read_clock;};// This indicates that the START condition has been transmi ...
00103c b1e1      	IN   R30,0x1
00103d 7fe8      	ANDI R30,LOW(0xF8)
00103e 30e8      	CPI  R30,LOW(0x8)
00103f f011      	BREQ _0x41
001040 e010      	LDI  R17,LOW(0)
001041 c07b      	RJMP _0x40
                 _0x41:
                 ;  TWDR = devaddr+0;//Load SLA_W into TWDR register. Clear TWINT bit in TWCR to start transmission of address
001042 85ea      	LDD  R30,Y+10
001043 940e 2294 	CALL SUBOPT_0x1A
                 ;  TWCR = 0x84;//(1<<TWINT) | (1<<TWEN)
                 ;  if (wait_int()){ok=0; goto EXIT_read_clock;};
001045 f011      	BREQ _0x42
001046 e010      	LDI  R17,LOW(0)
001047 c075      	RJMP _0x40
                 _0x42:
                 ;  if ((TWSR & 0xF8) != MT_SLA_ACK){ok=0; goto EXIT_read_clock;};// This indicates that the ACKNOWLEDGE  has been riceive ...
001048 b1e1      	IN   R30,0x1
001049 7fe8      	ANDI R30,LOW(0xF8)
00104a 31e8      	CPI  R30,LOW(0x18)
00104b f011      	BREQ _0x43
00104c e010      	LDI  R17,LOW(0)
00104d c06f      	RJMP _0x40
                 _0x43:
                 ;  if ((devaddr&0xF0)==0xA0)//  Serial EEPROM   FIRST WORD ADDRESS  "0"
00104e 85ea      	LDD  R30,Y+10
00104f 7fe0      	ANDI R30,LOW(0xF0)
001050 3ae0      	CPI  R30,LOW(0xA0)
001051 f499      	BRNE _0x44
                 ;   {
                 ;    ok = address>>8;
001052 85e8      	LDD  R30,Y+8
001053 85f9      	LDD  R31,Y+8+1
001054 940e 2646 	CALL __ASRW8
001056 2f1e      	MOV  R17,R30
                 ;    TWDR = ok;//Load DATA into TWDR register. Clear TWINT bit in TWCR to start transmission of address
001057 b913      	OUT  0x3,R17
                 ;    ok = 1;
001058 e011      	LDI  R17,LOW(1)
                 ;    TWCR = 0x84;//(1<<TWINT) | (1<<TWEN)
001059 e8e4      	LDI  R30,LOW(132)
00105a 940e 228f 	CALL SUBOPT_0x19
                 ;    if (wait_int()){ok=0; goto EXIT_read_clock;};
00105c f011      	BREQ _0x45
00105d e010      	LDI  R17,LOW(0)
00105e c05e      	RJMP _0x40
                 _0x45:
                 ;    if ((TWSR & 0xF8) != MT_DATA_ACK){ok=0; goto EXIT_read_clock;};
00105f b1e1      	IN   R30,0x1
001060 7fe8      	ANDI R30,LOW(0xF8)
001061 32e8      	CPI  R30,LOW(0x28)
001062 f011      	BREQ _0x46
001063 e010      	LDI  R17,LOW(0)
001064 c058      	RJMP _0x40
                 _0x46:
                 ;   }
                 ;  TWDR = address;//Load DATA into TWDR register. Clear TWINT bit in TWCR to start transmission of address
                 _0x44:
001065 85e8      	LDD  R30,Y+8
001066 940e 2294 	CALL SUBOPT_0x1A
                 ;  TWCR = 0x84;//(1<<TWINT) | (1<<TWEN)
                 ;  if (wait_int()){ok=0; goto EXIT_read_clock;};
001068 f011      	BREQ _0x47
001069 e010      	LDI  R17,LOW(0)
00106a c052      	RJMP _0x40
                 _0x47:
                 ;  if ((TWSR & 0xF8) != MT_DATA_ACK){ok=0; goto EXIT_read_clock;};
00106b b1e1      	IN   R30,0x1
00106c 7fe8      	ANDI R30,LOW(0xF8)
00106d 32e8      	CPI  R30,LOW(0x28)
00106e f011      	BREQ _0x48
00106f e010      	LDI  R17,LOW(0)
001070 c04c      	RJMP _0x40
                 _0x48:
                 ;  TWCR = 0xA4;//(1<<TWINT)|(1<<TWSTA)|(TWEN) - Send REPEATED START condition
001071 eae4      	LDI  R30,LOW(164)
001072 940e 228f 	CALL SUBOPT_0x19
                 ;  if (wait_int()){ok=0; goto EXIT_read_clock;};
001074 f011      	BREQ _0x49
001075 e010      	LDI  R17,LOW(0)
001076 c046      	RJMP _0x40
                 _0x49:
                 ;  if ((TWSR & 0xF8) != REPIT_START_OK){ok=0; goto EXIT_read_clock;};
001077 b1e1      	IN   R30,0x1
001078 7fe8      	ANDI R30,LOW(0xF8)
001079 31e0      	CPI  R30,LOW(0x10)
00107a f011      	BREQ _0x4A
00107b e010      	LDI  R17,LOW(0)
00107c c040      	RJMP _0x40
                 _0x4A:
                 ;  TWDR = devaddr+1;//Load SLA_R into TWDR register. Clear TWINT bit in TWCR to start transmission of address
00107d 85ea      	LDD  R30,Y+10
00107e 5fef      	SUBI R30,-LOW(1)
00107f 940e 2294 	CALL SUBOPT_0x1A
                 ;  TWCR = 0x84;//(1<<TWINT) | (1<<TWEN)
                 ;  if (wait_int()){ok=0; goto EXIT_read_clock;};
001081 f011      	BREQ _0x4B
001082 e010      	LDI  R17,LOW(0)
001083 c039      	RJMP _0x40
                 _0x4B:
                 ;  if ((TWSR & 0xF8) != MR_SLA_ACK){ok=0; goto EXIT_read_clock;};
001084 b1e1      	IN   R30,0x1
001085 7fe8      	ANDI R30,LOW(0xF8)
001086 34e0      	CPI  R30,LOW(0x40)
001087 f011      	BREQ _0x4C
001088 e010      	LDI  R17,LOW(0)
001089 c033      	RJMP _0x40
                 _0x4C:
                 ;  if(byte>1)
00108a 81ac      	LDD  R26,Y+4
00108b 81bd      	LDD  R27,Y+4+1
00108c 9712      	SBIW R26,2
00108d f0fc      	BRLT _0x4D
                 ;   {
                 ;    for (tmpint=0; tmpint<byte-1; tmpint++)
                +
00108e e020     +LDI R18 , LOW ( 0 )
00108f e030     +LDI R19 , HIGH ( 0 )
                 	__GETWRN 18,19,0
                 _0x4F:
001090 81ec      	LDD  R30,Y+4
001091 81fd      	LDD  R31,Y+4+1
001092 9731      	SBIW R30,1
001093 172e      	CP   R18,R30
001094 073f      	CPC  R19,R31
001095 f4bc      	BRGE _0x50
                 ;     {
                 ;      TWCR = 0xC4;//(1<<TWINT) | (1<<TWEN) | (1<<TWEA) *!*!*!       TWINT   ...
001096 ece4      	LDI  R30,LOW(196)
001097 940e 228f 	CALL SUBOPT_0x19
                 ;      if (wait_int()){ok=0; goto EXIT_read_clock;};
001099 f011      	BREQ _0x51
00109a e010      	LDI  R17,LOW(0)
00109b c021      	RJMP _0x40
                 _0x51:
                 ;      if ((TWSR & 0xF8) != MR_DATA_ACK){ok=0; goto EXIT_read_clock;};
00109c b1e1      	IN   R30,0x1
00109d 7fe8      	ANDI R30,LOW(0xF8)
00109e 35e0      	CPI  R30,LOW(0x50)
00109f f011      	BREQ _0x52
0010a0 e010      	LDI  R17,LOW(0)
0010a1 c01b      	RJMP _0x40
                 _0x52:
                 ;      *data++ = TWDR;//Read DATA into TWDR register.
0010a2 81ae      	LDD  R26,Y+6
0010a3 81bf      	LDD  R27,Y+6+1
0010a4 9611      	ADIW R26,1
0010a5 83ae      	STD  Y+6,R26
0010a6 83bf      	STD  Y+6+1,R27
0010a7 9711      	SBIW R26,1
0010a8 b1e3      	IN   R30,0x3
0010a9 93ec      	ST   X,R30
                 ;     };
                +
0010aa 5f2f     +SUBI R18 , LOW ( - 1 )
0010ab 4f3f     +SBCI R19 , HIGH ( - 1 )
                 	__ADDWRN 18,19,1
0010ac cfe3      	RJMP _0x4F
                 _0x50:
                 ;   };
                 _0x4D:
                 ;  TWCR = 0x84;//(1<<TWINT) | (1<<TWEN)
0010ad e8e4      	LDI  R30,LOW(132)
0010ae 940e 228f 	CALL SUBOPT_0x19
                 ;  if (wait_int()){ok=0; goto EXIT_read_clock;};
0010b0 f011      	BREQ _0x53
0010b1 e010      	LDI  R17,LOW(0)
0010b2 c00a      	RJMP _0x40
                 _0x53:
                 ;  if ((TWSR & 0xF8) != MR_DATA_NOT_ACK){ok=0; goto EXIT_read_clock;};
0010b3 b1e1      	IN   R30,0x1
0010b4 7fe8      	ANDI R30,LOW(0xF8)
0010b5 35e8      	CPI  R30,LOW(0x58)
0010b6 f011      	BREQ _0x54
0010b7 e010      	LDI  R17,LOW(0)
0010b8 c004      	RJMP _0x40
                 _0x54:
                 ;  *data = TWDR;//Read DATA into TWDR register.
0010b9 b1e3      	IN   R30,0x3
0010ba 81ae      	LDD  R26,Y+6
0010bb 81bf      	LDD  R27,Y+6+1
0010bc 93ec      	ST   X,R30
                 ;EXIT_read_clock:
                 _0x40:
                 ;  TWCR = 0x94;//(1<<TWINT)|(1<<TWEN)|(1<<TWSTO) - Transmit STOP condition
0010bd e9e4      	LDI  R30,LOW(148)
0010be bfe6      	OUT  0x36,R30
                 ;  return ok;
0010bf 2fe1      	MOV  R30,R17
0010c0 940e 275b 	CALL __LOADLOCR4
0010c2 c1b6      	RJMP _0x20C000A
                 ;}
                 ; .FEND
                 ;
                 ;unsigned char write_TWI(char devaddr, int address, char *data, char byte)
                 ;{
                 _write_TWI:
                 ; .FSTART _write_TWI
                 ; unsigned char i, ok=1;
                 ;  TWCR = 0xA4;//(1<<TWINT)|(1<<TWSTA)|(TWEN) - Send START condition
0010c3 93aa      	ST   -Y,R26
0010c4 931a      	ST   -Y,R17
0010c5 930a      	ST   -Y,R16
                 ;	devaddr -> Y+7
                 ;	address -> Y+5
                 ;	*data -> Y+3
                 ;	byte -> Y+2
                 ;	i -> R17
                 ;	ok -> R16
0010c6 e001      	LDI  R16,1
0010c7 eae4      	LDI  R30,LOW(164)
0010c8 bfe6      	OUT  0x36,R30
                 ;  while (!(TWCR & 0x80));//Wait for TWINT flag set. This indicates that the START condition has been transmitted
                 _0x55:
0010c9 b7e6      	IN   R30,0x36
0010ca 78e0      	ANDI R30,LOW(0x80)
0010cb f3e9      	BREQ _0x55
                 ;  if ((TWSR & 0xF8) != START_OK){ok=0; goto EXIT_write_clock;};
0010cc b1e1      	IN   R30,0x1
0010cd 7fe8      	ANDI R30,LOW(0xF8)
0010ce 30e8      	CPI  R30,LOW(0x8)
0010cf f011      	BREQ _0x58
0010d0 e000      	LDI  R16,LOW(0)
0010d1 c047      	RJMP _0x59
                 _0x58:
                 ;  TWDR = devaddr+0;//Load SLA_W into TWDR register. Clear TWINT bit in TWCR to start transmission of address
0010d2 81ef      	LDD  R30,Y+7
0010d3 b9e3      	OUT  0x3,R30
                 ;  TWCR = 0x84;//(1<<TWINT) | (1<<TWEN)
0010d4 e8e4      	LDI  R30,LOW(132)
0010d5 bfe6      	OUT  0x36,R30
                 ;  while (!(TWCR & 0x80));//Wait for TWINT flag set. This indicates that the START condition has been transmitted
                 _0x5A:
0010d6 b7e6      	IN   R30,0x36
0010d7 78e0      	ANDI R30,LOW(0x80)
0010d8 f3e9      	BREQ _0x5A
                 ;  if ((TWSR & 0xF8) != MT_SLA_ACK){ok=0; goto EXIT_write_clock;};
0010d9 b1e1      	IN   R30,0x1
0010da 7fe8      	ANDI R30,LOW(0xF8)
0010db 31e8      	CPI  R30,LOW(0x18)
0010dc f011      	BREQ _0x5D
0010dd e000      	LDI  R16,LOW(0)
0010de c03a      	RJMP _0x59
                 _0x5D:
                 ;  if ((devaddr&0xF0)==0xA0)//  Serial EEPROM   FIRST WORD ADDRESS  "0"
0010df 81ef      	LDD  R30,Y+7
0010e0 7fe0      	ANDI R30,LOW(0xF0)
0010e1 3ae0      	CPI  R30,LOW(0xA0)
0010e2 f491      	BRNE _0x5E
                 ;   {
                 ;    ok = address>>8;
0010e3 81ed      	LDD  R30,Y+5
0010e4 81fe      	LDD  R31,Y+5+1
0010e5 940e 2646 	CALL __ASRW8
0010e7 2f0e      	MOV  R16,R30
                 ;    TWDR = ok;//Load DATA into TWDR register. Clear TWINT bit in TWCR to start transmission of address
0010e8 b903      	OUT  0x3,R16
                 ;    ok = 1;
0010e9 e001      	LDI  R16,LOW(1)
                 ;    TWCR = 0x84;//(1<<TWINT) | (1<<TWEN)
0010ea e8e4      	LDI  R30,LOW(132)
0010eb bfe6      	OUT  0x36,R30
                 ;    while (!(TWCR & 0x80));//Wait for TWINT flag set. This indicates that the START condition has been transmitted
                 _0x5F:
0010ec b7e6      	IN   R30,0x36
0010ed 78e0      	ANDI R30,LOW(0x80)
0010ee f3e9      	BREQ _0x5F
                 ;    if ((TWSR & 0xF8) != MT_DATA_ACK){ok=0; goto EXIT_write_clock;};
0010ef b1e1      	IN   R30,0x1
0010f0 7fe8      	ANDI R30,LOW(0xF8)
0010f1 32e8      	CPI  R30,LOW(0x28)
0010f2 f011      	BREQ _0x62
0010f3 e000      	LDI  R16,LOW(0)
0010f4 c024      	RJMP _0x59
                 _0x62:
                 ;   }
                 ;  TWDR = address;//Load DATA into TWDR register. Clear TWINT bit in TWCR to start transmission of address
                 _0x5E:
0010f5 81ed      	LDD  R30,Y+5
0010f6 b9e3      	OUT  0x3,R30
                 ;  TWCR = 0x84;//(1<<TWINT) | (1<<TWEN)
0010f7 e8e4      	LDI  R30,LOW(132)
0010f8 bfe6      	OUT  0x36,R30
                 ;  while (!(TWCR & 0x80));//Wait for TWINT flag set. This indicates that the START condition has been transmitted
                 _0x63:
0010f9 b7e6      	IN   R30,0x36
0010fa 78e0      	ANDI R30,LOW(0x80)
0010fb f3e9      	BREQ _0x63
                 ;  if ((TWSR & 0xF8) != MT_DATA_ACK){ok=0; goto EXIT_write_clock;};
0010fc b1e1      	IN   R30,0x1
0010fd 7fe8      	ANDI R30,LOW(0xF8)
0010fe 32e8      	CPI  R30,LOW(0x28)
0010ff f011      	BREQ _0x66
001100 e000      	LDI  R16,LOW(0)
001101 c017      	RJMP _0x59
                 _0x66:
                 ;  for (i=0; i<byte; i++)
001102 e010      	LDI  R17,LOW(0)
                 _0x68:
001103 81ea      	LDD  R30,Y+2
001104 171e      	CP   R17,R30
001105 f498      	BRSH _0x69
                 ;  {
                 ;    TWDR = *data++;//Load DATA into TWDR register.
001106 81ab      	LDD  R26,Y+3
001107 81bc      	LDD  R27,Y+3+1
001108 91ed      	LD   R30,X+
001109 83ab      	STD  Y+3,R26
00110a 83bc      	STD  Y+3+1,R27
00110b b9e3      	OUT  0x3,R30
                 ;    TWCR = 0x84;//(1<<TWINT) | (1<<TWEN)
00110c e8e4      	LDI  R30,LOW(132)
00110d bfe6      	OUT  0x36,R30
                 ;    //if (wait_int()) goto EXIT_write_clock;
                 ;    while (!(TWCR & 0x80));//Wait for TWINT flag set. This indicates that the START condition has been transmitted
                 _0x6A:
00110e b7e6      	IN   R30,0x36
00110f 78e0      	ANDI R30,LOW(0x80)
001110 f3e9      	BREQ _0x6A
                 ;    if ((TWSR & 0xF8) != MT_DATA_ACK){ok=0; goto EXIT_write_clock;};
001111 b1e1      	IN   R30,0x1
001112 7fe8      	ANDI R30,LOW(0xF8)
001113 32e8      	CPI  R30,LOW(0x28)
001114 f011      	BREQ _0x6D
001115 e000      	LDI  R16,LOW(0)
001116 c002      	RJMP _0x59
                 _0x6D:
                 ;  }
001117 5f1f      	SUBI R17,-1
001118 cfea      	RJMP _0x68
                 _0x69:
                 ;EXIT_write_clock:
                 _0x59:
                 ;  TWCR = 0x94;//(1<<TWINT)|(1<<TWEN)|(1<<TWSTO) - Transmit STOP condition
001119 e9e4      	LDI  R30,LOW(148)
00111a bfe6      	OUT  0x36,R30
                 ;  return ok;
00111b 2fe0      	MOV  R30,R16
00111c 8119      	LDD  R17,Y+1
00111d 8108      	LDD  R16,Y+0
00111e c2b6      	RJMP _0x20C0007
                 ;}
                 ; .FEND
                 ;/*
                 ;void wait_clock(unsigned char m)    //Wait for TWINT flag set. This indicates that the START condition has been transmit ...
                 ;{
                 ; unsigned char count=0, err=0;
                 ; do
                 ;   {
                 ;     if (m) err = write_clock(clock_buffer);
                 ;     else err = read_clock();
                 ;     count++;
                 ;   } while (sec==1 && count<5);
                 ;}
                 ;*/
                 ;#include "dht.c"
                 ;#define dhtport PORTB.0
                 ;#define dhtddr DDRB.0
                 ;#define dhtpin PINB.0
                 ;
                 ;unsigned char startDHT(void){
                 ; 0000 0059 unsigned char startDHT(void){
                 _startDHT:
                 ; .FSTART _startDHT
                 ;   unsigned char flag=0;
                 ;   dhtport = 0;
00111f 931a      	ST   -Y,R17
                 ;	flag -> R17
001120 e010      	LDI  R17,0
001121 98c0      	CBI  0x18,0
                 ;   dhtddr = 1;   // MCU pull down
001122 9ab8      	SBI  0x17,0
                 ;   if(typeS) delay_ms(30); // MCU Sends out Start Signal to DHT and pull down voltage for at least 18ms to let DHT11 det ...
001123 fe25      	SBRS R2,5
001124 c002      	RJMP _0x72
001125 e1ae      	LDI  R26,LOW(30)
001126 c001      	RJMP _0x27A
                 ;   else delay_ms(10); // MCU Sends out Start Signal to DHT and pull down voltage for at least 18ms to let DHT21 detect t ...
                 _0x72:
001127 e0aa      	LDI  R26,LOW(10)
                 _0x27A:
001128 e0b0      	LDI  R27,0
001129 940e 2535 	CALL _delay_ms
                 ;   dhtddr = 0;   // MCU pull up
00112b 98b8      	CBI  0x17,0
                 ;   delay_us(60); // wait for DHT respond 20-40uS
                +
00112c ef80     +LDI R24 , LOW ( 240 )
00112d e090     +LDI R25 , HIGH ( 240 )
                +__DELAY_USW_LOOP :
00112e 9701     +SBIW R24 , 1
00112f f7f1     +BRNE __DELAY_USW_LOOP
                 	__DELAY_USW 240
                 ;   if(!dhtpin){
001130 99b0      	SBIC 0x16,0
001131 c013      	RJMP _0x76
                 ;      while(!dhtpin) {flag++;} // low-voltage-level response signal & keeps it for 80us (flag=32 Response to low time fi ...
                 _0x77:
001132 99b0      	SBIC 0x16,0
001133 c002      	RJMP _0x79
001134 5f1f      	SUBI R17,-1
001135 cffc      	RJMP _0x77
                 _0x79:
                 ;      if(flag<10) return 0;
001136 301a      	CPI  R17,10
001137 f410      	BRSH _0x7A
001138 e0e0      	LDI  R30,LOW(0)
001139 c00c      	RJMP _0x20C000C
                 ;      else {flag=0; while(dhtpin) {flag++;}}  // hi-voltage-level response signal & keeps it for 80us (flag=55 Response  ...
                 _0x7A:
00113a e010      	LDI  R17,LOW(0)
                 _0x7C:
00113b 9bb0      	SBIS 0x16,0
00113c c002      	RJMP _0x7E
00113d 5f1f      	SUBI R17,-1
00113e cffc      	RJMP _0x7C
                 _0x7E:
                 ;      if(flag<10) return 0;
00113f 301a      	CPI  R17,10
001140 f410      	BRSH _0x7F
001141 e0e0      	LDI  R30,LOW(0)
001142 c003      	RJMP _0x20C000C
                 ;      else return 1;
                 _0x7F:
001143 e0e1      	LDI  R30,LOW(1)
001144 c001      	RJMP _0x20C000C
                 ;   }
                 ;   else return 0;
                 _0x76:
001145 e0e0      	LDI  R30,LOW(0)
                 ;}
                 _0x20C000C:
001146 9119      	LD   R17,Y+
001147 9508      	RET
                 ; .FEND
                 ;
                 ;unsigned char readDHT(void){
                 _readDHT:
                 ; .FSTART _readDHT
                 ; unsigned char i, j, flag=0, tem[5];
                 ; unsigned int tempRH;
                 ; static unsigned char err;
                 ; if(startDHT()){
001148 9725      	SBIW R28,5
001149 940e 2752 	CALL __SAVELOCR6
                 ;	i -> R17
                 ;	j -> R16
                 ;	flag -> R19
                 ;	tem -> Y+6
                 ;	tempRH -> R20,R21
00114b e030      	LDI  R19,0
00114c dfd2      	RCALL _startDHT
00114d 30e0      	CPI  R30,0
00114e f409      	BRNE PC+2
00114f c092      	RJMP _0x82
                 ;    for(i=0; i<5; i++){
001150 e010      	LDI  R17,LOW(0)
                 _0x84:
001151 3015      	CPI  R17,5
001152 f528      	BRSH _0x85
                 ;       tem[i]=0;
001153 940e 2297 	CALL SUBOPT_0x1B
001155 e0e0      	LDI  R30,LOW(0)
001156 93ec      	ST   X,R30
                 ;       for(j=0; j<8; j++){
001157 e000      	LDI  R16,LOW(0)
                 _0x87:
001158 3008      	CPI  R16,8
001159 f4e0      	BRSH _0x88
                 ;          tem[i]<<= 1;
00115a 940e 2297 	CALL SUBOPT_0x1B
00115c 91ec      	LD   R30,X
00115d 0fee      	LSL  R30
00115e 93ec      	ST   X,R30
                 ;          #asm("cli")     // Global enable interrupts
00115f 94f8      	cli
                 ;//        delay_us(30);   // When DHT is sending data to MCU, every bit of data begins with the 50us low-voltage-level
                 ;                          // and the length of the following high-voltage-level signal determines whether data bit is "0 ...
                 ;          while(!dhtpin) {flag++;}//   
                 _0x89:
001160 99b0      	SBIC 0x16,0
001161 c002      	RJMP _0x8B
001162 5f3f      	SUBI R19,-1
001163 cffc      	RJMP _0x89
                 _0x8B:
                 ;          delay_us(32);   //26-28u voltage-length means data "0" / 70u voltage-length means data "1"
                +
001164 ea8b     +LDI R24 , LOW ( 171 )
                +__DELAY_USB_LOOP :
001165 958a     +DEC R24
001166 f7f1     +BRNE __DELAY_USB_LOOP
                 	__DELAY_USB 171
                 ;          flag=0;
001167 e030      	LDI  R19,LOW(0)
                 ;          while(dhtpin) {flag++;}//   
                 _0x8C:
001168 9bb0      	SBIS 0x16,0
001169 c002      	RJMP _0x8E
00116a 5f3f      	SUBI R19,-1
00116b cffc      	RJMP _0x8C
                 _0x8E:
                 ;          if(flag>10) tem[i]|= 1;// data "1"
00116c 303b      	CPI  R19,11
00116d f028      	BRLO _0x8F
00116e 940e 2297 	CALL SUBOPT_0x1B
001170 91ec      	LD   R30,X
001171 60e1      	ORI  R30,1
001172 93ec      	ST   X,R30
                 ;          #asm("sei")     // Global enable interrupts
                 _0x8F:
001173 9478      	sei
                 ;       };
001174 5f0f      	SUBI R16,-1
001175 cfe2      	RJMP _0x87
                 _0x88:
                 ;    };
001176 5f1f      	SUBI R17,-1
001177 cfd9      	RJMP _0x84
                 _0x85:
                 ;    flag=tem[0]+tem[1]+tem[2]+tem[3];
001178 81ef      	LDD  R30,Y+7
001179 81ae      	LDD  R26,Y+6
00117a 0fea      	ADD  R30,R26
00117b 85a8      	LDD  R26,Y+8
00117c 0fea      	ADD  R30,R26
00117d 85a9      	LDD  R26,Y+9
00117e 0fea      	ADD  R30,R26
00117f 2f3e      	MOV  R19,R30
                 ;    if(flag==tem[4]){
001180 85ea      	LDD  R30,Y+10
001181 17e3      	CP   R30,R19
001182 f009      	BREQ PC+2
001183 c054      	RJMP _0x90
                 ;      if(typeS) {tempRH =(int)tem[0]*10; pvT =(int)tem[2]*10;}            // Other = 1 -> DHT11
001184 fe25      	SBRS R2,5
001185 c008      	RJMP _0x91
001186 81ae      	LDD  R26,Y+6
001187 e0ea      	LDI  R30,LOW(10)
001188 9fea      	MUL  R30,R26
001189 01a0      	MOVW R20,R0
00118a 85a8      	LDD  R26,Y+8
00118b 9fea      	MUL  R30,R26
00118c 01f0      	MOVW R30,R0
00118d c00f      	RJMP _0x27B
                 ;      else {tempRH =(int)tem[0]*256+tem[1]; pvT =(int)tem[2]*256+tem[3];} // Other = 0 -> DHT21
                 _0x91:
00118e 81ae      	LDD  R26,Y+6
00118f 940e 229e 	CALL SUBOPT_0x1C
001191 81ef      	LDD  R30,Y+7
001192 e0f0      	LDI  R31,0
001193 0fea      	ADD  R30,R26
001194 1ffb      	ADC  R31,R27
001195 01af      	MOVW R20,R30
001196 85a8      	LDD  R26,Y+8
001197 940e 229e 	CALL SUBOPT_0x1C
001199 85e9      	LDD  R30,Y+9
00119a e0f0      	LDI  R31,0
00119b 0fea      	ADD  R30,R26
00119c 1ffb      	ADC  R31,R27
                 _0x27B:
00119d 93e0 03c6 	STS  _pvT,R30
00119f 93f0 03c7 	STS  _pvT+1,R31
                 ;      pvT  += offsetT;
0011a1 91e0 03c8 	LDS  R30,_offsetT
0011a3 91f0 03c9 	LDS  R31,_offsetT+1
0011a5 91a0 03c6 	LDS  R26,_pvT
0011a7 91b0 03c7 	LDS  R27,_pvT+1
0011a9 0fea      	ADD  R30,R26
0011aa 1ffb      	ADC  R31,R27
0011ab 93e0 03c6 	STS  _pvT,R30
0011ad 93f0 03c7 	STS  _pvT+1,R31
                 ;      pvRH = tempRH/10;
0011af 01da      	MOVW R26,R20
0011b0 e0ea      	LDI  R30,LOW(10)
0011b1 e0f0      	LDI  R31,HIGH(10)
0011b2 940e 2682 	CALL __DIVW21U
0011b4 940e 22a5 	CALL SUBOPT_0x1D
                 ;      pvRH += offsetRH;                  //   
0011b6 91e0 03cc 	LDS  R30,_offsetRH
0011b8 91f0 03cd 	LDS  R31,_offsetRH+1
0011ba 940e 22aa 	CALL SUBOPT_0x1E
0011bc 0fea      	ADD  R30,R26
0011bd 1ffb      	ADC  R31,R27
0011be 940e 22a5 	CALL SUBOPT_0x1D
                 ;      err = 0;
0011c0 e0e0      	LDI  R30,LOW(0)
0011c1 93e0 03fc 	STS  _err_S0000013000,R30
                 ;      if(pvRH>100) pvRH=100; else if (pvRH<1) pvRH=1;
0011c3 940e 22aa 	CALL SUBOPT_0x1E
0011c5 36a5      	CPI  R26,LOW(0x65)
0011c6 e0e0      	LDI  R30,HIGH(0x65)
0011c7 07be      	CPC  R27,R30
0011c8 f01c      	BRLT _0x93
0011c9 e6e4      	LDI  R30,LOW(100)
0011ca e0f0      	LDI  R31,HIGH(100)
0011cb c006      	RJMP _0x27C
                 _0x93:
0011cc 940e 22aa 	CALL SUBOPT_0x1E
0011ce 9711      	SBIW R26,1
0011cf f434      	BRGE _0x95
0011d0 e0e1      	LDI  R30,LOW(1)
0011d1 e0f0      	LDI  R31,HIGH(1)
                 _0x27C:
0011d2 93e0 03ca 	STS  _pvRH,R30
0011d4 93f0 03cb 	STS  _pvRH+1,R31
                 ;      return 1;
                 _0x95:
0011d6 e0e1      	LDI  R30,LOW(1)
0011d7 c09f      	RJMP _0x20C0009
                 ;    }
                 ;    else if(++err>3) return 0;  //   CRC    errors |=0x10;
                 _0x90:
0011d8 91a0 03fc 	LDS  R26,_err_S0000013000
0011da 5faf      	SUBI R26,-LOW(1)
0011db 93a0 03fc 	STS  _err_S0000013000,R26
0011dd 30a4      	CPI  R26,LOW(0x4)
0011de f010      	BRLO _0x97
0011df e0e0      	LDI  R30,LOW(0)
0011e0 c096      	RJMP _0x20C0009
                 ; }
                 _0x97:
                 ; else return 0;     //   
0011e1 c002      	RJMP _0x98
                 _0x82:
0011e2 e0e0      	LDI  R30,LOW(0)
0011e3 c093      	RJMP _0x20C0009
                 ;}
                 _0x98:
0011e4 c092      	RJMP _0x20C0009
                 ; .FEND
                 ;#include "buttons.c"
                 ;#define YP_DIR          DDRA.TFT_WRX   // TFT_WRX=6
                 ;#define YP_PORT         PORTA.TFT_WRX  // TFT_WRX=6
                 ;#define YP_PIN          TFT_WRX        // = 6
                 ;
                 ;#define YM_DIR          DDRC.7
                 ;#define YM_PORT         PORTC.7
                 ;
                 ;#define XP_DIR          DDRC.6
                 ;#define XP_PORT         PORTC.6
                 ;
                 ;#define XM_DIR          DDRA.TFT_DCX   // TFT_DCX=5
                 ;#define XM_PORT         PORTA.TFT_DCX  // TFT_DCX=5
                 ;#define XM_PIN          TFT_DCX        // = 5
                 ;
                 ;#define MINPRESSURE     10
                 ;#define MAXPRESSURE     1000
                 ;#define INPUT           0
                 ;#define OUTPUT          1
                 ;#define LOW             0
                 ;#define HIGH            1
                 ;
                 ;#define TS_MINX        125
                 ;#define TS_MAXX        907
                 ;#define TS_MINY        130
                 ;#define TS_MAXY        935
                 ;
                 ;unsigned char buttonCount, plusCount;
                 ;unsigned int point_X, point_Y, point_Z, bottom_Y, left_X;
                 ;struct ram_structure {int x,y; char w,h;} buttons[4];// Global structure located in RAM
                 ;struct {int x,y; char w,h;} plus[8];// Global structure located in RAM
                 ;
                 ;// Read the AD conversion result
                 ;unsigned int read_adc(unsigned char adc_input)
                 ; 0000 005A {
                 _read_adc:
                 ; .FSTART _read_adc
                 ;adc_input |= (ADC_VREF_TYPE & 0xff);
0011e5 93aa      	ST   -Y,R26
                 ;	adc_input -> Y+0
0011e6 81e8      	LD   R30,Y
0011e7 64e0      	ORI  R30,0x40
0011e8 83e8      	ST   Y,R30
                 ;ADMUX=adc_input;
0011e9 b9e7      	OUT  0x7,R30
                 ;// Delay needed for the stabilization of the ADC input voltage
                 ;delay_us(10);
                +
0011ea e385     +LDI R24 , LOW ( 53 )
                +__DELAY_USB_LOOP :
0011eb 958a     +DEC R24
0011ec f7f1     +BRNE __DELAY_USB_LOOP
                 	__DELAY_USB 53
                 ;// Start the AD conversion
                 ;ADCSRA|=0x40;
0011ed 9a36      	SBI  0x6,6
                 ;// Wait for the AD conversion to complete
                 ;while ((ADCSRA & 0x10)==0);
                 _0x99:
0011ee 9b34      	SBIS 0x6,4
0011ef cffe      	RJMP _0x99
                 ;ADCSRA|=0x10;
0011f0 9a34      	SBI  0x6,4
                 ;return ADCW;
0011f1 b1e4      	IN   R30,0x4
0011f2 b1f5      	IN   R31,0x4+1
                 _0x20C000B:
0011f3 9621      	ADIW R28,1
0011f4 9508      	RET
                 ;}
                 ; .FEND
                 ;
                 ;void initializePlus(char y, char row, char h){//  
                 ; char i,j,indx, w=40, col=2;
                 ; unsigned int x;
                 ;  if(h<14) h=14;
                 ;	y -> Y+10
                 ;	row -> Y+9
                 ;	h -> Y+8
                 ;	i -> R17
                 ;	j -> R16
                 ;	indx -> R19
                 ;	w -> R18
                 ;	col -> R21
                 ;	x -> Y+6
                 ;  y = y - 4;      // Y   
                 ;  indx = 0;
                 ;  for (j=0; j<row; j++){
                 ;    x = TFTWIDTH-90;// X  1 
                 ;#pragma warn-
                 ;    for (i=0; i<col; i++){
                 ;        plus[indx].x = x+i*(w+5);//   
                 ;        plus[indx].w = w;
                 ;        plus[indx].h = h;
                 ;        plus[indx].y = y;
                 ;        indx++;
                 ;    }
                 ;    y += (h+6);//   
                 ;#pragma warn+
                 ;  }
                 ;  left_X = x;//       
                 ;  plusCount = col * row;//   
                 ;}
                 ;
                 ;void initializeButtons(char col, char row, char h){//  
                 _initializeButtons:
                 ; .FSTART _initializeButtons
                 ; char i,j,indx, w;
                 ; unsigned int x,y;
                 ;  switch (col)                  //     -   
0011f5 93aa      	ST   -Y,R26
0011f6 9722      	SBIW R28,2
0011f7 940e 2752 	CALL __SAVELOCR6
                 ;	col -> Y+10
                 ;	row -> Y+9
                 ;	h -> Y+8
                 ;	i -> R17
                 ;	j -> R16
                 ;	indx -> R19
                 ;	w -> R18
                 ;	x -> R20,R21
                 ;	y -> Y+6
0011f9 85ea      	LDD  R30,Y+10
0011fa e0f0      	LDI  R31,0
                 ;   {
                 ;    case 4: w = max_X/4-6; break;  // 72
0011fb 30e4      	CPI  R30,LOW(0x4)
0011fc e0a0      	LDI  R26,HIGH(0x4)
0011fd 07fa      	CPC  R31,R26
0011fe f429      	BRNE _0xA6
0011ff 940e 22af 	CALL SUBOPT_0x1F
001201 940e 2641 	CALL __LSRW2
001203 c017      	RJMP _0x27D
                 ;    case 3: w = max_X/3-6; break;  // 100
                 _0xA6:
001204 30e3      	CPI  R30,LOW(0x3)
001205 e0a0      	LDI  R26,HIGH(0x3)
001206 07fa      	CPC  R31,R26
001207 f439      	BRNE _0xA7
001208 940e 2285 	CALL SUBOPT_0x17
00120a e0e3      	LDI  R30,LOW(3)
00120b e0f0      	LDI  R31,HIGH(3)
00120c 940e 2682 	CALL __DIVW21U
00120e c00c      	RJMP _0x27D
                 ;    case 2: w = max_X/2-9; break;  // 150
                 _0xA7:
00120f 30e2      	CPI  R30,LOW(0x2)
001210 e0a0      	LDI  R26,HIGH(0x2)
001211 07fa      	CPC  R31,R26
001212 f431      	BRNE _0xA9
001213 940e 22af 	CALL SUBOPT_0x1F
001215 95f6      	LSR  R31
001216 95e7      	ROR  R30
001217 50e9      	SUBI R30,LOW(9)
001218 c003      	RJMP _0x27E
                 ;    default: w = max_X-6;
                 _0xA9:
001219 91e0 03c0 	LDS  R30,_max_X
                 _0x27D:
00121b 50e6      	SUBI R30,LOW(6)
                 _0x27E:
00121c 2f2e      	MOV  R18,R30
                 ;   };
                 ;  if(h<20) h=20;
00121d 85a8      	LDD  R26,Y+8
00121e 31a4      	CPI  R26,LOW(0x14)
00121f f410      	BRSH _0xAA
001220 e1e4      	LDI  R30,LOW(20)
001221 87e8      	STD  Y+8,R30
                 ;  y = max_Y - h - 4;      //   
                 _0xAA:
001222 85e8      	LDD  R30,Y+8
001223 e0f0      	LDI  R31,0
001224 940e 228a 	CALL SUBOPT_0x18
001226 1bae      	SUB  R26,R30
001227 0bbf      	SBC  R27,R31
001228 9714      	SBIW R26,4
001229 83ae      	STD  Y+6,R26
00122a 83bf      	STD  Y+6+1,R27
                 ;  indx = 0;
00122b e030      	LDI  R19,LOW(0)
                 ;  for (j=0; j<row; j++){
00122c e000      	LDI  R16,LOW(0)
                 _0xAC:
00122d 85e9      	LDD  R30,Y+9
00122e 170e      	CP   R16,R30
00122f f5d8      	BRSH _0xAD
                 ;    x = 4;//  1 
                +
001230 e044     +LDI R20 , LOW ( 4 )
001231 e050     +LDI R21 , HIGH ( 4 )
                 	__GETWRN 20,21,4
                 ;    #pragma warn-
                 ;    for (i=0; i<col; i++){
001232 e010      	LDI  R17,LOW(0)
                 _0xAF:
001233 85ea      	LDD  R30,Y+10
001234 171e      	CP   R17,R30
001235 f550      	BRSH _0xB0
                 ;        buttons[indx].x = x+i*(w+5);//   
001236 e0a6      	LDI  R26,LOW(6)
001237 9f3a      	MUL  R19,R26
001238 01f0      	MOVW R30,R0
001239 5fe7      	SUBI R30,LOW(-_buttons)
00123a 4ffb      	SBCI R31,HIGH(-_buttons)
00123b 01bf      	MOVW R22,R30
00123c 2fa1      	MOV  R26,R17
00123d 27bb      	CLR  R27
00123e 2fe2      	MOV  R30,R18
00123f e0f0      	LDI  R31,0
001240 9635      	ADIW R30,5
001241 940e 2678 	CALL __MULW12
001243 0fe4      	ADD  R30,R20
001244 1ff5      	ADC  R31,R21
001245 01db      	MOVW R26,R22
001246 93ed      	ST   X+,R30
001247 93fc      	ST   X,R31
                 ;        buttons[indx].w = w;
001248 e0a6      	LDI  R26,LOW(6)
001249 9f3a      	MUL  R19,R26
00124a 01f0      	MOVW R30,R0
                +
00124b 5fe3     +SUBI R30 , LOW ( - _buttons - ( 4 ) )
00124c 4ffb     +SBCI R31 , HIGH ( - _buttons - ( 4 ) )
                 	__ADDW1MN _buttons,4
00124d 8320      	ST   Z,R18
                 ;        buttons[indx].h = h;
00124e 9f3a      	MUL  R19,R26
00124f 01f0      	MOVW R30,R0
                +
001250 5fe2     +SUBI R30 , LOW ( - _buttons - ( 5 ) )
001251 4ffb     +SBCI R31 , HIGH ( - _buttons - ( 5 ) )
                 	__ADDW1MN _buttons,5
001252 85a8      	LDD  R26,Y+8
001253 83a0      	STD  Z+0,R26
                 ;        buttons[indx].y = y;
001254 e0a6      	LDI  R26,LOW(6)
001255 9f3a      	MUL  R19,R26
001256 01f0      	MOVW R30,R0
                +
001257 5fe5     +SUBI R30 , LOW ( - _buttons - ( 2 ) )
001258 4ffb     +SBCI R31 , HIGH ( - _buttons - ( 2 ) )
                 	__ADDW1MN _buttons,2
001259 81ae      	LDD  R26,Y+6
00125a 81bf      	LDD  R27,Y+6+1
00125b 83a0      	STD  Z+0,R26
00125c 83b1      	STD  Z+1,R27
                 ;        indx++;
00125d 5f3f      	SUBI R19,-1
                 ;    }
00125e 5f1f      	SUBI R17,-1
00125f cfd3      	RJMP _0xAF
                 _0xB0:
                 ;    y -= (h+5);//   
001260 85e8      	LDD  R30,Y+8
001261 e0f0      	LDI  R31,0
001262 9635      	ADIW R30,5
001263 81ae      	LDD  R26,Y+6
001264 81bf      	LDD  R27,Y+6+1
001265 1bae      	SUB  R26,R30
001266 0bbf      	SBC  R27,R31
001267 83ae      	STD  Y+6,R26
001268 83bf      	STD  Y+6+1,R27
                 ;    #pragma warn+
                 ;  }
001269 5f0f      	SUBI R16,-1
00126a cfc2      	RJMP _0xAC
                 _0xAD:
                 ;  bottom_Y = y;//        
00126b 81ee      	LDD  R30,Y+6
00126c 81ff      	LDD  R31,Y+6+1
00126d 93e0 0405 	STS  _bottom_Y,R30
00126f 93f0 0406 	STS  _bottom_Y+1,R31
                 ;  buttonCount = col * row;//   
001271 85e9      	LDD  R30,Y+9
001272 85aa      	LDD  R26,Y+10
001273 02ea      	MULS R30,R26
001274 01f0      	MOVW R30,R0
001275 93e0 03fd 	STS  _buttonCount,R30
                 ;}
                 _0x20C0009:
001277 940e 2759 	CALL __LOADLOCR6
                 _0x20C000A:
001279 962b      	ADIW R28,11
00127a 9508      	RET
                 ; .FEND
                 ;//----------------   -------   --------   ---  ---  ---------
                 ;void drawButton(unsigned int fill, unsigned int bord, unsigned int text, char b, char flash *str){
                 _drawButton:
                 ; .FSTART _drawButton
                 ; int x, y, w, h;//, r;
                 ;   w = buttons[b].w;      //  
00127b 93ba      	ST   -Y,R27
00127c 93aa      	ST   -Y,R26
00127d 9722      	SBIW R28,2
00127e 940e 2752 	CALL __SAVELOCR6
                 ;	fill -> Y+15
                 ;	bord -> Y+13
                 ;	text -> Y+11
                 ;	b -> Y+10
                 ;	*str -> Y+8
                 ;	x -> R16,R17
                 ;	y -> R18,R19
                 ;	w -> R20,R21
                 ;	h -> Y+6
001280 940e 22b4 	CALL SUBOPT_0x20
                +
001282 5fe3     +SUBI R30 , LOW ( - _buttons - ( 4 ) )
001283 4ffb     +SBCI R31 , HIGH ( - _buttons - ( 4 ) )
                 	__ADDW1MN _buttons,4
001284 8140      	LD   R20,Z
001285 2755      	CLR  R21
                 ;   h = buttons[b].h;      //  
001286 940e 22b4 	CALL SUBOPT_0x20
001288 940e 22b9 	CALL SUBOPT_0x21
00128a 83ee      	STD  Y+6,R30
00128b 83ff      	STD  Y+6+1,R31
                 ;   x = buttons[b].x;      //   
00128c 940e 22b4 	CALL SUBOPT_0x20
00128e 5fe7      	SUBI R30,LOW(-_buttons)
00128f 4ffb      	SBCI R31,HIGH(-_buttons)
001290 8100      	LD   R16,Z
001291 8111      	LDD  R17,Z+1
                 ;   y = buttons[b].y;      //   
001292 940e 22b4 	CALL SUBOPT_0x20
                +
001294 5fe5     +SUBI R30 , LOW ( - _buttons - ( 2 ) )
001295 4ffb     +SBCI R31 , HIGH ( - _buttons - ( 2 ) )
                 	__ADDW1MN _buttons,2
001296 8120      	LD   R18,Z
001297 8131      	LDD  R19,Z+1
                 ;//   r = min(w,h)/4;
                 ;   //TFT_FillRoundRect(x, y, w, h, r, fill);
                 ;   ILI9341_FillRectangle(x, y, w, h, fill);
001298 940e 22be 	CALL SUBOPT_0x22
00129a 89af      	LDD  R26,Y+23
00129b 8db8      	LDD  R27,Y+23+1
00129c dae4      	RCALL _ILI9341_FillRectangle
                 ;   //TFT_DrawRoundRect(x, y, w, h, r, bord);
                 ;   ILI9341_DrawRectangle(x, y, w, h, bord);
00129d 940e 22be 	CALL SUBOPT_0x22
00129f 89ad      	LDD  R26,Y+21
0012a0 89be      	LDD  R27,Y+21+1
0012a1 db7c      	RCALL _ILI9341_DrawRectangle
                 ;#pragma warn-
                 ;   x = x + w/2 - strlenf(str)*5;
0012a2 01da      	MOVW R26,R20
0012a3 940e 22c5 	CALL SUBOPT_0x23
0012a5 0fe0      	ADD  R30,R16
0012a6 1ff1      	ADC  R31,R17
0012a7 93ff      	PUSH R31
0012a8 93ef      	PUSH R30
0012a9 85a8      	LDD  R26,Y+8
0012aa 85b9      	LDD  R27,Y+8+1
0012ab 940e 21c7 	CALL _strlenf
0012ad e0a5      	LDI  R26,LOW(5)
0012ae e0b0      	LDI  R27,HIGH(5)
0012af 940e 2650 	CALL __MULW12U
0012b1 91af      	POP  R26
0012b2 91bf      	POP  R27
0012b3 1bae      	SUB  R26,R30
0012b4 0bbf      	SBC  R27,R31
0012b5 018d      	MOVW R16,R26
                 ;   y = y + h/2 - 8;
0012b6 81ae      	LDD  R26,Y+6
0012b7 81bf      	LDD  R27,Y+6+1
0012b8 940e 22c5 	CALL SUBOPT_0x23
0012ba 0fe2      	ADD  R30,R18
0012bb 1ff3      	ADC  R31,R19
0012bc 9738      	SBIW R30,8
0012bd 019f      	MOVW R18,R30
                 ;#pragma warn+
                 ;   sprintf(buff,str); ILI9341_WriteString(x, y, buff, Font_11x18, text, fill, 1);
0012be 940e 22ca 	CALL SUBOPT_0x24
0012c0 85ea      	LDD  R30,Y+10
0012c1 85fb      	LDD  R31,Y+10+1
0012c2 940e 22cf 	CALL SUBOPT_0x25
0012c4 931a      	ST   -Y,R17
0012c5 930a      	ST   -Y,R16
0012c6 933a      	ST   -Y,R19
0012c7 932a      	ST   -Y,R18
0012c8 940e 22ca 	CALL SUBOPT_0x24
0012ca 940e 22d6 	CALL SUBOPT_0x26
0012cc 89ed      	LDD  R30,Y+21
0012cd 89fe      	LDD  R31,Y+21+1
0012ce 93fa      	ST   -Y,R31
0012cf 93ea      	ST   -Y,R30
0012d0 8deb      	LDD  R30,Y+27
0012d1 8dfc      	LDD  R31,Y+27+1
0012d2 940e 22e1 	CALL SUBOPT_0x27
                 ;}
0012d4 940e 2759 	CALL __LOADLOCR6
0012d6 9661      	ADIW R28,17
0012d7 9508      	RET
                 ; .FEND
                 ;
                 ;void drawPlus(char i, unsigned int fill){
                 ; int x, y, w, h;
                 ;   w = plus[i].w;      //  
                 ;	i -> Y+10
                 ;	fill -> Y+8
                 ;	x -> R16,R17
                 ;	y -> R18,R19
                 ;	w -> R20,R21
                 ;	h -> Y+6
                 ;   h = plus[i].h;      //  
                 ;   x = plus[i].x;      //   
                 ;   y = plus[i].y;      //   
                 ;   if(i%2) ILI9341_DrawRectangle(x, y, w, h, BLUE);
                 ;   else ILI9341_DrawRectangle(x, y, w, h, RED);
                 ;#pragma warn-
                 ;   x = x + w/2 - 5;
                 ;   y = y + h/2 - 8;
                 ;#pragma warn+
                 ;   if(i%2) ILI9341_WriteString(x, y, "-", Font_11x18, BLUE, fill, 1);
                 ;   else ILI9341_WriteString(x, y, "+", Font_11x18, RED, fill, 1);
                 ;}
                 
                 	.DSEG
                 _0xB4:
000260           	.BYTE 0x4
                 ;
                 ;//x:    ,    
                 ;//in_min:       value
                 ;//in_max:      value
                 ;//out_min:         value
                 ;//out_max:        value
                 ;unsigned int map(unsigned int x, char in_min, unsigned int in_max, char out_min, unsigned int out_max)
                 ;{
                 
                 	.CSEG
                 _map:
                 ; .FSTART _map
                 ;long val;
                 ; val = (x - in_min); val *= (out_max - out_min); val /= (in_max - in_min); val += out_min;
0012d8 93ba      	ST   -Y,R27
0012d9 93aa      	ST   -Y,R26
0012da 9724      	SBIW R28,4
                 ;	x -> Y+10
                 ;	in_min -> Y+9
                 ;	in_max -> Y+7
                 ;	out_min -> Y+6
                 ;	out_max -> Y+4
                 ;	val -> Y+0
0012db 85e9      	LDD  R30,Y+9
0012dc e0f0      	LDI  R31,0
0012dd 85aa      	LDD  R26,Y+10
0012de 85bb      	LDD  R27,Y+10+1
0012df 940e 22e6 	CALL SUBOPT_0x28
0012e1 2766      	CLR  R22
0012e2 2777      	CLR  R23
0012e3 940e 22eb 	CALL SUBOPT_0x29
0012e5 81ee      	LDD  R30,Y+6
0012e6 e0f0      	LDI  R31,0
0012e7 81ac      	LDD  R26,Y+4
0012e8 81bd      	LDD  R27,Y+4+1
0012e9 940e 22e6 	CALL SUBOPT_0x28
0012eb 940e 2229 	CALL SUBOPT_0xD
0012ed 2766      	CLR  R22
0012ee 2777      	CLR  R23
0012ef 940e 267d 	CALL __MULD12
0012f1 940e 22eb 	CALL SUBOPT_0x29
0012f3 85e9      	LDD  R30,Y+9
0012f4 e0f0      	LDI  R31,0
0012f5 81af      	LDD  R26,Y+7
0012f6 85b8      	LDD  R27,Y+7+1
0012f7 940e 22e6 	CALL SUBOPT_0x28
0012f9 940e 2229 	CALL SUBOPT_0xD
0012fb 2766      	CLR  R22
0012fc 2777      	CLR  R23
0012fd 940e 26bf 	CALL __DIVD21
0012ff 940e 22eb 	CALL SUBOPT_0x29
001301 81ee      	LDD  R30,Y+6
001302 e0f0      	LDI  R31,0
001303 940e 2229 	CALL SUBOPT_0xD
001305 940e 264b 	CALL __CWD1
001307 940e 261b 	CALL __ADDD12
001309 940e 22eb 	CALL SUBOPT_0x29
                 ; return val;
00130b 81e8      	LD   R30,Y
00130c 81f9      	LDD  R31,Y+1
00130d 962c      	ADIW R28,12
00130e 9508      	RET
                 ;}
                 ; .FEND
                 ;
                 ;char contains(int touch_X, int touch_Y, char b)//       .
                 ; {
                 _contains:
                 ; .FSTART _contains
                 ; int beg, end;
                 ;   beg = buttons[b].x;
00130f 93aa      	ST   -Y,R26
001310 940e 2754 	CALL __SAVELOCR4
                 ;	touch_X -> Y+7
                 ;	touch_Y -> Y+5
                 ;	b -> Y+4
                 ;	beg -> R16,R17
                 ;	end -> R18,R19
001312 940e 22ee 	CALL SUBOPT_0x2A
001314 5fe7      	SUBI R30,LOW(-_buttons)
001315 4ffb      	SBCI R31,HIGH(-_buttons)
001316 8100      	LD   R16,Z
001317 8111      	LDD  R17,Z+1
                 ;   end = beg + buttons[b].w-3;
001318 940e 22ee 	CALL SUBOPT_0x2A
00131a 940e 22f3 	CALL SUBOPT_0x2B
00131c 0fe0      	ADD  R30,R16
00131d 1ff1      	ADC  R31,R17
00131e 9733      	SBIW R30,3
00131f 019f      	MOVW R18,R30
                 ;   if ((touch_X < beg)||(touch_X > end)) return 0;
001320 81af      	LDD  R26,Y+7
001321 85b8      	LDD  R27,Y+7+1
001322 17a0      	CP   R26,R16
001323 07b1      	CPC  R27,R17
001324 f01c      	BRLT _0xB7
001325 172a      	CP   R18,R26
001326 073b      	CPC  R19,R27
001327 f414      	BRGE _0xB6
                 _0xB7:
001328 e0e0      	LDI  R30,LOW(0)
001329 c019      	RJMP _0x20C0008
                 ;   beg = buttons[b].y;
                 _0xB6:
00132a 940e 22ee 	CALL SUBOPT_0x2A
                +
00132c 5fe5     +SUBI R30 , LOW ( - _buttons - ( 2 ) )
00132d 4ffb     +SBCI R31 , HIGH ( - _buttons - ( 2 ) )
                 	__ADDW1MN _buttons,2
00132e 8100      	LD   R16,Z
00132f 8111      	LDD  R17,Z+1
                 ;   end = beg + buttons[b].h-3;
001330 940e 22ee 	CALL SUBOPT_0x2A
001332 940e 22b9 	CALL SUBOPT_0x21
001334 0fe0      	ADD  R30,R16
001335 1ff1      	ADC  R31,R17
001336 9733      	SBIW R30,3
001337 019f      	MOVW R18,R30
                 ;   if ((touch_Y < beg)||(touch_Y > end)) return 0;
001338 81ad      	LDD  R26,Y+5
001339 81be      	LDD  R27,Y+5+1
00133a 17a0      	CP   R26,R16
00133b 07b1      	CPC  R27,R17
00133c f01c      	BRLT _0xBA
00133d 172a      	CP   R18,R26
00133e 073b      	CPC  R19,R27
00133f f414      	BRGE _0xB9
                 _0xBA:
001340 e0e0      	LDI  R30,LOW(0)
001341 c001      	RJMP _0x20C0008
                 ;   return 1;
                 _0xB9:
001342 e0e1      	LDI  R30,LOW(1)
                 _0x20C0008:
001343 940e 275b 	CALL __LOADLOCR4
001345 9629      	ADIW R28,9
001346 9508      	RET
                 ; }
                 ; .FEND
                 ;
                 ;//char containsPlus(int touch_X, int touch_Y, char b)//       .
                 ;// {
                 ;// int beg, end;
                 ;//   beg = plus[b].x;
                 ;//   end = beg + plus[b].w-3;
                 ;//   if ((touch_X < beg)||(touch_X > end)) return 0;
                 ;//   beg = plus[b].y;
                 ;//   end = beg + plus[b].h-3;
                 ;//   if ((touch_Y < beg)||(touch_Y > end)) return 0;
                 ;//   return 1;
                 ;// }
                 ;
                 ;char checkTouch(void)//      (point_Y, point_X)
                 ;{
                 _checkTouch:
                 ; .FSTART _checkTouch
                 ;char i;
                 ;int val, samples[2];
                 ;//------- Set X+ to ground --------------------
                 ;  XP_DIR = OUTPUT; // DDRC.6 ??????????????????
001347 9724      	SBIW R28,4
001348 940e 2754 	CALL __SAVELOCR4
                 ;	i -> R17
                 ;	val -> R18,R19
                 ;	samples -> Y+4
00134a 9aa6      	SBI  0x14,6
                 ;  XP_PORT = LOW;   // DDRC.6
00134b 98ae      	CBI  0x15,6
                 ;//------- Set Y- to VCC -----------------------
                 ;  YM_DIR = OUTPUT; // DDRC.7 ??????????????????
00134c 9aa7      	SBI  0x14,7
                 ;  YM_PORT = HIGH;  // DDRC.7 ??????????????????
00134d 9aaf      	SBI  0x15,7
                 ;//------- Hi-Z X- and Y+ ----------------------
                 ;  YP_DIR = INPUT;  // TFT_WRX
00134e 98d6      	CBI  0x1A,6
                 ;  YP_PORT = LOW;   // TFT_WRX
00134f 98de      	CBI  0x1B,6
                 ;  XM_DIR = INPUT;  // TFT_DCX
001350 98d5      	CBI  0x1A,5
                 ;  XM_PORT = LOW;   // TFT_DCX
001351 98dd      	CBI  0x1B,5
                 ;  val = read_adc(YP_PIN);  // y
001352 e0a6      	LDI  R26,LOW(6)
001353 de91      	RCALL _read_adc
001354 019f      	MOVW R18,R30
                 ;  val-= read_adc(XM_PIN);  //(y-x)
001355 e0a5      	LDI  R26,LOW(5)
001356 de8e      	RCALL _read_adc
                +
001357 1b2e     +SUB R18 , R30
001358 0b3f     +SBC R19 , R31
                 	__SUBWRR 18,19,30,31
                 ;  val = 1023-val;          // z
001359 efef      	LDI  R30,LOW(1023)
00135a e0f3      	LDI  R31,HIGH(1023)
00135b 1be2      	SUB  R30,R18
00135c 0bf3      	SBC  R31,R19
00135d 019f      	MOVW R18,R30
                 ;  point_Z = val;
                +
00135e 9320 0403+STS _point_Z + ( 0 ) , R18
001360 9330 0404+STS _point_Z + ( 0 ) + 1 , R19
                 	__PUTWMRN _point_Z,0,18,19
                 ;
                 ;  if(val < 200){
                +
001362 3c28     +CPI R18 , LOW ( 200 )
001363 e0e0     +LDI R30 , HIGH ( 200 )
001364 073e     +CPC R19 , R30
                 	__CPWRN 18,19,200
001365 f41c      	BRGE _0xCC
                 ;    InitInterface();
001366 dba2      	RCALL _InitInterface
                 ;//    sprintf(buff,"  v=%3u",val);
                 ;//    ILI9341_WriteString(5,TFTBUTTON-45,buff,Font_11x18,WHITE,BLACK,1);
                 ;    return 0;
001367 e0e0      	LDI  R30,LOW(0)
001368 c06a      	RJMP _0x20C0006
                 ;  }//     
                 ;  else                //   
                 _0xCC:
                 ;   {
                 ;     YP_DIR = INPUT;   // TFT_WRX ?????????????
001369 98d6      	CBI  0x1A,6
                 ;     YP_PORT = LOW;    // TFT_WRX ?????????????
00136a 98de      	CBI  0x1B,6
                 ;     YM_DIR = INPUT;   // DDRC.7
00136b 98a7      	CBI  0x14,7
                 ;     YM_PORT = LOW;    // DDRC.7
00136c 98af      	CBI  0x15,7
                 ;     XP_DIR = OUTPUT;  // DDRC.6  ?????????????
00136d 9aa6      	SBI  0x14,6
                 ;     XP_PORT = HIGH;   // DDRC.6
00136e 9aae      	SBI  0x15,6
                 ;     XM_DIR = OUTPUT;  // TFT_DCX
00136f 9ad5      	SBI  0x1A,5
                 ;     XM_PORT = LOW;    // TFT_DCX ?????????????
001370 98dd      	CBI  0x1B,5
                 ;     do{
                 _0xDF:
                 ;        for (i=0; i<2; i++){samples[i] = read_adc(YP_PIN);}
001371 e010      	LDI  R17,LOW(0)
                 _0xE2:
001372 3012      	CPI  R17,2
001373 f460      	BRSH _0xE3
001374 940e 22f8 	CALL SUBOPT_0x2C
001376 93ff      	PUSH R31
001377 93ef      	PUSH R30
001378 e0a6      	LDI  R26,LOW(6)
001379 de6b      	RCALL _read_adc
00137a 91af      	POP  R26
00137b 91bf      	POP  R27
00137c 93ed      	ST   X+,R30
00137d 93fc      	ST   X,R31
00137e 5f1f      	SUBI R17,-1
00137f cff2      	RJMP _0xE2
                 _0xE3:
                 ;        val = abs(samples[0]-samples[1]);
001380 940e 22fd 	CALL SUBOPT_0x2D
                 ;       } while (val>4);
                +
001382 3025     +CPI R18 , LOW ( 5 )
001383 e0e0     +LDI R30 , HIGH ( 5 )
001384 073e     +CPC R19 , R30
                 	__CPWRN 18,19,5
001385 f75c      	BRGE _0xDF
                 ;    //point_Y = (1023-(samples[0]+samples[1])/2);  // Orientation=0
                 ;     point_X = (samples[0]+samples[1])/2;           // Orientation=3
001386 940e 2308 	CALL SUBOPT_0x2E
001388 93e0 03ff 	STS  _point_X,R30
00138a 93f0 0400 	STS  _point_X+1,R31
                 ;
                 ;     XP_DIR = INPUT;  // DDRC.6
00138c 98a6      	CBI  0x14,6
                 ;     XP_PORT = LOW;   // DDRC.6
00138d 98ae      	CBI  0x15,6
                 ;     XM_DIR = INPUT;  // TFT_DCX
00138e 98d5      	CBI  0x1A,5
                 ;     XM_PORT = LOW;   // TFT_DCX ?????????????
00138f 98dd      	CBI  0x1B,5
                 ;     YP_DIR = OUTPUT; // TFT_WRX
001390 9ad6      	SBI  0x1A,6
                 ;     YP_PORT = HIGH;  // TFT_WRX
001391 9ade      	SBI  0x1B,6
                 ;     YM_DIR = OUTPUT; // DDRC.7
001392 9aa7      	SBI  0x14,7
                 ;     YM_PORT = LOW;   // DDRC.7  ?????????????
001393 98af      	CBI  0x15,7
                 ;     do{
                 _0xF5:
                 ;        for (i=0; i<2; i++){samples[i] = read_adc(XM_PIN);}
001394 e010      	LDI  R17,LOW(0)
                 _0xF8:
001395 3012      	CPI  R17,2
001396 f460      	BRSH _0xF9
001397 940e 22f8 	CALL SUBOPT_0x2C
001399 93ff      	PUSH R31
00139a 93ef      	PUSH R30
00139b e0a5      	LDI  R26,LOW(5)
00139c de48      	RCALL _read_adc
00139d 91af      	POP  R26
00139e 91bf      	POP  R27
00139f 93ed      	ST   X+,R30
0013a0 93fc      	ST   X,R31
0013a1 5f1f      	SUBI R17,-1
0013a2 cff2      	RJMP _0xF8
                 _0xF9:
                 ;        val = abs(samples[0]-samples[1]);
0013a3 940e 22fd 	CALL SUBOPT_0x2D
                 ;       } while (val>4);
                +
0013a5 3025     +CPI R18 , LOW ( 5 )
0013a6 e0e0     +LDI R30 , HIGH ( 5 )
0013a7 073e     +CPC R19 , R30
                 	__CPWRN 18,19,5
0013a8 f75c      	BRGE _0xF5
                 ;     //point_X = (1023-(samples[0]+samples[1])/2);   // Orientation=0
                 ;     point_Y = (1023-(samples[0]+samples[1])/2);     // Orientation=3
0013a9 940e 2308 	CALL SUBOPT_0x2E
0013ab efaf      	LDI  R26,LOW(1023)
0013ac e0b3      	LDI  R27,HIGH(1023)
0013ad 1bae      	SUB  R26,R30
0013ae 0bbf      	SBC  R27,R31
0013af 93a0 0401 	STS  _point_Y,R26
0013b1 93b0 0402 	STS  _point_Y+1,R27
                 ;
                 ;     InitInterface();
0013b3 db55      	RCALL _InitInterface
                 ;     point_X = map(point_X, TS_MINX, TS_MAXX, 0, max_X);//       
0013b4 940e 230f 	CALL SUBOPT_0x2F
0013b6 e7ed      	LDI  R30,LOW(125)
0013b7 93ea      	ST   -Y,R30
0013b8 e8eb      	LDI  R30,LOW(907)
0013b9 e0f3      	LDI  R31,HIGH(907)
0013ba 940e 2316 	CALL SUBOPT_0x30
0013bc 940e 2285 	CALL SUBOPT_0x17
0013be df19      	RCALL _map
0013bf 93e0 03ff 	STS  _point_X,R30
0013c1 93f0 0400 	STS  _point_X+1,R31
                 ;     point_Y = map(point_Y, TS_MINY, TS_MAXY, 0, max_Y);//       
0013c3 940e 231b 	CALL SUBOPT_0x31
0013c5 e8e2      	LDI  R30,LOW(130)
0013c6 93ea      	ST   -Y,R30
0013c7 eae7      	LDI  R30,LOW(935)
0013c8 e0f3      	LDI  R31,HIGH(935)
0013c9 940e 2316 	CALL SUBOPT_0x30
0013cb 940e 228a 	CALL SUBOPT_0x18
0013cd df0a      	RCALL _map
0013ce 93e0 0401 	STS  _point_Y,R30
0013d0 93f0 0402 	STS  _point_Y+1,R31
                 ;//     sprintf(buff,"X%4u; Y%4u",point_X,point_Y);
                 ;//     ILI9341_WriteString(5,TFTBUTTON-60,buff,Font_11x18,WHITE,BLACK,1);
                 ;     return 1;
0013d2 e0e1      	LDI  R30,LOW(1)
                 ;   }
                 ;}
                 _0x20C0006:
0013d3 940e 275b 	CALL __LOADLOCR4
                 _0x20C0007:
0013d5 9628      	ADIW R28,8
0013d6 9508      	RET
                 ; .FEND
                 ;
                 ;char checkButton(char count){
                 _checkButton:
                 ; .FSTART _checkButton
                 ; char i;
                 ;//  ILI9341_FillRectangle(point_X, point_Y, 5, 5, RED);
                 ;//  sprintf(buff,"X=%4u; Y=%4u;", point_X,point_Y);
                 ;//  ILI9341_WriteString(5,TFTBUTTON-25,buff,Font_11x18,BLACK,GREEN1,1);
                 ;  for (i=0; i<count; i++){if(contains(point_X, point_Y, i)) break;}//        ...
0013d7 93aa      	ST   -Y,R26
0013d8 931a      	ST   -Y,R17
                 ;	count -> Y+1
                 ;	i -> R17
0013d9 e010      	LDI  R17,LOW(0)
                 _0xFB:
0013da 81e9      	LDD  R30,Y+1
0013db 171e      	CP   R17,R30
0013dc f450      	BRSH _0xFC
0013dd 940e 230f 	CALL SUBOPT_0x2F
0013df 940e 231b 	CALL SUBOPT_0x31
0013e1 2fa1      	MOV  R26,R17
0013e2 df2c      	RCALL _contains
0013e3 30e0      	CPI  R30,0
0013e4 f411      	BRNE _0xFC
0013e5 5f1f      	SUBI R17,-1
0013e6 cff3      	RJMP _0xFB
                 _0xFC:
                 ;  if (i<count) BeepT = 20;
0013e7 81e9      	LDD  R30,Y+1
0013e8 171e      	CP   R17,R30
0013e9 f410      	BRSH _0xFE
0013ea e1e4      	LDI  R30,LOW(20)
0013eb 2e5e      	MOV  R5,R30
                 ;  return i;
                 _0xFE:
0013ec 2fe1      	MOV  R30,R17
0013ed c09b      	RJMP _0x20C0004
                 ;}
                 ; .FEND
                 ;
                 ;//signed char checkPlus(char count){
                 ;//  char i;
                 ;////  TFT_FillRectangle(point_X, point_Y, 5, 5, RED);
                 ;////  sprintf(buff,"X=%4u; Y=%4u;", point_X,point_Y);
                 ;////  TFT_DrawString(buff,5,TFTBUTTON-25,1,1,BLACK,GREEN1);
                 ;//  for (i=0; i<count; i++){if(containsPlus(point_X, point_Y, i)) break;}//       ...
                 ;//  if (i<count) BeepT = 20;
                 ;//  return i;
                 ;//}
                 ;#include "proc.c"
                 ;#define TUNING    170
                 ;
                 ;void temperature_check(void)
                 ; 0000 005B {
                 _temperature_check:
                 ; .FSTART _temperature_check
                 ; int val;
                 ; unsigned char item, byte, crc, try=0;
                 ;  for (item=0; item < ds18b20;)
0013ee 940e 2752 	CALL __SAVELOCR6
                 ;	val -> R16,R17
                 ;	item -> R19
                 ;	byte -> R18
                 ;	crc -> R21
                 ;	try -> R20
0013f0 e040      	LDI  R20,0
0013f1 e030      	LDI  R19,LOW(0)
                 _0x100:
0013f2 1539      	CP   R19,R9
0013f3 f008      	BRLO PC+2
0013f4 c06f      	RJMP _0x101
                 ;   {
                 ;     w1_init();                 // 1 Wire Bus initialization
0013f5 940e 253f 	CALL _w1_init
                 ;     w1_write(0x55);            // Load MATCH ROM [55H] comand
0013f7 e5a5      	LDI  R26,LOW(85)
0013f8 940e 2588 	CALL _w1_write
                 ;     ptr_char = &familycode[item][0];
0013fa e0a9      	LDI  R26,LOW(9)
0013fb 9f3a      	MUL  R19,R26
0013fc 01f0      	MOVW R30,R0
0013fd 56e6      	SUBI R30,LOW(-_familycode)
0013fe 4ffc      	SBCI R31,HIGH(-_familycode)
0013ff 940e 2322 	CALL SUBOPT_0x32
                 ;     for (byte=0; byte < 8; byte++) w1_write(*ptr_char++);
001401 e020      	LDI  R18,LOW(0)
                 _0x103:
001402 3028      	CPI  R18,8
001403 f438      	BRSH _0x104
001404 940e 2327 	CALL SUBOPT_0x33
001406 81a0      	LD   R26,Z
001407 940e 2588 	CALL _w1_write
001409 5f2f      	SUBI R18,-1
00140a cff7      	RJMP _0x103
                 _0x104:
00140b eee4      	LDI  R30,LOW(_ds)
00140c e0f3      	LDI  R31,HIGH(_ds)
00140d 940e 2322 	CALL SUBOPT_0x32
                 ;     w1_write(0xBE);            // Read Scratchpad command [BE]
00140f ebae      	LDI  R26,LOW(190)
001410 940e 2588 	CALL _w1_write
                 ;     for (byte=0; byte < 8; byte++) *ptr_char++ = w1_read(); // Read cont. byte
001412 e020      	LDI  R18,LOW(0)
                 _0x106:
001413 3028      	CPI  R18,8
001414 f458      	BRSH _0x107
001415 940e 2327 	CALL SUBOPT_0x33
001417 93ff      	PUSH R31
001418 93ef      	PUSH R30
001419 940e 2583 	CALL _w1_read
00141b 91af      	POP  R26
00141c 91bf      	POP  R27
00141d 93ec      	ST   X,R30
00141e 5f2f      	SUBI R18,-1
00141f cff3      	RJMP _0x106
                 _0x107:
001420 940e 2583 	CALL _w1_read
001422 2f5e      	MOV  R21,R30
                 ;     ptr_char = ds.buffer;
001423 eee4      	LDI  R30,LOW(_ds)
001424 e0f3      	LDI  R31,HIGH(_ds)
001425 940e 2322 	CALL SUBOPT_0x32
                 ;     if (w1_dow_crc8(ptr_char, 8)==crc){
001427 91e0 03dc 	LDS  R30,_ptr_char
001429 91f0 03dd 	LDS  R31,_ptr_char+1
00142b 93fa      	ST   -Y,R31
00142c 93ea      	ST   -Y,R30
00142d e0a8      	LDI  R26,LOW(8)
00142e 940e 2601 	CALL _w1_dow_crc8
001430 175e      	CP   R21,R30
001431 f501      	BRNE _0x108
                 ;       try = 0; val = ds.pvT;
001432 e040      	LDI  R20,LOW(0)
                +
001433 9100 03e4+LDS R16 , 0 + ( _ds )
001435 9110 03e5+LDS R17 , 0 + ( _ds ) + 1
                 	__GETWRMN 16,17,0,_ds
                 ;       if (val<0) {val=-val; val = val*10/16; val=-val;} //     !!
001437 2311      	TST  R17
001438 f452      	BRPL _0x109
001439 01f8      	MOVW R30,R16
00143a 940e 2620 	CALL __ANEGW1
00143c 018f      	MOVW R16,R30
00143d 940e 2330 	CALL SUBOPT_0x34
00143f 018f      	MOVW R16,R30
001440 940e 2620 	CALL __ANEGW1
001442 c002      	RJMP _0x281
                 ;       else val = val*10/16; //     !!
                 _0x109:
001443 940e 2330 	CALL SUBOPT_0x34
                 _0x281:
001445 018f      	MOVW R16,R30
                 ;       //-----   DS18B20 ----------
                 ;       if(ds.buffer[2]==TUNING) val +=(signed char)ds.buffer[3]; //   
                +
001446 91a0 03e6+LDS R26 , _ds + ( 2 )
                 	__GETB2MN _ds,2
001448 3aaa      	CPI  R26,LOW(0xAA)
001449 f439      	BRNE _0x10B
                +
00144a 91e0 03e7+LDS R30 , _ds + ( 3 )
                 	__GETB1MN _ds,3
00144c e0f0      	LDI  R31,0
00144d fde7      	SBRC R30,7
00144e efff      	SER  R31
                +
00144f 0f0e     +ADD R16 , R30
001450 1f1f     +ADC R17 , R31
                 	__ADDWRR 16,17,30,31
                 ;     }
                 _0x10B:
                 ;     else if (++try > 2) {val = 1990; try = 0;}// (199.0)    X     
001451 c006      	RJMP _0x10C
                 _0x108:
001452 5f4f      	SUBI R20,-LOW(1)
001453 3043      	CPI  R20,3
001454 f018      	BRLO _0x10D
                +
001455 ec06     +LDI R16 , LOW ( 1990 )
001456 e017     +LDI R17 , HIGH ( 1990 )
                 	__GETWRN 16,17,1990
001457 e040      	LDI  R20,LOW(0)
                 ;     t.point[item] = val;
                 _0x10D:
                 _0x10C:
001458 2fe3      	MOV  R30,R19
001459 edae      	LDI  R26,LOW(_t)
00145a e0b3      	LDI  R27,HIGH(_t)
00145b e0f0      	LDI  R31,0
00145c 940e 221d 	CALL SUBOPT_0xB
00145e 8300      	ST   Z,R16
00145f 8311      	STD  Z+1,R17
                 ;     if (try==0) item++;
001460 3040      	CPI  R20,0
001461 f409      	BRNE _0x10E
001462 5f3f      	SUBI R19,-1
                 ;   }
                 _0x10E:
001463 cf8e      	RJMP _0x100
                 _0x101:
                 ;  w1_init();                    // 1 Wire Bus initialization
001464 940e 233b 	CALL SUBOPT_0x35
                 ;  w1_write(0xCC);               // Load Skip ROM [CCH] command
                 ;  w1_write(0x44);               // Load Convert T [44H] command
                 ;}
001466 940e 2759 	CALL __LOADLOCR6
                 _0x20C0005:
001468 9626      	ADIW R28,6
001469 9508      	RET
                 ; .FEND
                 ;
                 ;unsigned char module_check(unsigned char fc)
                 ;{
                 ; unsigned char *p, try, byte;
                 ;  p = out.buffer;
                 ;	fc -> Y+4
                 ;	*p -> R16,R17
                 ;	try -> R19
                 ;	byte -> R18
                 ;  out.buffer[3]=w1_dow_crc8(p,3);//  
                 ;  for (try=0; try<3; try++)
                 ;   {
                 ;    w1_init();            // 1 Wire Bus initialization
                 ;    w1_write(fc);         // Family code
                 ;    p = out.buffer;
                 ;    for (byte=0; byte<4; byte++) w1_write(*p++);
                 ;    p = in.buffer;
                 ;    for (byte=0; byte<4; byte++) *p++ = w1_read();// Read 4 byte
                 ;    p = in.buffer;
                 ;    if(byte==w1_dow_crc8(p,4)) break;
                 ;    delay_ms(10);
                 ;   };
                 ;  if(try>2) byte=0; else byte=1;
                 ;  return byte;
                 ;}
                 ;
                 ;//#define ID_CO2          0xF5    //  
                 ;//#define DATAREAD        0xA1    // Read Scratchpad
                 ;//unsigned char readCO2(void) //   2
                 ;//{
                 ;// unsigned char byte;
                 ;// static unsigned char try;
                 ;//  out.buffer[0]=DATAREAD;       // Function Command
                 ;//  out.buffer[1]=0x00;           // Data 1
                 ;//  out.buffer[2]=displCO2;       // Data 2 1-> ; 2->  ; 3-> ;
                 ;//  byte = module_check(ID_CO2); //  
                 ;//  if(byte){                     //    ...
                 ;//     pvCO2 = in.val[1];// CO2
                 ;//     try = 0;
                 ;//  }
                 ;//  else if(++try>5){pvCO2=0; error|=0x08;}//   CO2
                 ;//  return byte;
                 ;//}
                 ;
                 ;//- Converts a 2 digit decimal to BCD format. ---------
                 ;char ByteToBcd2(char Value){
                 _ByteToBcd2:
                 ; .FSTART _ByteToBcd2
                 ; char bcdhigh = 0;
                 ;  while (Value >= 10){
00146a 93aa      	ST   -Y,R26
00146b 931a      	ST   -Y,R17
                 ;	Value -> Y+1
                 ;	bcdhigh -> R17
00146c e010      	LDI  R17,0
                 _0x11B:
00146d 81a9      	LDD  R26,Y+1
00146e 30aa      	CPI  R26,LOW(0xA)
00146f f028      	BRLO _0x11D
                 ;    bcdhigh++;
001470 5f1f      	SUBI R17,-1
                 ;    Value -= 10;
001471 81e9      	LDD  R30,Y+1
001472 50ea      	SUBI R30,LOW(10)
001473 83e9      	STD  Y+1,R30
                 ;  }
001474 cff8      	RJMP _0x11B
                 _0x11D:
                 ;  return ((bcdhigh << 4U) | Value);
001475 2fe1      	MOV  R30,R17
001476 95e2      	SWAP R30
001477 7fe0      	ANDI R30,0xF0
001478 81a9      	LDD  R26,Y+1
001479 2bea      	OR   R30,R26
00147a c00e      	RJMP _0x20C0004
                 ;}
                 ; .FEND
                 ;
                 ;// - Converts from 2 digit BCD to Binary. -----------
                 ;char Bcd2ToByte(char Value)
                 ;{
                 _Bcd2ToByte:
                 ; .FSTART _Bcd2ToByte
                 ;  char tmp = 0;
                 ;  tmp = ((Value & 0xF0) >> 0x4) * 10;
00147b 93aa      	ST   -Y,R26
00147c 931a      	ST   -Y,R17
                 ;	Value -> Y+1
                 ;	tmp -> R17
00147d e010      	LDI  R17,0
00147e 81e9      	LDD  R30,Y+1
00147f 7fe0      	ANDI R30,LOW(0xF0)
001480 e0f0      	LDI  R31,0
001481 940e 2638 	CALL __ASRW4
001483 e0aa      	LDI  R26,LOW(10)
001484 02ea      	MULS R30,R26
001485 2d10      	MOV  R17,R0
                 ;  return (tmp + (Value & 0x0F));
001486 81e9      	LDD  R30,Y+1
001487 70ef      	ANDI R30,LOW(0xF)
001488 0fe1      	ADD  R30,R17
                 _0x20C0004:
001489 8118      	LDD  R17,Y+0
00148a 9622      	ADIW R28,2
00148b 9508      	RET
                 ;}
                 ; .FEND
                 ;
                 ;//signed int LowPassF2(signed int t,unsigned char i)
                 ;//{
                 ;//float val;
                 ;//  val = A1*Told1[i]-A2*Told2[i]+A3*t;
                 ;//  Told2[i] = Told1[i];
                 ;//  Told1[i] = val;
                 ;//  return val;
                 ;//}
                 ;#include "touchpad.c"
                 ;void touchpad(char byte){
                 ; 0000 005C void touchpad(char byte){
                 _touchpad:
                 ; .FSTART _touchpad
                 ;  char max = MAX_SET-1;
                 ;     switch (displ_num){
00148c 93aa      	ST   -Y,R26
00148d 931a      	ST   -Y,R17
                 ;	byte -> Y+1
                 ;	max -> R17
00148e e013      	LDI  R17,3
00148f 2de4      	MOV  R30,R4
001490 e0f0      	LDI  R31,0
                 ;        case 0: if(byte<buttonCount){displ_num = byte; newSetButt = 1;} break;
001491 9730      	SBIW R30,0
001492 f439      	BRNE _0x121
001493 940e 2343 	CALL SUBOPT_0x36
001495 f418      	BRSH _0x122
001496 8049      	LDD  R4,Y+1
001497 e0e1      	LDI  R30,LOW(1)
001498 2e6e      	MOV  R6,R30
                 _0x122:
001499 c4f1      	RJMP _0x120
                 ;        //-   -
                 ;        case 1: if(byte<buttonCount){displ_num = byte; newSetButt = 1;}
                 _0x121:
00149a 30e1      	CPI  R30,LOW(0x1)
00149b e0a0      	LDI  R26,HIGH(0x1)
00149c 07fa      	CPC  R31,R26
00149d f461      	BRNE _0x123
00149e 940e 2343 	CALL SUBOPT_0x36
0014a0 f418      	BRSH _0x124
0014a1 8049      	LDD  R4,Y+1
0014a2 e0e1      	LDI  R30,LOW(1)
0014a3 2e6e      	MOV  R6,R30
                 ;                if(displ_num==3) displ_num = 6;
                 _0x124:
0014a4 e0e3      	LDI  R30,LOW(3)
0014a5 15e4      	CP   R30,R4
0014a6 f411      	BRNE _0x125
0014a7 e0e6      	LDI  R30,LOW(6)
0014a8 2e4e      	MOV  R4,R30
                 ;        break;
                 _0x125:
0014a9 c4e1      	RJMP _0x120
                 ;        //-   -
                 ;        case 2: if(byte<buttonCount){displ_num = byte; newSetButt = 1;}
                 _0x123:
0014aa 30e2      	CPI  R30,LOW(0x2)
0014ab e0a0      	LDI  R26,HIGH(0x2)
0014ac 07fa      	CPC  R31,R26
0014ad f461      	BRNE _0x126
0014ae 940e 2343 	CALL SUBOPT_0x36
0014b0 f418      	BRSH _0x127
0014b1 8049      	LDD  R4,Y+1
0014b2 e0e1      	LDI  R30,LOW(1)
0014b3 2e6e      	MOV  R6,R30
                 ;                if(displ_num==3) displ_num = 7;
                 _0x127:
0014b4 e0e3      	LDI  R30,LOW(3)
0014b5 15e4      	CP   R30,R4
0014b6 f411      	BRNE _0x128
0014b7 e0e7      	LDI  R30,LOW(7)
0014b8 2e4e      	MOV  R4,R30
                 ;        break;
                 _0x128:
0014b9 c4d1      	RJMP _0x120
                 ;        //-    -
                 ;        case 3:
                 _0x126:
0014ba 30e3      	CPI  R30,LOW(0x3)
0014bb e0a0      	LDI  R26,HIGH(0x3)
0014bc 07fa      	CPC  R31,R26
0014bd f579      	BRNE _0x129
                 ;          switch (byte){
0014be 81e9      	LDD  R30,Y+1
0014bf e0f0      	LDI  R31,0
                 ;            case 0: displ_num = 0; newSetButt = 1; break;
0014c0 9730      	SBIW R30,0
0014c1 f411      	BRNE _0x12D
0014c2 2444      	CLR  R4
0014c3 c024      	RJMP _0x282
                 ;            case 1: if (--numMenu<0) numMenu = 0;    break;
                 _0x12D:
0014c4 30e1      	CPI  R30,LOW(0x1)
0014c5 e0a0      	LDI  R26,HIGH(0x1)
0014c6 07fa      	CPC  R31,R26
0014c7 f459      	BRNE _0x12E
0014c8 91a0 0368 	LDS  R26,_numMenu
0014ca 50a1      	SUBI R26,LOW(1)
0014cb 93a0 0368 	STS  _numMenu,R26
0014cd 30a0      	CPI  R26,0
0014ce f41c      	BRGE _0x12F
0014cf e0e0      	LDI  R30,LOW(0)
0014d0 93e0 0368 	STS  _numMenu,R30
                 _0x12F:
0014d2 c017      	RJMP _0x12C
                 ;            case 2: if (++numMenu>MAX_MENU-1) numMenu = MAX_MENU-1;    break;
                 _0x12E:
0014d3 30e2      	CPI  R30,LOW(0x2)
0014d4 e0a0      	LDI  R26,HIGH(0x2)
0014d5 07fa      	CPC  R31,R26
0014d6 f459      	BRNE _0x130
0014d7 91a0 0368 	LDS  R26,_numMenu
0014d9 5faf      	SUBI R26,-LOW(1)
0014da 93a0 0368 	STS  _numMenu,R26
0014dc 30a5      	CPI  R26,LOW(0x5)
0014dd f01c      	BRLT _0x131
0014de e0e4      	LDI  R30,LOW(4)
0014df 93e0 0368 	STS  _numMenu,R30
                 _0x131:
0014e1 c008      	RJMP _0x12C
                 ;            case 3: displ_num = 4; newSetButt = 1; break;
                 _0x130:
0014e2 30e3      	CPI  R30,LOW(0x3)
0014e3 e0a0      	LDI  R26,HIGH(0x3)
0014e4 07fa      	CPC  R31,R26
0014e5 f421      	BRNE _0x12C
0014e6 e0e4      	LDI  R30,LOW(4)
0014e7 2e4e      	MOV  R4,R30
                 _0x282:
0014e8 e0e1      	LDI  R30,LOW(1)
0014e9 2e6e      	MOV  R6,R30
                 ;          }
                 _0x12C:
                 ;          byte = 10;
0014ea e0ea      	LDI  R30,LOW(10)
0014eb 83e9      	STD  Y+1,R30
                 ;        break;
0014ec c49e      	RJMP _0x120
                 ;        //-   -
                 ;        case 4:
                 _0x129:
0014ed 30e4      	CPI  R30,LOW(0x4)
0014ee e0a0      	LDI  R26,HIGH(0x4)
0014ef 07fa      	CPC  R31,R26
0014f0 f009      	BREQ PC+2
0014f1 c0c9      	RJMP _0x133
                 ;          if (numMenu==4) max++;
0014f2 91a0 0368 	LDS  R26,_numMenu
0014f4 30a4      	CPI  R26,LOW(0x4)
0014f5 f409      	BRNE _0x134
0014f6 5f1f      	SUBI R17,-1
                 ;          switch (byte){
                 _0x134:
0014f7 81e9      	LDD  R30,Y+1
0014f8 e0f0      	LDI  R31,0
                 ;            case 0: displ_num = 3; newSetButt = 1; break;
0014f9 9730      	SBIW R30,0
0014fa f429      	BRNE _0x138
0014fb e0e3      	LDI  R30,LOW(3)
0014fc 2e4e      	MOV  R4,R30
0014fd e0e1      	LDI  R30,LOW(1)
0014fe 2e6e      	MOV  R6,R30
0014ff c0b8      	RJMP _0x137
                 ;            case 1: if (--numSet<0) numSet = 0;    break;
                 _0x138:
001500 30e1      	CPI  R30,LOW(0x1)
001501 e0a0      	LDI  R26,HIGH(0x1)
001502 07fa      	CPC  R31,R26
001503 f439      	BRNE _0x139
001504 940e 2348 	CALL SUBOPT_0x37
001506 f41c      	BRGE _0x13A
001507 e0e0      	LDI  R30,LOW(0)
001508 93e0 0369 	STS  _numSet,R30
                 _0x13A:
00150a c0ad      	RJMP _0x137
                 ;            case 2: if (++numSet>max) numSet = max;    break;
                 _0x139:
00150b 30e2      	CPI  R30,LOW(0x2)
00150c e0a0      	LDI  R26,HIGH(0x2)
00150d 07fa      	CPC  R31,R26
00150e f469      	BRNE _0x13B
00150f 940e 234f 	CALL SUBOPT_0x38
001511 2fe1      	MOV  R30,R17
001512 e0b0      	LDI  R27,0
001513 fda7      	SBRC R26,7
001514 efbf      	SER  R27
001515 e0f0      	LDI  R31,0
001516 17ea      	CP   R30,R26
001517 07fb      	CPC  R31,R27
001518 f414      	BRGE _0x13C
001519 9310 0369 	STS  _numSet,R17
                 _0x13C:
00151b c09c      	RJMP _0x137
                 ;            case 3: displ_num = 5; newSetButt = 1;
                 _0x13B:
00151c 30e3      	CPI  R30,LOW(0x3)
00151d e0a0      	LDI  R26,HIGH(0x3)
00151e 07fa      	CPC  R31,R26
00151f f009      	BREQ PC+2
001520 c097      	RJMP _0x137
001521 e0e5      	LDI  R30,LOW(5)
001522 2e4e      	MOV  R4,R30
001523 e0e1      	LDI  R30,LOW(1)
001524 2e6e      	MOV  R6,R30
                 ;              switch (numMenu){
001525 940e 2355 	CALL SUBOPT_0x39
                 ;                case 0: for (byte=0;byte<MAX_SET;byte++) newval[byte] = set[0][byte]; break; // ""
001527 f491      	BRNE _0x141
001528 e0e0      	LDI  R30,LOW(0)
001529 83e9      	STD  Y+1,R30
                 _0x143:
00152a 81a9      	LDD  R26,Y+1
00152b 30a4      	CPI  R26,LOW(0x4)
00152c f460      	BRSH _0x144
00152d 940e 235c 	CALL SUBOPT_0x3A
00152f 010f      	MOVW R0,R30
001530 81e9      	LDD  R30,Y+1
001531 e0a0      	LDI  R26,LOW(_set)
001532 e0b0      	LDI  R27,HIGH(_set)
001533 940e 2361 	CALL SUBOPT_0x3B
001535 81e9      	LDD  R30,Y+1
001536 5fef      	SUBI R30,-LOW(1)
001537 83e9      	STD  Y+1,R30
001538 cff1      	RJMP _0x143
                 _0x144:
001539 c07e      	RJMP _0x140
                 ;                case 1: for (byte=0;byte<MAX_SET;byte++){                                     // ""
                 _0x141:
00153a 30e1      	CPI  R30,LOW(0x1)
00153b e0a0      	LDI  R26,HIGH(0x1)
00153c 07fa      	CPC  R31,R26
00153d f4d1      	BRNE _0x145
00153e e0e0      	LDI  R30,LOW(0)
00153f 83e9      	STD  Y+1,R30
                 _0x147:
001540 81a9      	LDD  R26,Y+1
001541 30a4      	CPI  R26,LOW(0x4)
001542 f4a0      	BRSH _0x148
                 ;                            if (Dht) newval[byte] = set[1][byte];
001543 fe22      	SBRS R2,2
001544 c006      	RJMP _0x149
001545 940e 235c 	CALL SUBOPT_0x3A
001547 010f      	MOVW R0,R30
                +
001548 e0a8     +LDI R26 , LOW ( _set + ( 8 ) )
001549 e0b0     +LDI R27 , HIGH ( _set + ( 8 ) )
                 	__POINTW2MN _set,8
00154a c005      	RJMP _0x283
                 ;                            else newval[byte] = set[2][byte];
                 _0x149:
00154b 940e 235c 	CALL SUBOPT_0x3A
00154d 010f      	MOVW R0,R30
                +
00154e e1a0     +LDI R26 , LOW ( _set + ( 16 ) )
00154f e0b0     +LDI R27 , HIGH ( _set + ( 16 ) )
                 	__POINTW2MN _set,16
                 _0x283:
001550 81e9      	LDD  R30,Y+1
001551 940e 2361 	CALL SUBOPT_0x3B
                 ;                        }
001553 81e9      	LDD  R30,Y+1
001554 5fef      	SUBI R30,-LOW(1)
001555 83e9      	STD  Y+1,R30
001556 cfe9      	RJMP _0x147
                 _0x148:
                 ;                  break;
001557 c060      	RJMP _0x140
                 ;                case 2: for (byte=0;byte<MAX_SET;byte++) newval[byte] = set[3][byte]; break; // ""
                 _0x145:
001558 30e2      	CPI  R30,LOW(0x2)
001559 e0a0      	LDI  R26,HIGH(0x2)
00155a 07fa      	CPC  R31,R26
00155b f491      	BRNE _0x14B
00155c e0e0      	LDI  R30,LOW(0)
00155d 83e9      	STD  Y+1,R30
                 _0x14D:
00155e 81a9      	LDD  R26,Y+1
00155f 30a4      	CPI  R26,LOW(0x4)
001560 f460      	BRSH _0x14E
001561 940e 235c 	CALL SUBOPT_0x3A
001563 010f      	MOVW R0,R30
                +
001564 e1a8     +LDI R26 , LOW ( _set + ( 24 ) )
001565 e0b0     +LDI R27 , HIGH ( _set + ( 24 ) )
                 	__POINTW2MN _set,24
001566 81e9      	LDD  R30,Y+1
001567 940e 2361 	CALL SUBOPT_0x3B
001569 81e9      	LDD  R30,Y+1
00156a 5fef      	SUBI R30,-LOW(1)
00156b 83e9      	STD  Y+1,R30
00156c cff1      	RJMP _0x14D
                 _0x14E:
00156d c04a      	RJMP _0x140
                 ;                case 3: for (byte=0;byte<MAX_SET;byte++) newval[byte] = set[4][byte]; break; // ""
                 _0x14B:
00156e 30e3      	CPI  R30,LOW(0x3)
00156f e0a0      	LDI  R26,HIGH(0x3)
001570 07fa      	CPC  R31,R26
001571 f491      	BRNE _0x14F
001572 e0e0      	LDI  R30,LOW(0)
001573 83e9      	STD  Y+1,R30
                 _0x151:
001574 81a9      	LDD  R26,Y+1
001575 30a4      	CPI  R26,LOW(0x4)
001576 f460      	BRSH _0x152
001577 940e 235c 	CALL SUBOPT_0x3A
001579 010f      	MOVW R0,R30
                +
00157a e2a0     +LDI R26 , LOW ( _set + ( 32 ) )
00157b e0b0     +LDI R27 , HIGH ( _set + ( 32 ) )
                 	__POINTW2MN _set,32
00157c 81e9      	LDD  R30,Y+1
00157d 940e 2361 	CALL SUBOPT_0x3B
00157f 81e9      	LDD  R30,Y+1
001580 5fef      	SUBI R30,-LOW(1)
001581 83e9      	STD  Y+1,R30
001582 cff1      	RJMP _0x151
                 _0x152:
001583 c034      	RJMP _0x140
                 ;                case 4: for (byte=0;byte<2;byte++) newval[byte] = Bcd2ToByte(clock_buffer[byte+1]);
                 _0x14F:
001584 30e4      	CPI  R30,LOW(0x4)
001585 e0a0      	LDI  R26,HIGH(0x4)
001586 07fa      	CPC  R31,R26
001587 f581      	BRNE _0x140
001588 e0e0      	LDI  R30,LOW(0)
001589 83e9      	STD  Y+1,R30
                 _0x155:
00158a 81a9      	LDD  R26,Y+1
00158b 30a2      	CPI  R26,LOW(0x2)
00158c f498      	BRSH _0x156
00158d 940e 235c 	CALL SUBOPT_0x3A
00158f 93ff      	PUSH R31
001590 93ef      	PUSH R30
001591 81e9      	LDD  R30,Y+1
001592 e0f0      	LDI  R31,0
                +
001593 54ea     +SUBI R30 , LOW ( - _clock_buffer - ( 1 ) )
001594 4ffc     +SBCI R31 , HIGH ( - _clock_buffer - ( 1 ) )
                 	__ADDW1MN _clock_buffer,1
001595 81a0      	LD   R26,Z
001596 dee4      	RCALL _Bcd2ToByte
001597 91af      	POP  R26
001598 91bf      	POP  R27
001599 e0f0      	LDI  R31,0
00159a 93ed      	ST   X+,R30
00159b 93fc      	ST   X,R31
00159c 81e9      	LDD  R30,Y+1
00159d 5fef      	SUBI R30,-LOW(1)
00159e 83e9      	STD  Y+1,R30
00159f cfea      	RJMP _0x155
                 _0x156:
0015a0 e0e2      	LDI  R30,LOW(2)
0015a1 83e9      	STD  Y+1,R30
                 _0x158:
0015a2 81a9      	LDD  R26,Y+1
0015a3 30a5      	CPI  R26,LOW(0x5)
0015a4 f498      	BRSH _0x159
0015a5 940e 235c 	CALL SUBOPT_0x3A
0015a7 93ff      	PUSH R31
0015a8 93ef      	PUSH R30
0015a9 81e9      	LDD  R30,Y+1
0015aa e0f0      	LDI  R31,0
                +
0015ab 54e9     +SUBI R30 , LOW ( - _clock_buffer - ( 2 ) )
0015ac 4ffc     +SBCI R31 , HIGH ( - _clock_buffer - ( 2 ) )
                 	__ADDW1MN _clock_buffer,2
0015ad 81a0      	LD   R26,Z
0015ae decc      	RCALL _Bcd2ToByte
0015af 91af      	POP  R26
0015b0 91bf      	POP  R27
0015b1 e0f0      	LDI  R31,0
0015b2 93ed      	ST   X+,R30
0015b3 93fc      	ST   X,R31
0015b4 81e9      	LDD  R30,Y+1
0015b5 5fef      	SUBI R30,-LOW(1)
0015b6 83e9      	STD  Y+1,R30
0015b7 cfea      	RJMP _0x158
                 _0x159:
                 ;              };
                 _0x140:
                 ;            break;
                 ;          }
                 _0x137:
                 ;          byte = 10;
0015b8 e0ea      	LDI  R30,LOW(10)
0015b9 83e9      	STD  Y+1,R30
                 ;        break;
0015ba c3d0      	RJMP _0x120
                 ;        //-  -
                 ;        case 5:
                 _0x133:
0015bb 30e5      	CPI  R30,LOW(0x5)
0015bc e0a0      	LDI  R26,HIGH(0x5)
0015bd 07fa      	CPC  R31,R26
0015be f009      	BREQ PC+2
0015bf c2b3      	RJMP _0x15A
                 ;          switch (byte){
0015c0 81e9      	LDD  R30,Y+1
0015c1 e0f0      	LDI  R31,0
                 ;               case 0: displ_num = 4; newSetButt = 1; break;
0015c2 9730      	SBIW R30,0
0015c3 f409      	BRNE _0x15E
0015c4 c2a7      	RJMP _0x284
                 ;            case 1: ++newval[numSet];
                 _0x15E:
0015c5 30e1      	CPI  R30,LOW(0x1)
0015c6 e0a0      	LDI  R26,HIGH(0x1)
0015c7 07fa      	CPC  R31,R26
0015c8 f009      	BREQ PC+2
0015c9 c12a      	RJMP _0x15F
0015ca 940e 236c 	CALL SUBOPT_0x3C
0015cc 940e 2376 	CALL SUBOPT_0x3D
                 ;                 switch (numMenu) {
0015ce 940e 2355 	CALL SUBOPT_0x39
                 ;                    case 0:  // 
0015d0 f009      	BREQ PC+2
0015d1 c042      	RJMP _0x163
                 ;                        switch (numSet) {
0015d2 940e 237c 	CALL SUBOPT_0x3E
                 ;                            case 0: if(newval[numSet]>1200) newval[numSet]=1200; break;   // 
0015d4 f479      	BRNE _0x167
0015d5 940e 236c 	CALL SUBOPT_0x3C
0015d7 940e 26f3 	CALL __GETW1P
0015d9 3be1      	CPI  R30,LOW(0x4B1)
0015da e0a4      	LDI  R26,HIGH(0x4B1)
0015db 07fa      	CPC  R31,R26
0015dc f034      	BRLT _0x168
0015dd 940e 236c 	CALL SUBOPT_0x3C
0015df ebe0      	LDI  R30,LOW(1200)
0015e0 e0f4      	LDI  R31,HIGH(1200)
0015e1 93ed      	ST   X+,R30
0015e2 93fc      	ST   X,R31
                 _0x168:
0015e3 c02f      	RJMP _0x166
                 ;                            case 1: if(newval[numSet]>500) newval[numSet]=500; break;   // 
                 _0x167:
0015e4 30e1      	CPI  R30,LOW(0x1)
0015e5 e0a0      	LDI  R26,HIGH(0x1)
0015e6 07fa      	CPC  R31,R26
0015e7 f479      	BRNE _0x169
0015e8 940e 236c 	CALL SUBOPT_0x3C
0015ea 940e 26f3 	CALL __GETW1P
0015ec 3fe5      	CPI  R30,LOW(0x1F5)
0015ed e0a1      	LDI  R26,HIGH(0x1F5)
0015ee 07fa      	CPC  R31,R26
0015ef f034      	BRLT _0x16A
0015f0 940e 236c 	CALL SUBOPT_0x3C
0015f2 efe4      	LDI  R30,LOW(500)
0015f3 e0f1      	LDI  R31,HIGH(500)
0015f4 93ed      	ST   X+,R30
0015f5 93fc      	ST   X,R31
                 _0x16A:
0015f6 c01c      	RJMP _0x166
                 ;                            case 2: if(newval[numSet]>100) newval[numSet]=100; break;   // 
                 _0x169:
0015f7 30e2      	CPI  R30,LOW(0x2)
0015f8 e0a0      	LDI  R26,HIGH(0x2)
0015f9 07fa      	CPC  R31,R26
0015fa f451      	BRNE _0x16B
0015fb 940e 236c 	CALL SUBOPT_0x3C
0015fd 940e 2383 	CALL SUBOPT_0x3F
0015ff f024      	BRLT _0x16C
001600 940e 236c 	CALL SUBOPT_0x3C
001602 940e 2389 	CALL SUBOPT_0x40
                 _0x16C:
001604 c00e      	RJMP _0x166
                 ;                            case 3: if(newval[numSet]>1)  newval[numSet]=1;    break;   // 
                 _0x16B:
001605 30e3      	CPI  R30,LOW(0x3)
001606 e0a0      	LDI  R26,HIGH(0x3)
001607 07fa      	CPC  R31,R26
001608 f451      	BRNE _0x166
001609 940e 236c 	CALL SUBOPT_0x3C
00160b 940e 26f3 	CALL __GETW1P
00160d 9732      	SBIW R30,2
00160e f024      	BRLT _0x16E
00160f 940e 236c 	CALL SUBOPT_0x3C
001611 940e 238e 	CALL SUBOPT_0x41
                 _0x16E:
                 ;                        };
                 _0x166:
                 ;                    break;
001613 c0df      	RJMP _0x162
                 ;                    case 1:  // 
                 _0x163:
001614 30e1      	CPI  R30,LOW(0x1)
001615 e0a0      	LDI  R26,HIGH(0x1)
001616 07fa      	CPC  R31,R26
001617 f009      	BREQ PC+2
001618 c084      	RJMP _0x16F
                 ;                        if (Dht){
001619 fe22      	SBRS R2,2
00161a c040      	RJMP _0x170
                 ;                            switch (numSet) {
00161b 940e 237c 	CALL SUBOPT_0x3E
                 ;                                case 0: if(newval[numSet]>100) newval[numSet]=100; break;   // 
00161d f451      	BRNE _0x174
00161e 940e 236c 	CALL SUBOPT_0x3C
001620 940e 2383 	CALL SUBOPT_0x3F
001622 f024      	BRLT _0x175
001623 940e 236c 	CALL SUBOPT_0x3C
001625 940e 2389 	CALL SUBOPT_0x40
                 _0x175:
001627 c032      	RJMP _0x173
                 ;                                case 1: if(newval[numSet]>90) newval[numSet]=90; break;   // 
                 _0x174:
001628 30e1      	CPI  R30,LOW(0x1)
001629 e0a0      	LDI  R26,HIGH(0x1)
00162a 07fa      	CPC  R31,R26
00162b f479      	BRNE _0x176
00162c 940e 236c 	CALL SUBOPT_0x3C
00162e 940e 26f3 	CALL __GETW1P
001630 35eb      	CPI  R30,LOW(0x5B)
001631 e0a0      	LDI  R26,HIGH(0x5B)
001632 07fa      	CPC  R31,R26
001633 f034      	BRLT _0x177
001634 940e 236c 	CALL SUBOPT_0x3C
001636 e5ea      	LDI  R30,LOW(90)
001637 e0f0      	LDI  R31,HIGH(90)
001638 93ed      	ST   X+,R30
001639 93fc      	ST   X,R31
                 _0x177:
00163a c01f      	RJMP _0x173
                 ;                                case 2: if(newval[numSet]>50) newval[numSet]=50; break;   // 
                 _0x176:
00163b 30e2      	CPI  R30,LOW(0x2)
00163c e0a0      	LDI  R26,HIGH(0x2)
00163d 07fa      	CPC  R31,R26
00163e f469      	BRNE _0x178
00163f 940e 236c 	CALL SUBOPT_0x3C
001641 940e 26f3 	CALL __GETW1P
001643 97f3      	SBIW R30,51
001644 f034      	BRLT _0x179
001645 940e 236c 	CALL SUBOPT_0x3C
001647 e3e2      	LDI  R30,LOW(50)
001648 e0f0      	LDI  R31,HIGH(50)
001649 93ed      	ST   X+,R30
00164a 93fc      	ST   X,R31
                 _0x179:
00164b c00e      	RJMP _0x173
                 ;                                case 3: if(newval[numSet]>1)  newval[numSet]=1;  break;   // 
                 _0x178:
00164c 30e3      	CPI  R30,LOW(0x3)
00164d e0a0      	LDI  R26,HIGH(0x3)
00164e 07fa      	CPC  R31,R26
00164f f451      	BRNE _0x173
001650 940e 236c 	CALL SUBOPT_0x3C
001652 940e 26f3 	CALL __GETW1P
001654 9732      	SBIW R30,2
001655 f024      	BRLT _0x17B
001656 940e 236c 	CALL SUBOPT_0x3C
001658 940e 238e 	CALL SUBOPT_0x41
                 _0x17B:
                 ;                            };
                 _0x173:
                 ;                        }
                 ;                        else {
00165a c041      	RJMP _0x17C
                 _0x170:
                 ;                            switch (numSet) {
00165b 940e 237c 	CALL SUBOPT_0x3E
                 ;                                case 0: if(newval[numSet]>1200) newval[numSet]=1200; break;   // 
00165d f479      	BRNE _0x180
00165e 940e 236c 	CALL SUBOPT_0x3C
001660 940e 26f3 	CALL __GETW1P
001662 3be1      	CPI  R30,LOW(0x4B1)
001663 e0a4      	LDI  R26,HIGH(0x4B1)
001664 07fa      	CPC  R31,R26
001665 f034      	BRLT _0x181
001666 940e 236c 	CALL SUBOPT_0x3C
001668 ebe0      	LDI  R30,LOW(1200)
001669 e0f4      	LDI  R31,HIGH(1200)
00166a 93ed      	ST   X+,R30
00166b 93fc      	ST   X,R31
                 _0x181:
00166c c02f      	RJMP _0x17F
                 ;                                case 1: if(newval[numSet]>500) newval[numSet]=500; break;   // 
                 _0x180:
00166d 30e1      	CPI  R30,LOW(0x1)
00166e e0a0      	LDI  R26,HIGH(0x1)
00166f 07fa      	CPC  R31,R26
001670 f479      	BRNE _0x182
001671 940e 236c 	CALL SUBOPT_0x3C
001673 940e 26f3 	CALL __GETW1P
001675 3fe5      	CPI  R30,LOW(0x1F5)
001676 e0a1      	LDI  R26,HIGH(0x1F5)
001677 07fa      	CPC  R31,R26
001678 f034      	BRLT _0x183
001679 940e 236c 	CALL SUBOPT_0x3C
00167b efe4      	LDI  R30,LOW(500)
00167c e0f1      	LDI  R31,HIGH(500)
00167d 93ed      	ST   X+,R30
00167e 93fc      	ST   X,R31
                 _0x183:
00167f c01c      	RJMP _0x17F
                 ;                                case 2: if(newval[numSet]>100) newval[numSet]=100; break;   // 
                 _0x182:
001680 30e2      	CPI  R30,LOW(0x2)
001681 e0a0      	LDI  R26,HIGH(0x2)
001682 07fa      	CPC  R31,R26
001683 f451      	BRNE _0x184
001684 940e 236c 	CALL SUBOPT_0x3C
001686 940e 2383 	CALL SUBOPT_0x3F
001688 f024      	BRLT _0x185
001689 940e 236c 	CALL SUBOPT_0x3C
00168b 940e 2389 	CALL SUBOPT_0x40
                 _0x185:
00168d c00e      	RJMP _0x17F
                 ;                                case 3: if(newval[numSet]>1)  newval[numSet]=1;  break;   // 
                 _0x184:
00168e 30e3      	CPI  R30,LOW(0x3)
00168f e0a0      	LDI  R26,HIGH(0x3)
001690 07fa      	CPC  R31,R26
001691 f451      	BRNE _0x17F
001692 940e 236c 	CALL SUBOPT_0x3C
001694 940e 26f3 	CALL __GETW1P
001696 9732      	SBIW R30,2
001697 f024      	BRLT _0x187
001698 940e 236c 	CALL SUBOPT_0x3C
00169a 940e 238e 	CALL SUBOPT_0x41
                 _0x187:
                 ;                            };
                 _0x17F:
                 ;                        }
                 _0x17C:
                 ;                    break;
00169c c056      	RJMP _0x162
                 ;                    case 2:  // 
                 _0x16F:
00169d 30e2      	CPI  R30,LOW(0x2)
00169e e0a0      	LDI  R26,HIGH(0x2)
00169f 07fa      	CPC  R31,R26
0016a0 f009      	BREQ PC+2
0016a1 c042      	RJMP _0x188
                 ;                        switch (numSet) {
0016a2 940e 237c 	CALL SUBOPT_0x3E
                 ;                            case 0: if(newval[numSet]>3600) newval[numSet]=3600; break;   // 
0016a4 f479      	BRNE _0x18C
0016a5 940e 236c 	CALL SUBOPT_0x3C
0016a7 940e 26f3 	CALL __GETW1P
0016a9 31e1      	CPI  R30,LOW(0xE11)
0016aa e0ae      	LDI  R26,HIGH(0xE11)
0016ab 07fa      	CPC  R31,R26
0016ac f034      	BRLT _0x18D
0016ad 940e 236c 	CALL SUBOPT_0x3C
0016af e1e0      	LDI  R30,LOW(3600)
0016b0 e0fe      	LDI  R31,HIGH(3600)
0016b1 93ed      	ST   X+,R30
0016b2 93fc      	ST   X,R31
                 _0x18D:
0016b3 c02f      	RJMP _0x18B
                 ;                            case 1: if(newval[numSet]>3600) newval[numSet]=3600; break;   // 
                 _0x18C:
0016b4 30e1      	CPI  R30,LOW(0x1)
0016b5 e0a0      	LDI  R26,HIGH(0x1)
0016b6 07fa      	CPC  R31,R26
0016b7 f479      	BRNE _0x18E
0016b8 940e 236c 	CALL SUBOPT_0x3C
0016ba 940e 26f3 	CALL __GETW1P
0016bc 31e1      	CPI  R30,LOW(0xE11)
0016bd e0ae      	LDI  R26,HIGH(0xE11)
0016be 07fa      	CPC  R31,R26
0016bf f034      	BRLT _0x18F
0016c0 940e 236c 	CALL SUBOPT_0x3C
0016c2 e1e0      	LDI  R30,LOW(3600)
0016c3 e0fe      	LDI  R31,HIGH(3600)
0016c4 93ed      	ST   X+,R30
0016c5 93fc      	ST   X,R31
                 _0x18F:
0016c6 c01c      	RJMP _0x18B
                 ;                            case 2: if(newval[numSet]>1) newval[numSet]=1; break;   // 
                 _0x18E:
0016c7 30e2      	CPI  R30,LOW(0x2)
0016c8 e0a0      	LDI  R26,HIGH(0x2)
0016c9 07fa      	CPC  R31,R26
0016ca f459      	BRNE _0x190
0016cb 940e 236c 	CALL SUBOPT_0x3C
0016cd 940e 26f3 	CALL __GETW1P
0016cf 9732      	SBIW R30,2
0016d0 f024      	BRLT _0x191
0016d1 940e 236c 	CALL SUBOPT_0x3C
0016d3 940e 238e 	CALL SUBOPT_0x41
                 _0x191:
0016d5 c00d      	RJMP _0x18B
                 ;                            case 3: if(newval[numSet]>100) newval[numSet]=100; break;   // 
                 _0x190:
0016d6 30e3      	CPI  R30,LOW(0x3)
0016d7 e0a0      	LDI  R26,HIGH(0x3)
0016d8 07fa      	CPC  R31,R26
0016d9 f449      	BRNE _0x18B
0016da 940e 236c 	CALL SUBOPT_0x3C
0016dc 940e 2383 	CALL SUBOPT_0x3F
0016de f024      	BRLT _0x193
0016df 940e 236c 	CALL SUBOPT_0x3C
0016e1 940e 2389 	CALL SUBOPT_0x40
                 _0x193:
                 ;                        };
                 _0x18B:
                 ;                    break;
0016e3 c00f      	RJMP _0x162
                 ;                    case 3:  // 
                 _0x188:
0016e4 30e3      	CPI  R30,LOW(0x3)
0016e5 e0a0      	LDI  R26,HIGH(0x3)
0016e6 07fa      	CPC  R31,R26
0016e7 f421      	BRNE _0x194
                 ;                        switch (numSet) {
0016e8 940e 237c 	CALL SUBOPT_0x3E
                 ;                            case 0:    break;   //
0016ea f001      	BREQ _0x197
                 ;                            case 1:    break;   //
                 ;                            case 2:    break;   //
                 ;                            case 3:    break;   //
                 ;                            case 4:    break;   //
                 ;                        };
                 _0x197:
                 ;                    break;
0016eb c007      	RJMP _0x162
                 ;                    case 4:  //   
                 _0x194:
0016ec 30e4      	CPI  R30,LOW(0x4)
0016ed e0a0      	LDI  R26,HIGH(0x4)
0016ee 07fa      	CPC  R31,R26
0016ef f419      	BRNE _0x162
                 ;                        switch (numSet) {
0016f0 940e 237c 	CALL SUBOPT_0x3E
                 ;                            case 0:    break;   //
0016f2 f001      	BREQ _0x1A0
                 ;                            case 1:    break;   //
                 ;                            case 2:    break;   //
                 ;                            case 3:    break;   //
                 ;                            case 4:    break;   //
                 ;                        };
                 _0x1A0:
                 ;                    break;
                 ;                  };
                 _0x162:
                 ;            break;
0016f3 c17c      	RJMP _0x15D
                 ;            case 2: --newval[numSet];
                 _0x15F:
0016f4 30e2      	CPI  R30,LOW(0x2)
0016f5 e0a0      	LDI  R26,HIGH(0x2)
0016f6 07fa      	CPC  R31,R26
0016f7 f009      	BREQ PC+2
0016f8 c0d5      	RJMP _0x1A6
0016f9 940e 236c 	CALL SUBOPT_0x3C
0016fb 940e 2393 	CALL SUBOPT_0x42
                 ;                 switch (numMenu) {
0016fd 940e 2355 	CALL SUBOPT_0x39
                 ;                    case 0:  // 
0016ff f009      	BREQ PC+2
001700 c03f      	RJMP _0x1AA
                 ;                        switch (numSet) {
001701 940e 237c 	CALL SUBOPT_0x3E
                 ;                            case 0: if(newval[numSet]<-500) newval[numSet]=-500; break;   // 
001703 f479      	BRNE _0x1AE
001704 940e 236c 	CALL SUBOPT_0x3C
001706 940e 26f3 	CALL __GETW1P
001708 30ec      	CPI  R30,LOW(0xFE0C)
001709 efae      	LDI  R26,HIGH(0xFE0C)
00170a 07fa      	CPC  R31,R26
00170b f434      	BRGE _0x1AF
00170c 940e 236c 	CALL SUBOPT_0x3C
00170e e0ec      	LDI  R30,LOW(65036)
00170f effe      	LDI  R31,HIGH(65036)
001710 93ed      	ST   X+,R30
001711 93fc      	ST   X,R31
                 _0x1AF:
001712 c02c      	RJMP _0x1AD
                 ;                            case 1: if(newval[numSet]<1) newval[numSet]=1; break;   // 
                 _0x1AE:
001713 30e1      	CPI  R30,LOW(0x1)
001714 e0a0      	LDI  R26,HIGH(0x1)
001715 07fa      	CPC  R31,R26
001716 f459      	BRNE _0x1B0
001717 940e 236c 	CALL SUBOPT_0x3C
001719 940e 26f3 	CALL __GETW1P
00171b 9731      	SBIW R30,1
00171c f424      	BRGE _0x1B1
00171d 940e 236c 	CALL SUBOPT_0x3C
00171f 940e 238e 	CALL SUBOPT_0x41
                 _0x1B1:
001721 c01d      	RJMP _0x1AD
                 ;                            case 2: if(newval[numSet]<1) newval[numSet]=1; break;   // 
                 _0x1B0:
001722 30e2      	CPI  R30,LOW(0x2)
001723 e0a0      	LDI  R26,HIGH(0x2)
001724 07fa      	CPC  R31,R26
001725 f459      	BRNE _0x1B2
001726 940e 236c 	CALL SUBOPT_0x3C
001728 940e 26f3 	CALL __GETW1P
00172a 9731      	SBIW R30,1
00172b f424      	BRGE _0x1B3
00172c 940e 236c 	CALL SUBOPT_0x3C
00172e 940e 238e 	CALL SUBOPT_0x41
                 _0x1B3:
001730 c00e      	RJMP _0x1AD
                 ;                            case 3: if(newval[numSet]<0) newval[numSet]=0; break;   // 
                 _0x1B2:
001731 30e3      	CPI  R30,LOW(0x3)
001732 e0a0      	LDI  R26,HIGH(0x3)
001733 07fa      	CPC  R31,R26
001734 f451      	BRNE _0x1AD
001735 940e 236c 	CALL SUBOPT_0x3C
001737 940e 26f3 	CALL __GETW1P
001739 23ff      	TST  R31
00173a f422      	BRPL _0x1B5
00173b 940e 236c 	CALL SUBOPT_0x3C
00173d 940e 2399 	CALL SUBOPT_0x43
                 _0x1B5:
                 ;                        };
                 _0x1AD:
                 ;                    break;
00173f c08d      	RJMP _0x1A9
                 ;                    case 1:  // 
                 _0x1AA:
001740 30e1      	CPI  R30,LOW(0x1)
001741 e0a0      	LDI  R26,HIGH(0x1)
001742 07fa      	CPC  R31,R26
001743 f5e9      	BRNE _0x1B6
                 ;                        switch (numSet) {
001744 940e 237c 	CALL SUBOPT_0x3E
                 ;                            case 0: if(newval[numSet]<10) newval[numSet]=10; break;   // 
001746 f469      	BRNE _0x1BA
001747 940e 236c 	CALL SUBOPT_0x3C
001749 940e 26f3 	CALL __GETW1P
00174b 973a      	SBIW R30,10
00174c f434      	BRGE _0x1BB
00174d 940e 236c 	CALL SUBOPT_0x3C
00174f e0ea      	LDI  R30,LOW(10)
001750 e0f0      	LDI  R31,HIGH(10)
001751 93ed      	ST   X+,R30
001752 93fc      	ST   X,R31
                 _0x1BB:
001753 c02c      	RJMP _0x1B9
                 ;                            case 1: if(newval[numSet]<1) newval[numSet]=1; break;   // 
                 _0x1BA:
001754 30e1      	CPI  R30,LOW(0x1)
001755 e0a0      	LDI  R26,HIGH(0x1)
001756 07fa      	CPC  R31,R26
001757 f459      	BRNE _0x1BC
001758 940e 236c 	CALL SUBOPT_0x3C
00175a 940e 26f3 	CALL __GETW1P
00175c 9731      	SBIW R30,1
00175d f424      	BRGE _0x1BD
00175e 940e 236c 	CALL SUBOPT_0x3C
001760 940e 238e 	CALL SUBOPT_0x41
                 _0x1BD:
001762 c01d      	RJMP _0x1B9
                 ;                            case 2: if(newval[numSet]<1) newval[numSet]=1; break;   // 
                 _0x1BC:
001763 30e2      	CPI  R30,LOW(0x2)
001764 e0a0      	LDI  R26,HIGH(0x2)
001765 07fa      	CPC  R31,R26
001766 f459      	BRNE _0x1BE
001767 940e 236c 	CALL SUBOPT_0x3C
001769 940e 26f3 	CALL __GETW1P
00176b 9731      	SBIW R30,1
00176c f424      	BRGE _0x1BF
00176d 940e 236c 	CALL SUBOPT_0x3C
00176f 940e 238e 	CALL SUBOPT_0x41
                 _0x1BF:
001771 c00e      	RJMP _0x1B9
                 ;                            case 3: if(newval[numSet]<0) newval[numSet]=0; break;   // 
                 _0x1BE:
001772 30e3      	CPI  R30,LOW(0x3)
001773 e0a0      	LDI  R26,HIGH(0x3)
001774 07fa      	CPC  R31,R26
001775 f451      	BRNE _0x1B9
001776 940e 236c 	CALL SUBOPT_0x3C
001778 940e 26f3 	CALL __GETW1P
00177a 23ff      	TST  R31
00177b f422      	BRPL _0x1C1
00177c 940e 236c 	CALL SUBOPT_0x3C
00177e 940e 2399 	CALL SUBOPT_0x43
                 _0x1C1:
                 ;                        };
                 _0x1B9:
                 ;                    break;
001780 c04c      	RJMP _0x1A9
                 ;                    case 2:  // 
                 _0x1B6:
001781 30e2      	CPI  R30,LOW(0x2)
001782 e0a0      	LDI  R26,HIGH(0x2)
001783 07fa      	CPC  R31,R26
001784 f5d9      	BRNE _0x1C2
                 ;                        switch (numSet) {
001785 940e 237c 	CALL SUBOPT_0x3E
                 ;                            case 0: if(newval[numSet]<1) newval[numSet]=1; break;   // 
001787 f459      	BRNE _0x1C6
001788 940e 236c 	CALL SUBOPT_0x3C
00178a 940e 26f3 	CALL __GETW1P
00178c 9731      	SBIW R30,1
00178d f424      	BRGE _0x1C7
00178e 940e 236c 	CALL SUBOPT_0x3C
001790 940e 238e 	CALL SUBOPT_0x41
                 _0x1C7:
001792 c02c      	RJMP _0x1C5
                 ;                            case 1: if(newval[numSet]<1) newval[numSet]=1; break;   // 
                 _0x1C6:
001793 30e1      	CPI  R30,LOW(0x1)
001794 e0a0      	LDI  R26,HIGH(0x1)
001795 07fa      	CPC  R31,R26
001796 f459      	BRNE _0x1C8
001797 940e 236c 	CALL SUBOPT_0x3C
001799 940e 26f3 	CALL __GETW1P
00179b 9731      	SBIW R30,1
00179c f424      	BRGE _0x1C9
00179d 940e 236c 	CALL SUBOPT_0x3C
00179f 940e 238e 	CALL SUBOPT_0x41
                 _0x1C9:
0017a1 c01d      	RJMP _0x1C5
                 ;                            case 2: if(newval[numSet]<0) newval[numSet]=0; break;   // 
                 _0x1C8:
0017a2 30e2      	CPI  R30,LOW(0x2)
0017a3 e0a0      	LDI  R26,HIGH(0x2)
0017a4 07fa      	CPC  R31,R26
0017a5 f459      	BRNE _0x1CA
0017a6 940e 236c 	CALL SUBOPT_0x3C
0017a8 940e 26f3 	CALL __GETW1P
0017aa 23ff      	TST  R31
0017ab f422      	BRPL _0x1CB
0017ac 940e 236c 	CALL SUBOPT_0x3C
0017ae 940e 2399 	CALL SUBOPT_0x43
                 _0x1CB:
0017b0 c00e      	RJMP _0x1C5
                 ;                            case 3: if(newval[numSet]<1) newval[numSet]=1; break;   // 
                 _0x1CA:
0017b1 30e3      	CPI  R30,LOW(0x3)
0017b2 e0a0      	LDI  R26,HIGH(0x3)
0017b3 07fa      	CPC  R31,R26
0017b4 f451      	BRNE _0x1C5
0017b5 940e 236c 	CALL SUBOPT_0x3C
0017b7 940e 26f3 	CALL __GETW1P
0017b9 9731      	SBIW R30,1
0017ba f424      	BRGE _0x1CD
0017bb 940e 236c 	CALL SUBOPT_0x3C
0017bd 940e 238e 	CALL SUBOPT_0x41
                 _0x1CD:
                 ;                        };
                 _0x1C5:
                 ;                    break;
0017bf c00d      	RJMP _0x1A9
                 ;                    case 3:  // 
                 _0x1C2:
0017c0 30e3      	CPI  R30,LOW(0x3)
0017c1 e0a0      	LDI  R26,HIGH(0x3)
0017c2 07fa      	CPC  R31,R26
0017c3 f419      	BRNE _0x1CE
                 ;                        switch (numSet) {
0017c4 940e 237c 	CALL SUBOPT_0x3E
                 ;                            case 0:    break;   //
                 ;                            case 1:    break;   //
                 ;                            case 2:    break;   //
                 ;                            case 3:    break;   //
                 ;                        };
                 _0x1D1:
                 ;                    break;
0017c6 c006      	RJMP _0x1A9
                 ;                    case 4:  //   
                 _0x1CE:
0017c7 30e4      	CPI  R30,LOW(0x4)
0017c8 e0a0      	LDI  R26,HIGH(0x4)
0017c9 07fa      	CPC  R31,R26
0017ca f411      	BRNE _0x1A9
                 ;                        switch (numSet) {
0017cb 940e 237c 	CALL SUBOPT_0x3E
                 ;                            case 0:    break;   //
                 ;                            case 1:    break;   //
                 ;                            case 2:    break;   //
                 ;                            case 3:    break;   //
                 ;                        };
                 _0x1D9:
                 ;                    break;
                 ;                  };
                 _0x1A9:
                 ;            break;
0017cd c0a2      	RJMP _0x15D
                 ;            case 3: ILI9341_FillScreen(0, max_X, 0, max_Y, fillScreen);
                 _0x1A6:
0017ce 30e3      	CPI  R30,LOW(0x3)
0017cf e0a0      	LDI  R26,HIGH(0x3)
0017d0 07fa      	CPC  R31,R26
0017d1 f009      	BREQ PC+2
0017d2 c09d      	RJMP _0x15D
0017d3 940e 2280 	CALL SUBOPT_0x16
0017d5 940e 239e 	CALL SUBOPT_0x44
0017d7 940e 23a2 	CALL SUBOPT_0x45
                 ;                  ILI9341_WriteString(5,100,"  ",Font_11x18,GREEN,fillScreen,1);
                +
0017d9 e6e4     +LDI R30 , LOW ( _0x1DF + ( 0 ) )
0017da e0f2     +LDI R31 , HIGH ( _0x1DF + ( 0 ) )
                 	__POINTW1MN _0x1DF,0
0017db 940e 23b7 	CALL SUBOPT_0x46
0017dd 940e 23ba 	CALL SUBOPT_0x47
                 ;                  switch (numMenu){
0017df 940e 2355 	CALL SUBOPT_0x39
                 ;                    case 0: set[0][numSet] = newval[numSet]; break; // ""
0017e1 f469      	BRNE _0x1E3
0017e2 91e0 0369 	LDS  R30,_numSet
0017e4 e0a0      	LDI  R26,LOW(_set)
0017e5 e0b0      	LDI  R27,HIGH(_set)
0017e6 e0f0      	LDI  R31,0
0017e7 940e 221d 	CALL SUBOPT_0xB
0017e9 010f      	MOVW R0,R30
0017ea 940e 236c 	CALL SUBOPT_0x3C
0017ec 940e 23c3 	CALL SUBOPT_0x48
0017ee c079      	RJMP _0x1E2
                 ;                    case 1: if (Dht) set[1][numSet] = newval[numSet];  // ""
                 _0x1E3:
0017ef 30e1      	CPI  R30,LOW(0x1)
0017f0 e0a0      	LDI  R26,HIGH(0x1)
0017f1 07fa      	CPC  R31,R26
0017f2 f491      	BRNE _0x1E4
0017f3 fe22      	SBRS R2,2
0017f4 c003      	RJMP _0x1E5
                +
0017f5 e0a8     +LDI R26 , LOW ( _set + ( 8 ) )
0017f6 e0b0     +LDI R27 , HIGH ( _set + ( 8 ) )
                 	__POINTW2MN _set,8
0017f7 c002      	RJMP _0x285
                 ;                            else set[2][numSet] = newval[numSet];
                 _0x1E5:
                +
0017f8 e1a0     +LDI R26 , LOW ( _set + ( 16 ) )
0017f9 e0b0     +LDI R27 , HIGH ( _set + ( 16 ) )
                 	__POINTW2MN _set,16
                 _0x285:
0017fa 91e0 0369 	LDS  R30,_numSet
0017fc e0f0      	LDI  R31,0
0017fd 940e 221d 	CALL SUBOPT_0xB
0017ff 010f      	MOVW R0,R30
001800 940e 236c 	CALL SUBOPT_0x3C
001802 940e 23c3 	CALL SUBOPT_0x48
                 ;                      break;
001804 c063      	RJMP _0x1E2
                 ;                    case 2: set[3][numSet] = newval[numSet]; break; // ""
                 _0x1E4:
001805 30e2      	CPI  R30,LOW(0x2)
001806 e0a0      	LDI  R26,HIGH(0x2)
001807 07fa      	CPC  R31,R26
001808 f469      	BRNE _0x1E7
                +
001809 e1a8     +LDI R26 , LOW ( _set + ( 24 ) )
00180a e0b0     +LDI R27 , HIGH ( _set + ( 24 ) )
                 	__POINTW2MN _set,24
00180b 91e0 0369 	LDS  R30,_numSet
00180d e0f0      	LDI  R31,0
00180e 940e 221d 	CALL SUBOPT_0xB
001810 010f      	MOVW R0,R30
001811 940e 236c 	CALL SUBOPT_0x3C
001813 940e 23c3 	CALL SUBOPT_0x48
001815 c052      	RJMP _0x1E2
                 ;                    case 3: set[4][numSet] = newval[numSet]; break; // ""
                 _0x1E7:
001816 30e3      	CPI  R30,LOW(0x3)
001817 e0a0      	LDI  R26,HIGH(0x3)
001818 07fa      	CPC  R31,R26
001819 f469      	BRNE _0x1E8
                +
00181a e2a0     +LDI R26 , LOW ( _set + ( 32 ) )
00181b e0b0     +LDI R27 , HIGH ( _set + ( 32 ) )
                 	__POINTW2MN _set,32
00181c 91e0 0369 	LDS  R30,_numSet
00181e e0f0      	LDI  R31,0
00181f 940e 221d 	CALL SUBOPT_0xB
001821 010f      	MOVW R0,R30
001822 940e 236c 	CALL SUBOPT_0x3C
001824 940e 23c3 	CALL SUBOPT_0x48
001826 c041      	RJMP _0x1E2
                 ;                    case 4: for (byte=0;byte<2;byte++) clock_buffer[byte+1] = ByteToBcd2(newval[byte]);
                 _0x1E8:
001827 30e4      	CPI  R30,LOW(0x4)
001828 e0a0      	LDI  R26,HIGH(0x4)
001829 07fa      	CPC  R31,R26
00182a f5e9      	BRNE _0x1E2
00182b e0e0      	LDI  R30,LOW(0)
00182c 83e9      	STD  Y+1,R30
                 _0x1EB:
00182d 81a9      	LDD  R26,Y+1
00182e 30a2      	CPI  R26,LOW(0x2)
00182f f478      	BRSH _0x1EC
001830 81e9      	LDD  R30,Y+1
001831 e0f0      	LDI  R31,0
                +
001832 54ea     +SUBI R30 , LOW ( - _clock_buffer - ( 1 ) )
001833 4ffc     +SBCI R31 , HIGH ( - _clock_buffer - ( 1 ) )
                 	__ADDW1MN _clock_buffer,1
001834 93ff      	PUSH R31
001835 93ef      	PUSH R30
001836 940e 23c9 	CALL SUBOPT_0x49
001838 91af      	POP  R26
001839 91bf      	POP  R27
00183a 93ec      	ST   X,R30
00183b 81e9      	LDD  R30,Y+1
00183c 5fef      	SUBI R30,-LOW(1)
00183d 83e9      	STD  Y+1,R30
00183e cfee      	RJMP _0x1EB
                 _0x1EC:
00183f e0e2      	LDI  R30,LOW(2)
001840 83e9      	STD  Y+1,R30
                 _0x1EE:
001841 81a9      	LDD  R26,Y+1
001842 30a5      	CPI  R26,LOW(0x5)
001843 f478      	BRSH _0x1EF
001844 81e9      	LDD  R30,Y+1
001845 e0f0      	LDI  R31,0
                +
001846 54e9     +SUBI R30 , LOW ( - _clock_buffer - ( 2 ) )
001847 4ffc     +SBCI R31 , HIGH ( - _clock_buffer - ( 2 ) )
                 	__ADDW1MN _clock_buffer,2
001848 93ff      	PUSH R31
001849 93ef      	PUSH R30
00184a 940e 23c9 	CALL SUBOPT_0x49
00184c 91af      	POP  R26
00184d 91bf      	POP  R27
00184e 93ec      	ST   X,R30
00184f 81e9      	LDD  R30,Y+1
001850 5fef      	SUBI R30,-LOW(1)
001851 83e9      	STD  Y+1,R30
001852 cfee      	RJMP _0x1EE
                 _0x1EF:
001853 91e0 0369 	LDS  R30,_numSet
001855 30e0      	CPI  R30,0
001856 f419      	BRNE _0x1F0
001857 e0e0      	LDI  R30,LOW(0)
001858 93e0 03b5 	STS  _clock_buffer,R30
                 ;                            Clock_Ok = write_TWI(DS3231,0,clock_buffer,7);
                 _0x1F0:
00185a ede0      	LDI  R30,LOW(208)
00185b 93ea      	ST   -Y,R30
00185c 940e 2280 	CALL SUBOPT_0x16
00185e ebe5      	LDI  R30,LOW(_clock_buffer)
00185f e0f3      	LDI  R31,HIGH(_clock_buffer)
001860 93fa      	ST   -Y,R31
001861 93ea      	ST   -Y,R30
001862 e0a7      	LDI  R26,LOW(7)
001863 940e 10c3 	CALL _write_TWI
001865 940e 274d 	CALL __BSTB1
001867 f821      	BLD  R2,1
                 ;                      break; // "  "
                 ;                  }
                 _0x1E2:
                 ;                  delay_ms(500);
001868 efa4      	LDI  R26,LOW(500)
001869 e0b1      	LDI  R27,HIGH(500)
00186a 940e 2535 	CALL _delay_ms
                 ;                  displ_num = 4; newSetButt = 1; break;
                 _0x284:
00186c e0e4      	LDI  R30,LOW(4)
00186d 2e4e      	MOV  R4,R30
00186e e0e1      	LDI  R30,LOW(1)
00186f 2e6e      	MOV  R6,R30
                 ;          }
                 _0x15D:
                 ;          byte = 10;
001870 e0ea      	LDI  R30,LOW(10)
001871 83e9      	STD  Y+1,R30
                 ;        break;
001872 c118      	RJMP _0x120
                 ;        //-    -
                 ;        case 6:
                 _0x15A:
001873 30e6      	CPI  R30,LOW(0x6)
001874 e0a0      	LDI  R26,HIGH(0x6)
001875 07fa      	CPC  R31,R26
001876 f5c9      	BRNE _0x1F1
                 ;          switch (byte){
001877 81e9      	LDD  R30,Y+1
001878 e0f0      	LDI  R31,0
                 ;               case 0: displ_num = 1; newSetButt = 1; break;
001879 9730      	SBIW R30,0
00187a f421      	BRNE _0x1F5
00187b e0e1      	LDI  R30,LOW(1)
00187c 2e4e      	MOV  R4,R30
00187d 2e6e      	MOV  R6,R30
00187e c02e      	RJMP _0x1F4
                 ;            case 1: if (--numSet<0) numSet = 0;    break;
                 _0x1F5:
00187f 30e1      	CPI  R30,LOW(0x1)
001880 e0a0      	LDI  R26,HIGH(0x1)
001881 07fa      	CPC  R31,R26
001882 f439      	BRNE _0x1F6
001883 940e 2348 	CALL SUBOPT_0x37
001885 f41c      	BRGE _0x1F7
001886 e0e0      	LDI  R30,LOW(0)
001887 93e0 0369 	STS  _numSet,R30
                 _0x1F7:
001889 c023      	RJMP _0x1F4
                 ;            case 2: if (++numSet>MAX_SET-1) numSet = MAX_SET-1;    break;
                 _0x1F6:
00188a 30e2      	CPI  R30,LOW(0x2)
00188b e0a0      	LDI  R26,HIGH(0x2)
00188c 07fa      	CPC  R31,R26
00188d f441      	BRNE _0x1F8
00188e 940e 234f 	CALL SUBOPT_0x38
001890 30a4      	CPI  R26,LOW(0x4)
001891 f01c      	BRLT _0x1F9
001892 e0e3      	LDI  R30,LOW(3)
001893 93e0 0369 	STS  _numSet,R30
                 _0x1F9:
001895 c017      	RJMP _0x1F4
                 ;            case 3: displ_num = 8; newSetButt = 1;
                 _0x1F8:
001896 30e3      	CPI  R30,LOW(0x3)
001897 e0a0      	LDI  R26,HIGH(0x3)
001898 07fa      	CPC  R31,R26
001899 f499      	BRNE _0x1F4
00189a e0e8      	LDI  R30,LOW(8)
00189b 2e4e      	MOV  R4,R30
00189c e0e1      	LDI  R30,LOW(1)
00189d 2e6e      	MOV  R6,R30
                 ;                for (byte=0;byte<MAX_SET;byte++) newval[byte] = analog[byte]; break;
00189e e0e0      	LDI  R30,LOW(0)
00189f 83e9      	STD  Y+1,R30
                 _0x1FC:
0018a0 81a9      	LDD  R26,Y+1
0018a1 30a4      	CPI  R26,LOW(0x4)
0018a2 f450      	BRSH _0x1FD
0018a3 940e 23d4 	CALL SUBOPT_0x4A
0018a5 50ec      	SUBI R30,LOW(-_analog)
0018a6 4ffc      	SBCI R31,HIGH(-_analog)
0018a7 940e 23df 	CALL SUBOPT_0x4B
0018a9 81e9      	LDD  R30,Y+1
0018aa 5fef      	SUBI R30,-LOW(1)
0018ab 83e9      	STD  Y+1,R30
0018ac cff3      	RJMP _0x1FC
                 _0x1FD:
                 ;            break;
                 ;          }
                 _0x1F4:
                 ;          byte = 10;
0018ad e0ea      	LDI  R30,LOW(10)
0018ae 83e9      	STD  Y+1,R30
                 ;        break;
0018af c0db      	RJMP _0x120
                 ;        //-    -
                 ;        case 7:
                 _0x1F1:
0018b0 30e7      	CPI  R30,LOW(0x7)
0018b1 e0a0      	LDI  R26,HIGH(0x7)
0018b2 07fa      	CPC  R31,R26
0018b3 f5d1      	BRNE _0x1FE
                 ;          switch (byte){
0018b4 81e9      	LDD  R30,Y+1
0018b5 e0f0      	LDI  R31,0
                 ;               case 0: displ_num = 2; newSetButt = 1; break;
0018b6 9730      	SBIW R30,0
0018b7 f429      	BRNE _0x202
0018b8 e0e2      	LDI  R30,LOW(2)
0018b9 2e4e      	MOV  R4,R30
0018ba e0e1      	LDI  R30,LOW(1)
0018bb 2e6e      	MOV  R6,R30
0018bc c02e      	RJMP _0x201
                 ;            case 1: if (--numSet<0) numSet = 0;    break;
                 _0x202:
0018bd 30e1      	CPI  R30,LOW(0x1)
0018be e0a0      	LDI  R26,HIGH(0x1)
0018bf 07fa      	CPC  R31,R26
0018c0 f439      	BRNE _0x203
0018c1 940e 2348 	CALL SUBOPT_0x37
0018c3 f41c      	BRGE _0x204
0018c4 e0e0      	LDI  R30,LOW(0)
0018c5 93e0 0369 	STS  _numSet,R30
                 _0x204:
0018c7 c023      	RJMP _0x201
                 ;            case 2: if (++numSet>MAX_SET-1) numSet = MAX_SET-1;    break;
                 _0x203:
0018c8 30e2      	CPI  R30,LOW(0x2)
0018c9 e0a0      	LDI  R26,HIGH(0x2)
0018ca 07fa      	CPC  R31,R26
0018cb f441      	BRNE _0x205
0018cc 940e 234f 	CALL SUBOPT_0x38
0018ce 30a4      	CPI  R26,LOW(0x4)
0018cf f01c      	BRLT _0x206
0018d0 e0e3      	LDI  R30,LOW(3)
0018d1 93e0 0369 	STS  _numSet,R30
                 _0x206:
0018d3 c017      	RJMP _0x201
                 ;            case 3: displ_num = 9; newSetButt = 1;
                 _0x205:
0018d4 30e3      	CPI  R30,LOW(0x3)
0018d5 e0a0      	LDI  R26,HIGH(0x3)
0018d6 07fa      	CPC  R31,R26
0018d7 f499      	BRNE _0x201
0018d8 e0e9      	LDI  R30,LOW(9)
0018d9 2e4e      	MOV  R4,R30
0018da e0e1      	LDI  R30,LOW(1)
0018db 2e6e      	MOV  R6,R30
                 ;                for (byte=0;byte<MAX_SET;byte++) newval[byte] = relay[byte]; break;
0018dc e0e0      	LDI  R30,LOW(0)
0018dd 83e9      	STD  Y+1,R30
                 _0x209:
0018de 81a9      	LDD  R26,Y+1
0018df 30a4      	CPI  R26,LOW(0x4)
0018e0 f450      	BRSH _0x20A
0018e1 940e 23d4 	CALL SUBOPT_0x4A
0018e3 50e8      	SUBI R30,LOW(-_relay)
0018e4 4ffc      	SBCI R31,HIGH(-_relay)
0018e5 940e 23df 	CALL SUBOPT_0x4B
0018e7 81e9      	LDD  R30,Y+1
0018e8 5fef      	SUBI R30,-LOW(1)
0018e9 83e9      	STD  Y+1,R30
0018ea cff3      	RJMP _0x209
                 _0x20A:
                 ;            break;
                 ;          }
                 _0x201:
                 ;          byte = 10;
0018eb e0ea      	LDI  R30,LOW(10)
0018ec 83e9      	STD  Y+1,R30
                 ;        break;
0018ed c09d      	RJMP _0x120
                 ;        //- .   -
                 ;        case 8:
                 _0x1FE:
0018ee 30e8      	CPI  R30,LOW(0x8)
0018ef e0a0      	LDI  R26,HIGH(0x8)
0018f0 07fa      	CPC  R31,R26
0018f1 f009      	BREQ PC+2
0018f2 c049      	RJMP _0x20B
                 ;          switch (byte){
0018f3 81e9      	LDD  R30,Y+1
0018f4 e0f0      	LDI  R31,0
                 ;               case 0: displ_num = 6; newSetButt = 1; break;
0018f5 9730      	SBIW R30,0
0018f6 f1f1      	BREQ _0x286
                 ;            case 1: if(++newval[numSet]>100) newval[numSet]=100; break;
0018f7 30e1      	CPI  R30,LOW(0x1)
0018f8 e0a0      	LDI  R26,HIGH(0x1)
0018f9 07fa      	CPC  R31,R26
0018fa f469      	BRNE _0x210
0018fb 940e 236c 	CALL SUBOPT_0x3C
0018fd 940e 2376 	CALL SUBOPT_0x3D
0018ff 36e5      	CPI  R30,LOW(0x65)
001900 e0a0      	LDI  R26,HIGH(0x65)
001901 07fa      	CPC  R31,R26
001902 f024      	BRLT _0x211
001903 940e 236c 	CALL SUBOPT_0x3C
001905 940e 2389 	CALL SUBOPT_0x40
                 _0x211:
001907 c031      	RJMP _0x20E
                 ;            case 2: if(--newval[numSet]<-1) newval[numSet] = -1; break;
                 _0x210:
001908 30e2      	CPI  R30,LOW(0x2)
001909 e0a0      	LDI  R26,HIGH(0x2)
00190a 07fa      	CPC  R31,R26
00190b f479      	BRNE _0x212
00190c 940e 236c 	CALL SUBOPT_0x3C
00190e 940e 2393 	CALL SUBOPT_0x42
001910 3fef      	CPI  R30,LOW(0xFFFF)
001911 efaf      	LDI  R26,HIGH(0xFFFF)
001912 07fa      	CPC  R31,R26
001913 f434      	BRGE _0x213
001914 940e 236c 	CALL SUBOPT_0x3C
001916 efef      	LDI  R30,LOW(65535)
001917 efff      	LDI  R31,HIGH(65535)
001918 93ed      	ST   X+,R30
001919 93fc      	ST   X,R31
                 _0x213:
00191a c01e      	RJMP _0x20E
                 ;            case 3: ILI9341_FillScreen(0, max_X, 0, max_Y, fillScreen);
                 _0x212:
00191b 30e3      	CPI  R30,LOW(0x3)
00191c e0a0      	LDI  R26,HIGH(0x3)
00191d 07fa      	CPC  R31,R26
00191e f4d1      	BRNE _0x20E
00191f 940e 2280 	CALL SUBOPT_0x16
001921 940e 239e 	CALL SUBOPT_0x44
001923 940e 23a2 	CALL SUBOPT_0x45
                 ;                  ILI9341_WriteString(5,100,"  ",Font_11x18,GREEN,fillScreen,1);
                +
001925 e7e5     +LDI R30 , LOW ( _0x1DF + ( 17 ) )
001926 e0f2     +LDI R31 , HIGH ( _0x1DF + ( 17 ) )
                 	__POINTW1MN _0x1DF,17
001927 940e 23b7 	CALL SUBOPT_0x46
001929 940e 23ba 	CALL SUBOPT_0x47
                 ;                  analog[numSet] = newval[numSet];
00192b 91e0 0369 	LDS  R30,_numSet
00192d e0f0      	LDI  R31,0
00192e 50ec      	SUBI R30,LOW(-_analog)
00192f 4ffc      	SBCI R31,HIGH(-_analog)
001930 010f      	MOVW R0,R30
001931 940e 236c 	CALL SUBOPT_0x3C
001933 940e 23e6 	CALL SUBOPT_0x4C
                 ;                  delay_ms(1000);
                 ;                  displ_num = 6; newSetButt = 1; break;
                 _0x286:
001935 e0e6      	LDI  R30,LOW(6)
001936 2e4e      	MOV  R4,R30
001937 e0e1      	LDI  R30,LOW(1)
001938 2e6e      	MOV  R6,R30
                 ;          }
                 _0x20E:
                 ;          byte = 10;
001939 e0ea      	LDI  R30,LOW(10)
00193a 83e9      	STD  Y+1,R30
                 ;        break;
00193b c04f      	RJMP _0x120
                 ;        //- .   -
                 ;        case 9:
                 _0x20B:
00193c 30e9      	CPI  R30,LOW(0x9)
00193d e0a0      	LDI  R26,HIGH(0x9)
00193e 07fa      	CPC  R31,R26
00193f f009      	BREQ PC+2
001940 c047      	RJMP _0x21F
                 ;          switch (byte){
001941 81e9      	LDD  R30,Y+1
001942 e0f0      	LDI  R31,0
                 ;               case 0: displ_num = 6; newSetButt = 1; break;
001943 9730      	SBIW R30,0
001944 f411      	BRNE _0x219
001945 e0e6      	LDI  R30,LOW(6)
001946 c03b      	RJMP _0x287
                 ;            case 1: if(++newval[numSet]>2) newval[numSet]= 2; break;
                 _0x219:
001947 30e1      	CPI  R30,LOW(0x1)
001948 e0a0      	LDI  R26,HIGH(0x1)
001949 07fa      	CPC  R31,R26
00194a f469      	BRNE _0x21A
00194b 940e 236c 	CALL SUBOPT_0x3C
00194d 940e 2376 	CALL SUBOPT_0x3D
00194f 9733      	SBIW R30,3
001950 f034      	BRLT _0x21B
001951 940e 236c 	CALL SUBOPT_0x3C
001953 e0e2      	LDI  R30,LOW(2)
001954 e0f0      	LDI  R31,HIGH(2)
001955 93ed      	ST   X+,R30
001956 93fc      	ST   X,R31
                 _0x21B:
001957 c02d      	RJMP _0x218
                 ;            case 2: if(--newval[numSet]<0) newval[numSet]= 0; break;
                 _0x21A:
001958 30e2      	CPI  R30,LOW(0x2)
001959 e0a0      	LDI  R26,HIGH(0x2)
00195a 07fa      	CPC  R31,R26
00195b f459      	BRNE _0x21C
00195c 940e 236c 	CALL SUBOPT_0x3C
00195e 940e 2393 	CALL SUBOPT_0x42
001960 23ff      	TST  R31
001961 f422      	BRPL _0x21D
001962 940e 236c 	CALL SUBOPT_0x3C
001964 940e 2399 	CALL SUBOPT_0x43
                 _0x21D:
001966 c01e      	RJMP _0x218
                 ;            case 3: ILI9341_FillScreen(0, max_X, 0, max_Y, fillScreen);
                 _0x21C:
001967 30e3      	CPI  R30,LOW(0x3)
001968 e0a0      	LDI  R26,HIGH(0x3)
001969 07fa      	CPC  R31,R26
00196a f4d1      	BRNE _0x218
00196b 940e 2280 	CALL SUBOPT_0x16
00196d 940e 239e 	CALL SUBOPT_0x44
00196f 940e 23a2 	CALL SUBOPT_0x45
                 ;                  ILI9341_WriteString(5,100,"  ",Font_11x18,GREEN,fillScreen,1);
                +
001971 e8e6     +LDI R30 , LOW ( _0x1DF + ( 34 ) )
001972 e0f2     +LDI R31 , HIGH ( _0x1DF + ( 34 ) )
                 	__POINTW1MN _0x1DF,34
001973 940e 23b7 	CALL SUBOPT_0x46
001975 940e 23ba 	CALL SUBOPT_0x47
                 ;                  relay[numSet] = newval[numSet];
001977 91e0 0369 	LDS  R30,_numSet
001979 e0f0      	LDI  R31,0
00197a 50e8      	SUBI R30,LOW(-_relay)
00197b 4ffc      	SBCI R31,HIGH(-_relay)
00197c 010f      	MOVW R0,R30
00197d 940e 236c 	CALL SUBOPT_0x3C
00197f 940e 23e6 	CALL SUBOPT_0x4C
                 ;                  delay_ms(1000);
                 ;                  displ_num = 7; newSetButt = 1; break;
001981 e0e7      	LDI  R30,LOW(7)
                 _0x287:
001982 2e4e      	MOV  R4,R30
001983 e0e1      	LDI  R30,LOW(1)
001984 2e6e      	MOV  R6,R30
                 ;          }
                 _0x218:
                 ;          byte = 10;
001985 e0ea      	LDI  R30,LOW(10)
001986 83e9      	STD  Y+1,R30
                 ;        break;
001987 c003      	RJMP _0x120
                 ;        default: displ_num = 0; newSetButt = 1;
                 _0x21F:
001988 2444      	CLR  R4
001989 e0e1      	LDI  R30,LOW(1)
00198a 2e6e      	MOV  R6,R30
                 ;     }
                 _0x120:
                 ;}
00198b 8118      	LDD  R17,Y+0
00198c c01d      	RJMP _0x20C0003
                 ; .FEND
                 
                 	.DSEG
                 _0x1DF:
000264           	.BYTE 0x33
                 ;
                 ;#include "displ.c"
                 ;unsigned char txt[10];
                 ;
                 ;void fraction(signed int t){
                 ; 0000 005D void fraction(signed int t){
                 
                 	.CSEG
                 _fraction:
                 ; .FSTART _fraction
                 ;  if (t<0) {t = -t; signchar = '-';} else signchar = ' ';
00198d 93ba      	ST   -Y,R27
00198e 93aa      	ST   -Y,R26
                 ;	t -> Y+0
00198f 81a9      	LDD  R26,Y+1
001990 23aa      	TST  R26
001991 f442      	BRPL _0x220
001992 81e8      	LD   R30,Y
001993 81f9      	LDD  R31,Y+1
001994 940e 2620 	CALL __ANEGW1
001996 83e8      	ST   Y,R30
001997 83f9      	STD  Y+1,R31
001998 e2ed      	LDI  R30,LOW(45)
001999 c001      	RJMP _0x288
                 _0x220:
00199a e2e0      	LDI  R30,LOW(32)
                 _0x288:
00199b 2eae      	MOV  R10,R30
                 ;  frcval = t%10; intval = t/10;
00199c 81a8      	LD   R26,Y
00199d 81b9      	LDD  R27,Y+1
00199e e0ea      	LDI  R30,LOW(10)
00199f e0f0      	LDI  R31,HIGH(10)
0019a0 940e 26c4 	CALL __MODW21
0019a2 2ece      	MOV  R12,R30
0019a3 81a8      	LD   R26,Y
0019a4 81b9      	LDD  R27,Y+1
0019a5 e0ea      	LDI  R30,LOW(10)
0019a6 e0f0      	LDI  R31,HIGH(10)
0019a7 940e 2695 	CALL __DIVW21
0019a9 2ede      	MOV  R13,R30
                 ;}
                 _0x20C0003:
0019aa 9622      	ADIW R28,2
0019ab 9508      	RET
                 ; .FEND
                 ;
                 ;char newButtonCheck(void){
                 _newButtonCheck:
                 ; .FSTART _newButtonCheck
                 ; char res=0;
                 ;   if(checkTouch()){
0019ac 931a      	ST   -Y,R17
                 ;	res -> R17
0019ad e010      	LDI  R17,0
0019ae d998      	RCALL _checkTouch
0019af 30e0      	CPI  R30,0
0019b0 f069      	BREQ _0x222
                 ;     res = (checkButton(buttonCount));
0019b1 91a0 03fd 	LDS  R26,_buttonCount
0019b3 da23      	RCALL _checkButton
0019b4 2f1e      	MOV  R17,R30
                 ;     if (res < buttonCount) newButton = res; //   
0019b5 91e0 03fd 	LDS  R30,_buttonCount
0019b7 171e      	CP   R17,R30
0019b8 f410      	BRSH _0x223
0019b9 2e71      	MOV  R7,R17
                 ;     else {newButton = 100; res=0;}          //   
0019ba c003      	RJMP _0x224
                 _0x223:
0019bb e6e4      	LDI  R30,LOW(100)
0019bc 2e7e      	MOV  R7,R30
0019bd e010      	LDI  R17,LOW(0)
                 _0x224:
                 ;   }
                 ;   return res;
                 _0x222:
0019be 2fe1      	MOV  R30,R17
0019bf 9119      	LD   R17,Y+
0019c0 9508      	RET
                 ;}
                 ; .FEND
                 ;
                 ;//--------------------------------  . ----------------------------------------
                 ;void displ_0(void){
                 _displ_0:
                 ; .FSTART _displ_0
                 ; unsigned char i;
                 ; unsigned int fillWindow = BLUE1, bordWindow = BLACK, temp;
                 ;  if(newSetButt){
0019c1 9722      	SBIW R28,2
0019c2 940e 2752 	CALL __SAVELOCR6
                 ;	i -> R17
                 ;	fillWindow -> R18,R19
                 ;	bordWindow -> R20,R21
                 ;	temp -> Y+6
                +
0019c4 e020     +LDI R18 , LOW ( - 1536 )
0019c5 ef3a     +LDI R19 , HIGH ( - 1536 )
                 	__GETWRN 18,19,-1536
                +
0019c6 ef4f     +LDI R20 , LOW ( - 1 )
0019c7 ef5f     +LDI R21 , HIGH ( - 1 )
                 	__GETWRN 20,21,-1
0019c8 2066      	TST  R6
0019c9 f109      	BREQ _0x225
                 ;    newSetButt = 0;
0019ca 2466      	CLR  R6
                 ;    ILI9341_FillScreen(0, max_X, 0, max_Y, fillWindow);
0019cb 940e 2280 	CALL SUBOPT_0x16
0019cd 940e 239e 	CALL SUBOPT_0x44
0019cf 940e 23ed 	CALL SUBOPT_0x4D
                 ;    initializeButtons(4,1,25);// 4 ;  ;  25
                 ;    //----------  ------- a ---  -  - ---------
                 ;    drawButton(fillWindow, fillWindow, bordWindow, 0, "");
0019d1 940e 23fd 	CALL SUBOPT_0x4E
0019d3 e0e0      	LDI  R30,LOW(0)
0019d4 93ea      	ST   -Y,R30
0019d5 940e 2404 	CALL SUBOPT_0x4F
                 ;    drawButton(WHITE, WHITE, BLACK, 1, "");
0019d7 940e 2280 	CALL SUBOPT_0x16
0019d9 940e 2280 	CALL SUBOPT_0x16
0019db 940e 2408 	CALL SUBOPT_0x50
0019dd 940e 240d 	CALL SUBOPT_0x51
                 ;    drawButton(WHITE, WHITE, BLACK, 2, "");
0019df 940e 2280 	CALL SUBOPT_0x16
0019e1 940e 2408 	CALL SUBOPT_0x50
0019e3 940e 2414 	CALL SUBOPT_0x52
                 ;    drawButton(WHITE, WHITE, BLACK, 3, "");
0019e5 940e 2280 	CALL SUBOPT_0x16
0019e7 940e 2408 	CALL SUBOPT_0x50
0019e9 940e 241b 	CALL SUBOPT_0x53
                 ;  }
                 ;//---   ------
                 ;  pointY = 3;
                 _0x225:
0019eb e0e3      	LDI  R30,LOW(3)
0019ec 2e8e      	MOV  R8,R30
                 ;  if(Clock_Ok){
0019ed fe21      	SBRS R2,1
0019ee c03e      	RJMP _0x226
                 ;    read_TWI(DS3231,0,clock_buffer,7);//    
0019ef ede0      	LDI  R30,LOW(208)
0019f0 93ea      	ST   -Y,R30
0019f1 940e 2280 	CALL SUBOPT_0x16
0019f3 ebe5      	LDI  R30,LOW(_clock_buffer)
0019f4 e0f3      	LDI  R31,HIGH(_clock_buffer)
0019f5 93fa      	ST   -Y,R31
0019f6 93ea      	ST   -Y,R30
0019f7 e0a7      	LDI  R26,LOW(7)
0019f8 e0b0      	LDI  R27,0
0019f9 940e 1031 	CALL _read_TWI
                 ;    sprintf(buff,"%02x:%02x   %02x.%02x.20%02x",clock_buffer[2],clock_buffer[1],clock_buffer[4],clock_buffer[5],clock_bu ...
0019fb 940e 22ca 	CALL SUBOPT_0x24
                +
0019fd eeea     +LDI R30 , LOW ( 2 * _0x0 + ( 228 ) )
0019fe e1f7     +LDI R31 , HIGH ( 2 * _0x0 + ( 228 ) )
                 	__POINTW1FN _0x0,228
0019ff 93fa      	ST   -Y,R31
001a00 93ea      	ST   -Y,R30
                +
001a01 91e0 03b7+LDS R30 , _clock_buffer + ( 2 )
                 	__GETB1MN _clock_buffer,2
001a03 940e 2421 	CALL SUBOPT_0x54
                +
001a05 91e0 03b6+LDS R30 , _clock_buffer + ( 1 )
                 	__GETB1MN _clock_buffer,1
001a07 940e 2421 	CALL SUBOPT_0x54
                +
001a09 91e0 03b9+LDS R30 , _clock_buffer + ( 4 )
                 	__GETB1MN _clock_buffer,4
001a0b 940e 2421 	CALL SUBOPT_0x54
                +
001a0d 91e0 03ba+LDS R30 , _clock_buffer + ( 5 )
                 	__GETB1MN _clock_buffer,5
001a0f 940e 2421 	CALL SUBOPT_0x54
                +
001a11 91e0 03bb+LDS R30 , _clock_buffer + ( 6 )
                 	__GETB1MN _clock_buffer,6
001a13 940e 2421 	CALL SUBOPT_0x54
001a15 e184      	LDI  R24,20
001a16 940e 2007 	CALL _sprintf
001a18 9668      	ADIW R28,24
                 ;    ILI9341_WriteString(70,pointY,buff,Font_11x18,BLACK,WHITE,1); ILI9341_WriteString(70,pointY,buff,Font_11x18,WHITE,BL ...
001a19 940e 2427 	CALL SUBOPT_0x55
001a1b 940e 22d6 	CALL SUBOPT_0x26
001a1d 940e 2408 	CALL SUBOPT_0x50
001a1f 940e 2280 	CALL SUBOPT_0x16
001a21 e0a1      	LDI  R26,LOW(1)
001a22 940e 0ea3 	CALL _ILI9341_WriteString
001a24 940e 2427 	CALL SUBOPT_0x55
001a26 940e 22d6 	CALL SUBOPT_0x26
001a28 940e 2280 	CALL SUBOPT_0x16
001a2a efef      	LDI  R30,LOW(65535)
001a2b efff      	LDI  R31,HIGH(65535)
001a2c c018      	RJMP _0x289
                 ;  }
                 ;  else {
                 _0x226:
                 ;    sprintf(buff," !");
001a2d 940e 22ca 	CALL SUBOPT_0x24
                +
001a2f e0e7     +LDI R30 , LOW ( 2 * _0x0 + ( 257 ) )
001a30 e1f8     +LDI R31 , HIGH ( 2 * _0x0 + ( 257 ) )
                 	__POINTW1FN _0x0,257
001a31 940e 22cf 	CALL SUBOPT_0x25
                 ;    ILI9341_WriteString(70,pointY,buff,Font_11x18,YELLOW,RED,1); ILI9341_WriteString(70,pointY,buff,Font_11x18,RED,YELLO ...
001a33 940e 2427 	CALL SUBOPT_0x55
001a35 940e 22d6 	CALL SUBOPT_0x26
001a37 940e 2430 	CALL SUBOPT_0x56
001a39 940e 22e1 	CALL SUBOPT_0x27
001a3b 940e 2427 	CALL SUBOPT_0x55
001a3d 940e 22d6 	CALL SUBOPT_0x26
001a3f efef      	LDI  R30,LOW(2047)
001a40 e0f7      	LDI  R31,HIGH(2047)
001a41 93fa      	ST   -Y,R31
001a42 93ea      	ST   -Y,R30
001a43 e1ef      	LDI  R30,LOW(31)
001a44 e0f0      	LDI  R31,HIGH(31)
                 _0x289:
001a45 93fa      	ST   -Y,R31
001a46 93ea      	ST   -Y,R30
001a47 e0a1      	LDI  R26,LOW(1)
001a48 940e 0ea3 	CALL _ILI9341_WriteString
                 ;  }
                 ;  pointY += 22;
001a4a 940e 2437 	CALL SUBOPT_0x57
                 ;  if(newButtonCheck()) return; //++++    +++++++++++++++++++++++++
001a4c f009      	BREQ _0x228
001a4d c2fb      	RJMP _0x20C0002
                 ;//---  t  -----
                 ;      temp = set[0][0]; fraction(temp);     //   
                 _0x228:
001a4e e0a0      	LDI  R26,LOW(_set)
001a4f e0b0      	LDI  R27,HIGH(_set)
001a50 940e 271b 	CALL __EEPROMRDW
001a52 940e 243d 	CALL SUBOPT_0x58
                 ;      sprintf(buff,"[%2u.%u]",intval,frcval); //  T    
                +
001a54 e1e6     +LDI R30 , LOW ( 2 * _0x0 + ( 272 ) )
001a55 e1f8     +LDI R31 , HIGH ( 2 * _0x0 + ( 272 ) )
                 	__POINTW1FN _0x0,272
001a56 940e 2444 	CALL SUBOPT_0x59
001a58 2dec      	MOV  R30,R12
001a59 940e 2421 	CALL SUBOPT_0x54
001a5b 940e 2448 	CALL SUBOPT_0x5A
                 ;      ILI9341_WriteString(5,pointY+5,buff,Font_11x18,bordWindow,fillWindow,1);
001a5d 940e 244d 	CALL SUBOPT_0x5B
001a5f 9635      	ADIW R30,5
001a60 940e 2454 	CALL SUBOPT_0x5C
001a62 940e 22d6 	CALL SUBOPT_0x26
001a64 940e 2457 	CALL SUBOPT_0x5D
                 ;      ILI9341_WriteString(5,pointY+25,"",Font_11x18,bordWindow,fillWindow,1);
001a66 940e 244d 	CALL SUBOPT_0x5B
001a68 9679      	ADIW R30,25
001a69 93fa      	ST   -Y,R31
001a6a 93ea      	ST   -Y,R30
                +
001a6b e9e7     +LDI R30 , LOW ( _0x229 + ( 0 ) )
001a6c e0f2     +LDI R31 , HIGH ( _0x229 + ( 0 ) )
                 	__POINTW1MN _0x229,0
001a6d 940e 23b7 	CALL SUBOPT_0x46
001a6f 940e 2457 	CALL SUBOPT_0x5D
                 ;      if (pvT>1250) sprintf(buff,"**.*");
001a71 91a0 03c6 	LDS  R26,_pvT
001a73 91b0 03c7 	LDS  R27,_pvT+1
001a75 3ea3      	CPI  R26,LOW(0x4E3)
001a76 e0e4      	LDI  R30,HIGH(0x4E3)
001a77 07be      	CPC  R27,R30
001a78 f03c      	BRLT _0x22A
001a79 940e 22ca 	CALL SUBOPT_0x24
                +
001a7b e2eb     +LDI R30 , LOW ( 2 * _0x0 + ( 293 ) )
001a7c e1f8     +LDI R31 , HIGH ( 2 * _0x0 + ( 293 ) )
                 	__POINTW1FN _0x0,293
001a7d 940e 22cf 	CALL SUBOPT_0x25
                 ;      else {
001a7f c00f      	RJMP _0x22B
                 _0x22A:
                 ;          temp = pvT; fraction(temp);     //   
001a80 91e0 03c6 	LDS  R30,_pvT
001a82 91f0 03c7 	LDS  R31,_pvT+1
001a84 940e 243d 	CALL SUBOPT_0x58
                 ;          sprintf(buff,"%2u.%u",intval,frcval); // T     
                +
001a86 e3e0     +LDI R30 , LOW ( 2 * _0x0 + ( 298 ) )
001a87 e1f8     +LDI R31 , HIGH ( 2 * _0x0 + ( 298 ) )
                 	__POINTW1FN _0x0,298
001a88 940e 2444 	CALL SUBOPT_0x59
001a8a 2dec      	MOV  R30,R12
001a8b 940e 2421 	CALL SUBOPT_0x54
001a8d 940e 2448 	CALL SUBOPT_0x5A
                 ;      }
                 _0x22B:
                 ;      ILI9341_WriteString(140,pointY,buff,Font_11x18,bordWindow,fillWindow,3);
001a8f e8ec      	LDI  R30,LOW(140)
001a90 e0f0      	LDI  R31,HIGH(140)
001a91 940e 245e 	CALL SUBOPT_0x5E
001a93 940e 2454 	CALL SUBOPT_0x5C
001a95 940e 22d6 	CALL SUBOPT_0x26
001a97 940e 2463 	CALL SUBOPT_0x5F
                 ;      //   alarm[0]
                 ;      switch (alarm[0]) {
001a99 91e0 03bc 	LDS  R30,_alarm
001a9b e0f0      	LDI  R31,0
                 ;        case 0: temp=GREEN; break;
001a9c 9730      	SBIW R30,0
001a9d f039      	BREQ _0x28A
                 ;        case 1: temp=RED;   break;
001a9e 30e1      	CPI  R30,LOW(0x1)
001a9f e0a0      	LDI  R26,HIGH(0x1)
001aa0 07fa      	CPC  R31,R26
001aa1 f419      	BRNE _0x231
001aa2 efef      	LDI  R30,LOW(2047)
001aa3 e0f7      	LDI  R31,HIGH(2047)
001aa4 c002      	RJMP _0x28B
                 ;        default: temp=GREEN;
                 _0x231:
                 _0x28A:
001aa5 e1ef      	LDI  R30,LOW(63519)
001aa6 eff8      	LDI  R31,HIGH(63519)
                 _0x28B:
001aa7 83ee      	STD  Y+6,R30
001aa8 83ff      	STD  Y+6+1,R31
                 ;      };
                 ;      ILI9341_FillRectangle(280,pointY+2,30,45,temp);
001aa9 e1e8      	LDI  R30,LOW(280)
001aaa e0f1      	LDI  R31,HIGH(280)
001aab 940e 245e 	CALL SUBOPT_0x5E
001aad 940e 246a 	CALL SUBOPT_0x60
                 ;      pointY += 55;
001aaf e3e7      	LDI  R30,LOW(55)
001ab0 0e8e      	ADD  R8,R30
                 ;      if(newButtonCheck()) return; //++++    +++++++++++++++++++++++++
001ab1 defa      	RCALL _newButtonCheck
001ab2 30e0      	CPI  R30,0
001ab3 f009      	BREQ _0x232
001ab4 c294      	RJMP _0x20C0002
                 ;//---  RH ------
                 ;      sprintf(buff,"[%3u%%]",set[1][0]); //  RH
                 _0x232:
001ab5 940e 22ca 	CALL SUBOPT_0x24
                +
001ab7 e3e7     +LDI R30 , LOW ( 2 * _0x0 + ( 305 ) )
001ab8 e1f8     +LDI R31 , HIGH ( 2 * _0x0 + ( 305 ) )
                 	__POINTW1FN _0x0,305
001ab9 93fa      	ST   -Y,R31
001aba 93ea      	ST   -Y,R30
                +
001abb e0a8     +LDI R26 , LOW ( _set + ( 8 ) )
001abc e0b0     +LDI R27 , HIGH ( _set + ( 8 ) )
                 	__POINTW2MN _set,8
001abd 940e 271b 	CALL __EEPROMRDW
001abf 940e 2479 	CALL SUBOPT_0x61
                 ;      ILI9341_WriteString(5,pointY+5,buff,Font_11x18,bordWindow,fillWindow,1);
001ac1 940e 244d 	CALL SUBOPT_0x5B
001ac3 9635      	ADIW R30,5
001ac4 940e 2454 	CALL SUBOPT_0x5C
001ac6 940e 22d6 	CALL SUBOPT_0x26
001ac8 940e 2457 	CALL SUBOPT_0x5D
                 ;      ILI9341_WriteString(5,pointY+25,"",Font_11x18,bordWindow,fillWindow,1);
001aca 940e 244d 	CALL SUBOPT_0x5B
001acc 9679      	ADIW R30,25
001acd 93fa      	ST   -Y,R31
001ace 93ea      	ST   -Y,R30
                +
001acf eae3     +LDI R30 , LOW ( _0x229 + ( 12 ) )
001ad0 e0f2     +LDI R31 , HIGH ( _0x229 + ( 12 ) )
                 	__POINTW1MN _0x229,12
001ad1 940e 23b7 	CALL SUBOPT_0x46
001ad3 940e 2457 	CALL SUBOPT_0x5D
                 ;      if (pvRH>100) sprintf(buff,"***%%",pvRH);
001ad5 940e 22aa 	CALL SUBOPT_0x1E
001ad7 36a5      	CPI  R26,LOW(0x65)
001ad8 e0e0      	LDI  R30,HIGH(0x65)
001ad9 07be      	CPC  R27,R30
001ada f02c      	BRLT _0x233
001adb 940e 22ca 	CALL SUBOPT_0x24
                +
001add e4e9     +LDI R30 , LOW ( 2 * _0x0 + ( 323 ) )
001ade e1f8     +LDI R31 , HIGH ( 2 * _0x0 + ( 323 ) )
                 	__POINTW1FN _0x0,323
001adf c004      	RJMP _0x28C
                 ;      else sprintf(buff,"%3u%% ",pvRH);
                 _0x233:
001ae0 940e 22ca 	CALL SUBOPT_0x24
                +
001ae2 e4ef     +LDI R30 , LOW ( 2 * _0x0 + ( 329 ) )
001ae3 e1f8     +LDI R31 , HIGH ( 2 * _0x0 + ( 329 ) )
                 	__POINTW1FN _0x0,329
                 _0x28C:
001ae4 93fa      	ST   -Y,R31
001ae5 93ea      	ST   -Y,R30
001ae6 91e0 03ca 	LDS  R30,_pvRH
001ae8 91f0 03cb 	LDS  R31,_pvRH+1
001aea 940e 2479 	CALL SUBOPT_0x61
                 ;      ILI9341_WriteString(142,pointY,buff,Font_11x18,bordWindow,fillWindow,3);
001aec e8ee      	LDI  R30,LOW(142)
001aed e0f0      	LDI  R31,HIGH(142)
001aee 940e 245e 	CALL SUBOPT_0x5E
001af0 940e 2454 	CALL SUBOPT_0x5C
001af2 940e 22d6 	CALL SUBOPT_0x26
001af4 940e 2463 	CALL SUBOPT_0x5F
                 ;      //   alarm[1]
                 ;      switch (alarm[1]) {
                +
001af6 91e0 03bd+LDS R30 , _alarm + ( 1 )
                 	__GETB1MN _alarm,1
001af8 e0f0      	LDI  R31,0
                 ;        case 0: temp=GREEN; break;
001af9 9730      	SBIW R30,0
001afa f039      	BREQ _0x28D
                 ;        case 1: temp=RED;   break;
001afb 30e1      	CPI  R30,LOW(0x1)
001afc e0a0      	LDI  R26,HIGH(0x1)
001afd 07fa      	CPC  R31,R26
001afe f419      	BRNE _0x23A
001aff efef      	LDI  R30,LOW(2047)
001b00 e0f7      	LDI  R31,HIGH(2047)
001b01 c002      	RJMP _0x28E
                 ;        default: temp=GREEN;
                 _0x23A:
                 _0x28D:
001b02 e1ef      	LDI  R30,LOW(63519)
001b03 eff8      	LDI  R31,HIGH(63519)
                 _0x28E:
001b04 83ee      	STD  Y+6,R30
001b05 83ff      	STD  Y+6+1,R31
                 ;      };
                 ;      ILI9341_FillRectangle(280,pointY+2,30,45,temp);
001b06 e1e8      	LDI  R30,LOW(280)
001b07 e0f1      	LDI  R31,HIGH(280)
001b08 940e 245e 	CALL SUBOPT_0x5E
001b0a 940e 246a 	CALL SUBOPT_0x60
                 ;      if(newButtonCheck()) return; //++++    +++++++++++++++++++++++++
001b0c de9f      	RCALL _newButtonCheck
001b0d 30e0      	CPI  R30,0
001b0e f009      	BREQ _0x23B
001b0f c239      	RJMP _0x20C0002
                 ;//---  CO2 ----
                 ;//CO2module = 1;
                 ;//pHsensor = 1;
                 ;//pvCO2 = 2500;
                 ;//pvPH = 75;
                 ;      pointY += 55;
                 _0x23B:
001b10 e3e7      	LDI  R30,LOW(55)
001b11 0e8e      	ADD  R8,R30
                 ;      if(CO2module){
001b12 fe26      	SBRS R2,6
001b13 c03b      	RJMP _0x23C
                 ;        if(error&0x08){
001b14 91e0 0367 	LDS  R30,_error
001b16 70e8      	ANDI R30,LOW(0x8)
001b17 f069      	BREQ _0x23D
                 ;          ILI9341_WriteString(10,pointY,"CO2  !",Font_11x18,YELLOW,RED,1);
001b18 940e 2482 	CALL SUBOPT_0x62
001b1a 93fa      	ST   -Y,R31
001b1b 93ea      	ST   -Y,R30
                +
001b1c eaed     +LDI R30 , LOW ( _0x229 + ( 22 ) )
001b1d e0f2     +LDI R31 , HIGH ( _0x229 + ( 22 ) )
                 	__POINTW1MN _0x229,22
001b1e 940e 23b7 	CALL SUBOPT_0x46
001b20 940e 2430 	CALL SUBOPT_0x56
001b22 93fa      	ST   -Y,R31
001b23 93ea      	ST   -Y,R30
001b24 c026      	RJMP _0x28F
                 ;        }
                 ;        else {
                 _0x23D:
                 ;          sprintf(buff,"CO2   %4u",pvCO2);
001b25 940e 22ca 	CALL SUBOPT_0x24
                +
001b27 e6ea     +LDI R30 , LOW ( 2 * _0x0 + ( 356 ) )
001b28 e1f8     +LDI R31 , HIGH ( 2 * _0x0 + ( 356 ) )
                 	__POINTW1FN _0x0,356
001b29 93fa      	ST   -Y,R31
001b2a 93ea      	ST   -Y,R30
001b2b 91e0 03ce 	LDS  R30,_pvCO2
001b2d 91f0 03cf 	LDS  R31,_pvCO2+1
001b2f 940e 2479 	CALL SUBOPT_0x61
                 ;          ILI9341_WriteString(20,pointY,buff,Font_11x18,bordWindow,fillWindow,2);
001b31 e1e4      	LDI  R30,LOW(20)
001b32 e0f0      	LDI  R31,HIGH(20)
001b33 940e 245e 	CALL SUBOPT_0x5E
001b35 940e 2454 	CALL SUBOPT_0x5C
001b37 940e 22d6 	CALL SUBOPT_0x26
001b39 940e 2485 	CALL SUBOPT_0x63
001b3b e0a2      	LDI  R26,LOW(2)
001b3c 940e 0ea3 	CALL _ILI9341_WriteString
                 ;          ILI9341_WriteString(250,pointY+10,"ppm",Font_11x18,bordWindow,fillWindow,1);
001b3e efea      	LDI  R30,LOW(250)
001b3f e0f0      	LDI  R31,HIGH(250)
001b40 940e 245e 	CALL SUBOPT_0x5E
001b42 963a      	ADIW R30,10
001b43 93fa      	ST   -Y,R31
001b44 93ea      	ST   -Y,R30
                +
001b45 ece1     +LDI R30 , LOW ( _0x229 + ( 42 ) )
001b46 e0f2     +LDI R31 , HIGH ( _0x229 + ( 42 ) )
                 	__POINTW1MN _0x229,42
001b47 940e 23b7 	CALL SUBOPT_0x46
001b49 940e 2485 	CALL SUBOPT_0x63
                 _0x28F:
001b4b e0a1      	LDI  R26,LOW(1)
001b4c 940e 0ea3 	CALL _ILI9341_WriteString
                 ;        }
                 ;      }
                 ;      else {
001b4e c00a      	RJMP _0x23F
                 _0x23C:
                 ;        ILI9341_WriteString(10,pointY,"CO2  .",Font_11x18,bordWindow,fillWindow,1);
001b4f 940e 2482 	CALL SUBOPT_0x62
001b51 93fa      	ST   -Y,R31
001b52 93ea      	ST   -Y,R30
                +
001b53 ece5     +LDI R30 , LOW ( _0x229 + ( 46 ) )
001b54 e0f2     +LDI R31 , HIGH ( _0x229 + ( 46 ) )
                 	__POINTW1MN _0x229,46
001b55 940e 23b7 	CALL SUBOPT_0x46
001b57 940e 2457 	CALL SUBOPT_0x5D
                 ;      }
                 _0x23F:
                 ;//---  H-4502 -----
                 ;      pointY += 35;
001b59 e2e3      	LDI  R30,LOW(35)
001b5a 0e8e      	ADD  R8,R30
                 ;      if(pHsensor){
001b5b fe24      	SBRS R2,4
001b5c c03e      	RJMP _0x240
                 ;        if(error&0x08){
001b5d 91e0 0367 	LDS  R30,_error
001b5f 70e8      	ANDI R30,LOW(0x8)
001b60 f069      	BREQ _0x241
                 ;          ILI9341_WriteString(10,pointY,"  !",Font_11x18,YELLOW,RED,1);
001b61 940e 2482 	CALL SUBOPT_0x62
001b63 93fa      	ST   -Y,R31
001b64 93ea      	ST   -Y,R30
                +
001b65 edeb     +LDI R30 , LOW ( _0x229 + ( 68 ) )
001b66 e0f2     +LDI R31 , HIGH ( _0x229 + ( 68 ) )
                 	__POINTW1MN _0x229,68
001b67 940e 23b7 	CALL SUBOPT_0x46
001b69 940e 2430 	CALL SUBOPT_0x56
001b6b 93fa      	ST   -Y,R31
001b6c 93ea      	ST   -Y,R30
001b6d c029      	RJMP _0x290
                 ;        }
                 ;        else {
                 _0x241:
                 ;          temp = pvPH; fraction(temp);     //   
001b6e 91e0 03d0 	LDS  R30,_pvPH
001b70 91f0 03d1 	LDS  R31,_pvPH+1
001b72 940e 243d 	CALL SUBOPT_0x58
                 ;          sprintf(buff,"   %2u.%u",intval,frcval);
                +
001b74 eae1     +LDI R30 , LOW ( 2 * _0x0 + ( 411 ) )
001b75 e1f8     +LDI R31 , HIGH ( 2 * _0x0 + ( 411 ) )
                 	__POINTW1FN _0x0,411
001b76 940e 2444 	CALL SUBOPT_0x59
001b78 2dec      	MOV  R30,R12
001b79 940e 2421 	CALL SUBOPT_0x54
001b7b 940e 2448 	CALL SUBOPT_0x5A
                 ;          ILI9341_WriteString(20,pointY,buff,Font_11x18,bordWindow,fillWindow,2);
001b7d e1e4      	LDI  R30,LOW(20)
001b7e e0f0      	LDI  R31,HIGH(20)
001b7f 940e 245e 	CALL SUBOPT_0x5E
001b81 940e 2454 	CALL SUBOPT_0x5C
001b83 940e 22d6 	CALL SUBOPT_0x26
001b85 940e 2485 	CALL SUBOPT_0x63
001b87 e0a2      	LDI  R26,LOW(2)
001b88 940e 0ea3 	CALL _ILI9341_WriteString
                 ;          ILI9341_WriteString(230,pointY+10,"",Font_11x18,bordWindow,fillWindow,1);
001b8a eee6      	LDI  R30,LOW(230)
001b8b e0f0      	LDI  R31,HIGH(230)
001b8c 940e 245e 	CALL SUBOPT_0x5E
001b8e 963a      	ADIW R30,10
001b8f 93fa      	ST   -Y,R31
001b90 93ea      	ST   -Y,R30
                +
001b91 eeee     +LDI R30 , LOW ( _0x229 + ( 87 ) )
001b92 e0f2     +LDI R31 , HIGH ( _0x229 + ( 87 ) )
                 	__POINTW1MN _0x229,87
001b93 940e 23b7 	CALL SUBOPT_0x46
001b95 940e 2485 	CALL SUBOPT_0x63
                 _0x290:
001b97 e0a1      	LDI  R26,LOW(1)
001b98 940e 0ea3 	CALL _ILI9341_WriteString
                 ;        }
                 ;      }
                 ;      else {
001b9a c00a      	RJMP _0x243
                 _0x240:
                 ;        ILI9341_WriteString(10,pointY,"   .",Font_11x18,bordWindow,fillWindow,1);
001b9b 940e 2482 	CALL SUBOPT_0x62
001b9d 93fa      	ST   -Y,R31
001b9e 93ea      	ST   -Y,R30
                +
001b9f efe6     +LDI R30 , LOW ( _0x229 + ( 95 ) )
001ba0 e0f2     +LDI R31 , HIGH ( _0x229 + ( 95 ) )
                 	__POINTW1MN _0x229,95
001ba1 940e 23b7 	CALL SUBOPT_0x46
001ba3 940e 2457 	CALL SUBOPT_0x5D
                 ;      }
                 _0x243:
                 ;      if(newButtonCheck()) return; //++++    +++++++++++++++++++++++++
001ba5 de06      	RCALL _newButtonCheck
001ba6 30e0      	CPI  R30,0
001ba7 f009      	BREQ _0x244
001ba8 c1a0      	RJMP _0x20C0002
                 ;}
                 _0x244:
001ba9 c19f      	RJMP _0x20C0002
                 ; .FEND
                 
                 	.DSEG
                 _0x229:
000297           	.BYTE 0x75
                 ;
                 ;//--------------------------------  . -------------------------------------------
                 ;void displ_1(void){
                 
                 	.CSEG
                 _displ_1:
                 ; .FSTART _displ_1
                 ; unsigned char i, num = 1;
                 ; unsigned int fillWindow = YELLOW2, bordWindow = BLACK, temp;
                 ;  pointY = 7;
001baa 9722      	SBIW R28,2
001bab 940e 2752 	CALL __SAVELOCR6
                 ;	i -> R17
                 ;	num -> R16
                 ;	fillWindow -> R18,R19
                 ;	bordWindow -> R20,R21
                 ;	temp -> Y+6
001bad e001      	LDI  R16,1
                +
001bae ef20     +LDI R18 , LOW ( 752 )
001baf e032     +LDI R19 , HIGH ( 752 )
                 	__GETWRN 18,19,752
                +
001bb0 ef4f     +LDI R20 , LOW ( - 1 )
001bb1 ef5f     +LDI R21 , HIGH ( - 1 )
                 	__GETWRN 20,21,-1
001bb2 e0e7      	LDI  R30,LOW(7)
001bb3 2e8e      	MOV  R8,R30
                 ;  if(newSetButt){
001bb4 2066      	TST  R6
001bb5 f409      	BRNE PC+2
001bb6 c04a      	RJMP _0x245
                 ;    newSetButt = 0;
001bb7 2466      	CLR  R6
                 ;    ILI9341_FillScreen(0, max_X, 0, max_Y, fillWindow);
001bb8 940e 2280 	CALL SUBOPT_0x16
001bba 940e 239e 	CALL SUBOPT_0x44
001bbc 940e 23ed 	CALL SUBOPT_0x4D
                 ;    initializeButtons(4,1,25);// 4 ;  ;  25
                 ;    ILI9341_DrawRectangle(2, 2, max_X-5, TFTBUTTON+6, bordWindow);
001bbe 940e 248a 	CALL SUBOPT_0x64
001bc0 940e 248a 	CALL SUBOPT_0x64
001bc2 940e 248f 	CALL SUBOPT_0x65
                 ;    ILI9341_FillRectangle(buttons[num].x-3, TFTBUTTON, buttons[num].w+3, buttons[num].h, fillWindow);
001bc4 940e 24ac 	CALL SUBOPT_0x66
001bc6 940e 24b1 	CALL SUBOPT_0x67
                 ;    //----------  ------- a ---  -  - ---------
                 ;    drawButton(WHITE, WHITE, BLACK, 0, "");
001bc8 940e 2280 	CALL SUBOPT_0x16
001bca efef      	LDI  R30,LOW(65535)
001bcb efff      	LDI  R31,HIGH(65535)
001bcc 940e 2316 	CALL SUBOPT_0x30
001bce 940e 2404 	CALL SUBOPT_0x4F
                 ;    drawButton(fillWindow, fillWindow, bordWindow, 1, "");
001bd0 940e 23fd 	CALL SUBOPT_0x4E
001bd2 940e 240d 	CALL SUBOPT_0x51
                 ;    drawButton(WHITE, WHITE, BLACK, 2, "");
001bd4 940e 2280 	CALL SUBOPT_0x16
001bd6 940e 2408 	CALL SUBOPT_0x50
001bd8 940e 2414 	CALL SUBOPT_0x52
                 ;    drawButton(WHITE, WHITE, BLACK, 3, "");
001bda 940e 2280 	CALL SUBOPT_0x16
001bdc 940e 2408 	CALL SUBOPT_0x50
001bde 940e 241b 	CALL SUBOPT_0x53
                 ;    ILI9341_DrawVerticalLine(buttons[num].x-2, TFTBUTTON+8, buttons[num].h+5, bordWindow);
001be0 940e 24b7 	CALL SUBOPT_0x68
001be2 940e 24c0 	CALL SUBOPT_0x69
001be4 940e 24c9 	CALL SUBOPT_0x6A
                 ;    ILI9341_DrawVerticalLine(buttons[num].x+buttons[num].w, TFTBUTTON+8, buttons[num].h+5, bordWindow);
001be6 940e 24cf 	CALL SUBOPT_0x6B
001be8 940e 24d9 	CALL SUBOPT_0x6C
001bea 940e 24c9 	CALL SUBOPT_0x6A
                 ;    ILI9341_DrawHorizontalLine(buttons[num].x-1, max_Y-2, buttons[num].w, bordWindow);
001bec 940e 24b7 	CALL SUBOPT_0x68
001bee 940e 24e3 	CALL SUBOPT_0x6D
001bf0 93fa      	ST   -Y,R31
001bf1 93ea      	ST   -Y,R30
001bf2 01da      	MOVW R26,R20
001bf3 940e 0de0 	CALL _ILI9341_DrawHorizontalLine
                 ;    ILI9341_WriteString(100,pointY," ",Font_11x18,bordWindow,fillWindow,1);
001bf5 e6e4      	LDI  R30,LOW(100)
001bf6 e0f0      	LDI  R31,HIGH(100)
001bf7 940e 245e 	CALL SUBOPT_0x5E
001bf9 93fa      	ST   -Y,R31
001bfa 93ea      	ST   -Y,R30
                +
001bfb e0ec     +LDI R30 , LOW ( _0x246 + ( 0 ) )
001bfc e0f3     +LDI R31 , HIGH ( _0x246 + ( 0 ) )
                 	__POINTW1MN _0x246,0
001bfd 940e 23b7 	CALL SUBOPT_0x46
001bff 940e 2457 	CALL SUBOPT_0x5D
                 ;  }
                 ;//---  t  ---
                 ;    pointY += 20;
                 _0x245:
001c01 e1e4      	LDI  R30,LOW(20)
001c02 0e8e      	ADD  R8,R30
                 ;    for (i=0;i<ds18b20;i++){
001c03 e010      	LDI  R17,LOW(0)
                 _0x248:
001c04 1519      	CP   R17,R9
001c05 f008      	BRLO PC+2
001c06 c047      	RJMP _0x249
                 ;      sprintf(buff," %u",i+1);
001c07 940e 22ca 	CALL SUBOPT_0x24
                +
001c09 ede7     +LDI R30 , LOW ( 2 * _0x0 + ( 465 ) )
001c0a e1f8     +LDI R31 , HIGH ( 2 * _0x0 + ( 465 ) )
                 	__POINTW1FN _0x0,465
001c0b 940e 24ef 	CALL SUBOPT_0x6E
                 ;      ILI9341_WriteString(5,pointY+12,buff,Font_11x18,bordWindow,fillWindow,1);
001c0d 940e 244d 	CALL SUBOPT_0x5B
001c0f 963c      	ADIW R30,12
001c10 940e 2454 	CALL SUBOPT_0x5C
001c12 940e 22d6 	CALL SUBOPT_0x26
001c14 940e 2457 	CALL SUBOPT_0x5D
                 ;      temp = t.point[i];
001c16 2fe1      	MOV  R30,R17
001c17 edae      	LDI  R26,LOW(_t)
001c18 e0b3      	LDI  R27,HIGH(_t)
001c19 e0f0      	LDI  R31,0
001c1a 0fee      	LSL  R30
001c1b 1fff      	ROL  R31
001c1c 0fae      	ADD  R26,R30
001c1d 1fbf      	ADC  R27,R31
001c1e 940e 24f5 	CALL SUBOPT_0x6F
                 ;      if(temp>1250) sprintf(buff,"**.*");
001c20 3ea3      	CPI  R26,LOW(0x4E3)
001c21 e0e4      	LDI  R30,HIGH(0x4E3)
001c22 07be      	CPC  R27,R30
001c23 f038      	BRLO _0x24A
001c24 940e 22ca 	CALL SUBOPT_0x24
                +
001c26 e2eb     +LDI R30 , LOW ( 2 * _0x0 + ( 293 ) )
001c27 e1f8     +LDI R31 , HIGH ( 2 * _0x0 + ( 293 ) )
                 	__POINTW1FN _0x0,293
001c28 940e 22cf 	CALL SUBOPT_0x25
                 ;      else {
001c2a c00e      	RJMP _0x24B
                 _0x24A:
                 ;          fraction(temp);     //   
001c2b 81ae      	LDD  R26,Y+6
001c2c 81bf      	LDD  R27,Y+6+1
001c2d dd5f      	RCALL _fraction
                 ;          sprintf(buff,"%2u.%u",intval,frcval); // T     
001c2e 940e 22ca 	CALL SUBOPT_0x24
                +
001c30 e3e0     +LDI R30 , LOW ( 2 * _0x0 + ( 298 ) )
001c31 e1f8     +LDI R31 , HIGH ( 2 * _0x0 + ( 298 ) )
                 	__POINTW1FN _0x0,298
001c32 940e 2444 	CALL SUBOPT_0x59
001c34 2dec      	MOV  R30,R12
001c35 940e 2421 	CALL SUBOPT_0x54
001c37 940e 2448 	CALL SUBOPT_0x5A
                 ;      }
                 _0x24B:
                 ;      ILI9341_WriteString(120,pointY,buff,Font_11x18,bordWindow,fillWindow,2);
001c39 e7e8      	LDI  R30,LOW(120)
001c3a e0f0      	LDI  R31,HIGH(120)
001c3b 940e 245e 	CALL SUBOPT_0x5E
001c3d 940e 2454 	CALL SUBOPT_0x5C
001c3f 940e 22d6 	CALL SUBOPT_0x26
001c41 940e 2485 	CALL SUBOPT_0x63
001c43 e0a2      	LDI  R26,LOW(2)
001c44 940e 0ea3 	CALL _ILI9341_WriteString
                 ;      //   
                 ;      pointY += 35;
001c46 e2e3      	LDI  R30,LOW(35)
001c47 0e8e      	ADD  R8,R30
                 ;      if(newButtonCheck()) return; //++++    +++++++++++++++++++++++++
001c48 dd63      	RCALL _newButtonCheck
001c49 30e0      	CPI  R30,0
001c4a f009      	BREQ _0x24C
001c4b c0fd      	RJMP _0x20C0002
                 ;    };
                 _0x24C:
001c4c 5f1f      	SUBI R17,-1
001c4d cfb6      	RJMP _0x248
                 _0x249:
                 ;
                 ;}
001c4e c0fa      	RJMP _0x20C0002
                 ; .FEND
                 
                 	.DSEG
                 _0x246:
00030c           	.BYTE 0xC
                 ;
                 ;//------------------------------   --------------------------------------------
                 ;void displ_2(void){
                 
                 	.CSEG
                 _displ_2:
                 ; .FSTART _displ_2
                 ; char i, num=2;
                 ; unsigned int fillWindow = GRAY1, bordWindow = BLACK, color_box;
                 ;  pointY=7;
001c4f 9722      	SBIW R28,2
001c50 940e 2752 	CALL __SAVELOCR6
                 ;	i -> R17
                 ;	num -> R16
                 ;	fillWindow -> R18,R19
                 ;	bordWindow -> R20,R21
                 ;	color_box -> Y+6
001c52 e002      	LDI  R16,2
                +
001c53 ee2f     +LDI R18 , LOW ( 31727 )
001c54 e73b     +LDI R19 , HIGH ( 31727 )
                 	__GETWRN 18,19,31727
                +
001c55 ef4f     +LDI R20 , LOW ( - 1 )
001c56 ef5f     +LDI R21 , HIGH ( - 1 )
                 	__GETWRN 20,21,-1
001c57 e0e7      	LDI  R30,LOW(7)
001c58 2e8e      	MOV  R8,R30
                 ;  if(newSetButt){
001c59 2066      	TST  R6
001c5a f409      	BRNE PC+2
001c5b c050      	RJMP _0x24D
                 ;    newSetButt = 0;
001c5c 2466      	CLR  R6
                 ;    ILI9341_FillScreen(0, max_X, 0, max_Y, fillWindow);
001c5d 940e 2280 	CALL SUBOPT_0x16
001c5f 940e 239e 	CALL SUBOPT_0x44
001c61 940e 23ed 	CALL SUBOPT_0x4D
                 ;    initializeButtons(4,1,25);// 4 ;  ;  25
                 ;    ILI9341_DrawRectangle(2, 2, max_X-5, TFTBUTTON+6, bordWindow);
001c63 940e 248a 	CALL SUBOPT_0x64
001c65 940e 248a 	CALL SUBOPT_0x64
001c67 940e 248f 	CALL SUBOPT_0x65
                 ;    ILI9341_FillRectangle(buttons[num].x-3, TFTBUTTON, buttons[num].w+3, buttons[num].h, fillWindow);
001c69 940e 24ac 	CALL SUBOPT_0x66
001c6b 940e 24b1 	CALL SUBOPT_0x67
                 ;    //----------  ------- a ---  -  - ---------
                 ;    drawButton(WHITE, WHITE, BLACK, 0, "");
001c6d 940e 2280 	CALL SUBOPT_0x16
001c6f efef      	LDI  R30,LOW(65535)
001c70 efff      	LDI  R31,HIGH(65535)
001c71 940e 2316 	CALL SUBOPT_0x30
001c73 940e 2404 	CALL SUBOPT_0x4F
                 ;    drawButton(WHITE, WHITE, BLACK, 1, "");
001c75 940e 2280 	CALL SUBOPT_0x16
001c77 940e 2280 	CALL SUBOPT_0x16
001c79 940e 2408 	CALL SUBOPT_0x50
001c7b e0e1      	LDI  R30,LOW(1)
001c7c 93ea      	ST   -Y,R30
                +
001c7d eda6     +LDI R26 , LOW ( 2 * _0x0 + ( 208 ) )
001c7e e1b7     +LDI R27 , HIGH ( 2 * _0x0 + ( 208 ) )
                 	__POINTW2FN _0x0,208
001c7f 940e 127b 	CALL _drawButton
                 ;    drawButton(fillWindow, fillWindow, bordWindow, 2, "");
001c81 940e 23fd 	CALL SUBOPT_0x4E
001c83 940e 2414 	CALL SUBOPT_0x52
                 ;    drawButton(WHITE, WHITE, BLACK, 3, "");
001c85 940e 2280 	CALL SUBOPT_0x16
001c87 940e 2408 	CALL SUBOPT_0x50
001c89 940e 241b 	CALL SUBOPT_0x53
                 ;    ILI9341_DrawVerticalLine(buttons[num].x-2, TFTBUTTON+8, buttons[num].h+5, bordWindow);
001c8b 940e 24b7 	CALL SUBOPT_0x68
001c8d 940e 24c0 	CALL SUBOPT_0x69
001c8f 940e 24c9 	CALL SUBOPT_0x6A
                 ;    ILI9341_DrawVerticalLine(buttons[num].x+buttons[num].w, TFTBUTTON+8, buttons[num].h+5, bordWindow);
001c91 940e 24cf 	CALL SUBOPT_0x6B
001c93 940e 24d9 	CALL SUBOPT_0x6C
001c95 940e 24c9 	CALL SUBOPT_0x6A
                 ;    ILI9341_DrawHorizontalLine(buttons[num].x-1, max_Y-2, buttons[num].w, bordWindow);
001c97 940e 24b7 	CALL SUBOPT_0x68
001c99 940e 24e3 	CALL SUBOPT_0x6D
001c9b 93fa      	ST   -Y,R31
001c9c 93ea      	ST   -Y,R30
001c9d 01da      	MOVW R26,R20
001c9e 940e 0de0 	CALL _ILI9341_DrawHorizontalLine
                 ;    ILI9341_WriteString(90,pointY," ",Font_11x18,bordWindow,fillWindow,1);
001ca0 e5ea      	LDI  R30,LOW(90)
001ca1 e0f0      	LDI  R31,HIGH(90)
001ca2 940e 245e 	CALL SUBOPT_0x5E
001ca4 93fa      	ST   -Y,R31
001ca5 93ea      	ST   -Y,R30
                +
001ca6 e1e8     +LDI R30 , LOW ( _0x24E + ( 0 ) )
001ca7 e0f3     +LDI R31 , HIGH ( _0x24E + ( 0 ) )
                 	__POINTW1MN _0x24E,0
001ca8 940e 23b7 	CALL SUBOPT_0x46
001caa 940e 2457 	CALL SUBOPT_0x5D
                 ;  }
                 ;//----   ----
                 ;  pointY += 20;
                 _0x24D:
001cac e1e4      	LDI  R30,LOW(20)
001cad 0e8e      	ADD  R8,R30
                 ;  for (i=0;i<4;i++){
001cae e010      	LDI  R17,LOW(0)
                 _0x250:
001caf 3014      	CPI  R17,4
001cb0 f008      	BRLO PC+2
001cb1 c056      	RJMP _0x251
                 ;    sprintf(buff,"  N%u: ",i+1);
001cb2 940e 22ca 	CALL SUBOPT_0x24
                +
001cb4 efe1     +LDI R30 , LOW ( 2 * _0x0 + ( 491 ) )
001cb5 e1f8     +LDI R31 , HIGH ( 2 * _0x0 + ( 491 ) )
                 	__POINTW1FN _0x0,491
001cb6 940e 24ef 	CALL SUBOPT_0x6E
                 ;    switch (relay[i]){
001cb8 2fe1      	MOV  R30,R17
001cb9 e0f0      	LDI  R31,0
001cba 50e8      	SUBI R30,LOW(-_relay)
001cbb 4ffc      	SBCI R31,HIGH(-_relay)
001cbc 81e0      	LD   R30,Z
001cbd e0f0      	LDI  R31,0
001cbe fde7      	SBRC R30,7
001cbf efff      	SER  R31
                 ;      case 2: strcat(buff,""); break;
001cc0 30e2      	CPI  R30,LOW(0x2)
001cc1 e0a0      	LDI  R26,HIGH(0x2)
001cc2 07fa      	CPC  R31,R26
001cc3 f429      	BRNE _0x255
001cc4 940e 22ca 	CALL SUBOPT_0x24
                +
001cc6 e2a8     +LDI R26 , LOW ( _0x24E + ( 16 ) )
001cc7 e0b3     +LDI R27 , HIGH ( _0x24E + ( 16 ) )
                 	__POINTW2MN _0x24E,16
001cc8 c00f      	RJMP _0x291
                 ;      case 1: strcat(buff,"ON "); break;
                 _0x255:
001cc9 30e1      	CPI  R30,LOW(0x1)
001cca e0a0      	LDI  R26,HIGH(0x1)
001ccb 07fa      	CPC  R31,R26
001ccc f429      	BRNE _0x256
001ccd 940e 22ca 	CALL SUBOPT_0x24
                +
001ccf e2ac     +LDI R26 , LOW ( _0x24E + ( 20 ) )
001cd0 e0b3     +LDI R27 , HIGH ( _0x24E + ( 20 ) )
                 	__POINTW2MN _0x24E,20
001cd1 c006      	RJMP _0x291
                 ;      case 0: strcat(buff,"OFF"); break;
                 _0x256:
001cd2 9730      	SBIW R30,0
001cd3 f431      	BRNE _0x254
001cd4 940e 22ca 	CALL SUBOPT_0x24
                +
001cd6 e3a0     +LDI R26 , LOW ( _0x24E + ( 24 ) )
001cd7 e0b3     +LDI R27 , HIGH ( _0x24E + ( 24 ) )
                 	__POINTW2MN _0x24E,24
                 _0x291:
001cd8 940e 21aa 	CALL _strcat
                 ;    };
                 _0x254:
                 ;    ILI9341_WriteString(5,pointY,buff,Font_11x18,bordWindow,fillWindow,1);
001cda 940e 244d 	CALL SUBOPT_0x5B
001cdc 940e 2454 	CALL SUBOPT_0x5C
001cde 940e 22d6 	CALL SUBOPT_0x26
001ce0 940e 2457 	CALL SUBOPT_0x5D
                 ;    if(relOut[i]) color_box=YELLOW; else color_box=BLACK;
001ce2 2fe1      	MOV  R30,R17
001ce3 e0f0      	LDI  R31,0
001ce4 59e6      	SUBI R30,LOW(-_relOut)
001ce5 4ffc      	SBCI R31,HIGH(-_relOut)
001ce6 81e0      	LD   R30,Z
001ce7 30e0      	CPI  R30,0
001ce8 f019      	BREQ _0x258
001ce9 e1ef      	LDI  R30,LOW(31)
001cea e0f0      	LDI  R31,HIGH(31)
001ceb c002      	RJMP _0x292
                 _0x258:
001cec efef      	LDI  R30,LOW(65535)
001ced efff      	LDI  R31,HIGH(65535)
                 _0x292:
001cee 83ee      	STD  Y+6,R30
001cef 83ff      	STD  Y+6+1,R31
                 ;    ILI9341_FillRectangle(150,pointY,45,18,color_box);
001cf0 e9e6      	LDI  R30,LOW(150)
001cf1 e0f0      	LDI  R31,HIGH(150)
001cf2 940e 245e 	CALL SUBOPT_0x5E
001cf4 93fa      	ST   -Y,R31
001cf5 93ea      	ST   -Y,R30
001cf6 e2ed      	LDI  R30,LOW(45)
001cf7 e0f0      	LDI  R31,HIGH(45)
001cf8 93fa      	ST   -Y,R31
001cf9 93ea      	ST   -Y,R30
001cfa e1e2      	LDI  R30,LOW(18)
001cfb e0f0      	LDI  R31,HIGH(18)
001cfc 93fa      	ST   -Y,R31
001cfd 93ea      	ST   -Y,R30
001cfe 85ae      	LDD  R26,Y+14
001cff 85bf      	LDD  R27,Y+14+1
001d00 940e 0d81 	CALL _ILI9341_FillRectangle
                 ;    pointY = pointY+22;
001d02 940e 2437 	CALL SUBOPT_0x57
                 ;    if(newButtonCheck()) return; //++++    +++++++++++++++++++++++++
001d04 f009      	BREQ _0x25A
001d05 c043      	RJMP _0x20C0002
                 ;  };
                 _0x25A:
001d06 5f1f      	SUBI R17,-1
001d07 cfa7      	RJMP _0x250
                 _0x251:
                 ;//----   ----
                 ;//  pointY = pointY+30;
                 ;  for (i=0;i<4;i++){
001d08 e010      	LDI  R17,LOW(0)
                 _0x25C:
001d09 3014      	CPI  R17,4
001d0a f5f0      	BRSH _0x25D
                 ;    sprintf(buff," N%u: ",i+1);
001d0b 940e 22ca 	CALL SUBOPT_0x24
                +
001d0d e0e9     +LDI R30 , LOW ( 2 * _0x0 + ( 515 ) )
001d0e e1f9     +LDI R31 , HIGH ( 2 * _0x0 + ( 515 ) )
                 	__POINTW1FN _0x0,515
001d0f 940e 24ef 	CALL SUBOPT_0x6E
                 ;    if (analog[i]==-1) strcat(buff,""); else strcat(buff,"");
001d11 2fe1      	MOV  R30,R17
001d12 e0f0      	LDI  R31,0
001d13 50ec      	SUBI R30,LOW(-_analog)
001d14 4ffc      	SBCI R31,HIGH(-_analog)
001d15 81a0      	LD   R26,Z
001d16 3faf      	CPI  R26,LOW(0xFF)
001d17 f429      	BRNE _0x25E
001d18 940e 22ca 	CALL SUBOPT_0x24
                +
001d1a e3a4     +LDI R26 , LOW ( _0x24E + ( 28 ) )
001d1b e0b3     +LDI R27 , HIGH ( _0x24E + ( 28 ) )
                 	__POINTW2MN _0x24E,28
001d1c c004      	RJMP _0x293
                 _0x25E:
001d1d 940e 22ca 	CALL SUBOPT_0x24
                +
001d1f e3a8     +LDI R26 , LOW ( _0x24E + ( 32 ) )
001d20 e0b3     +LDI R27 , HIGH ( _0x24E + ( 32 ) )
                 	__POINTW2MN _0x24E,32
                 _0x293:
001d21 940e 21aa 	CALL _strcat
                 ;    sprintf(txt," %3u%% ",analogOut[i]);
001d23 e5e1      	LDI  R30,LOW(_txt)
001d24 e0f4      	LDI  R31,HIGH(_txt)
001d25 93fa      	ST   -Y,R31
001d26 93ea      	ST   -Y,R30
                +
001d27 e1e9     +LDI R30 , LOW ( 2 * _0x0 + ( 531 ) )
001d28 e1f9     +LDI R31 , HIGH ( 2 * _0x0 + ( 531 ) )
                 	__POINTW1FN _0x0,531
001d29 93fa      	ST   -Y,R31
001d2a 93ea      	ST   -Y,R30
001d2b 2fe1      	MOV  R30,R17
001d2c e0f0      	LDI  R31,0
001d2d 59e2      	SUBI R30,LOW(-_analogOut)
001d2e 4ffc      	SBCI R31,HIGH(-_analogOut)
001d2f 81e0      	LD   R30,Z
001d30 940e 2421 	CALL SUBOPT_0x54
001d32 e084      	LDI  R24,4
001d33 940e 2007 	CALL _sprintf
001d35 9628      	ADIW R28,8
                 ;    strcat(buff,txt);
001d36 940e 22ca 	CALL SUBOPT_0x24
001d38 e5a1      	LDI  R26,LOW(_txt)
001d39 e0b4      	LDI  R27,HIGH(_txt)
001d3a 940e 21aa 	CALL _strcat
                 ;    ILI9341_WriteString(5,pointY,buff,Font_11x18,bordWindow,fillWindow,1);
001d3c 940e 244d 	CALL SUBOPT_0x5B
001d3e 940e 2454 	CALL SUBOPT_0x5C
001d40 940e 22d6 	CALL SUBOPT_0x26
001d42 940e 2457 	CALL SUBOPT_0x5D
                 ;    pointY = pointY+22;
001d44 940e 2437 	CALL SUBOPT_0x57
                 ;    if(newButtonCheck()) return; //++++    +++++++++++++++++++++++++
001d46 f411      	BRNE _0x20C0002
                 ;  };
001d47 5f1f      	SUBI R17,-1
001d48 cfc0      	RJMP _0x25C
                 _0x25D:
                 ;}
                 _0x20C0002:
001d49 940e 2759 	CALL __LOADLOCR6
001d4b 9628      	ADIW R28,8
001d4c 9508      	RET
                 ; .FEND
                 
                 	.DSEG
                 _0x24E:
000318           	.BYTE 0x24
                 ;
                 ;void display(void){
                 
                 	.CSEG
                 _display:
                 ; .FSTART _display
                 ; switch (displ_num){
001d4d 2de4      	MOV  R30,R4
001d4e e0f0      	LDI  R31,0
                 ;    case 0: displ_0(); break;
001d4f 9730      	SBIW R30,0
001d50 f061      	BREQ _0x294
                 ;    case 1: displ_1(); break;
001d51 30e1      	CPI  R30,LOW(0x1)
001d52 e0a0      	LDI  R26,HIGH(0x1)
001d53 07fa      	CPC  R31,R26
001d54 f411      	BRNE _0x265
001d55 de54      	RCALL _displ_1
001d56 c007      	RJMP _0x263
                 ;    case 2: displ_2(); break;
                 _0x265:
001d57 30e2      	CPI  R30,LOW(0x2)
001d58 e0a0      	LDI  R26,HIGH(0x2)
001d59 07fa      	CPC  R31,R26
001d5a f411      	BRNE _0x267
001d5b def3      	RCALL _displ_2
001d5c c001      	RJMP _0x263
                 ;//    case 3: displ_3(); break;
                 ;//    case 4: displ_4(); break;
                 ;//    case 5: displ_5(); break;
                 ;//    case 6: displ_6(); break;
                 ;//    case 7: displ_7(); break;
                 ;//    case 8: displ_8(); break;
                 ;//    case 9: displ_9(); break;
                 ;    default: displ_0(); break;
                 _0x267:
                 _0x294:
001d5d dc63      	RCALL _displ_0
                 ;  }
                 _0x263:
                 ;}
001d5e 9508      	RET
                 ; .FEND
                 ;
                 ;// External Interrupt 0 service routine
                 ;interrupt [EXT_INT0] void ext_int0_isr(void){
                 ; 0000 0060 interrupt [2] void ext_int0_isr(void){
                 _ext_int0_isr:
                 ; .FSTART _ext_int0_isr
001d5f 93aa      	ST   -Y,R26
001d60 93ba      	ST   -Y,R27
001d61 93ea      	ST   -Y,R30
001d62 93fa      	ST   -Y,R31
001d63 b7ef      	IN   R30,SREG
001d64 93ea      	ST   -Y,R30
                 ; 0000 0061  static unsigned int count1;
                 ; 0000 0062  count1++;
001d65 e5ab      	LDI  R26,LOW(_count1_S0000028000)
001d66 e0b4      	LDI  R27,HIGH(_count1_S0000028000)
001d67 940e 2376 	CALL SUBOPT_0x3D
                 ; 0000 0063 }
001d69 91e9      	LD   R30,Y+
001d6a bfef      	OUT  SREG,R30
001d6b 91f9      	LD   R31,Y+
001d6c 91e9      	LD   R30,Y+
001d6d 91b9      	LD   R27,Y+
001d6e 91a9      	LD   R26,Y+
001d6f 9518      	RETI
                 ; .FEND
                 ;// 0.25 Hz timer interrupt generated by Timer1 overflow;  Timer Period: 4,1943 s
                 ;interrupt [TIM1_OVF] void timer_comp_isr(void){
                 ; 0000 0065 interrupt [10] void timer_comp_isr(void){
                 _timer_comp_isr:
                 ; .FSTART _timer_comp_isr
001d70 93ea      	ST   -Y,R30
001d71 b7ef      	IN   R30,SREG
                 ; 0000 0066  Sec=1;
001d72 9468      	SET
001d73 f820      	BLD  R2,0
                 ; 0000 0067 }
001d74 bfef      	OUT  SREG,R30
001d75 91e9      	LD   R30,Y+
001d76 9518      	RETI
                 ; .FEND
                 ;
                 ;
                 ;void main(void){
                 ; 0000 006A void main(void){
                 _main:
                 ; .FSTART _main
                 ; 0000 006B // Declare your local variables here
                 ; 0000 006C char byte;
                 ; 0000 006D #include "init.c"
                 ;// Port D initialization
                 ;PORTD=0x00;// State7=0 State6=T State5=T State4=T State3=T State2=T State1=T State0=T
                 ;	byte -> R17
001d77 e0e0      	LDI  R30,LOW(0)
001d78 bbe2      	OUT  0x12,R30
                 ;DDRD=0x00;// Func7=In Func6=In Func5=In Func4=In Func3=In Func2=In Func1=In Func0=In
001d79 bbe1      	OUT  0x11,R30
                 ;
                 ;// Timer/Counter 0 initialization
                 ;
                 ;// Timer/Counter 1 initialization
                 ;
                 ;TCCR1A=0x00;// initialize Timer1 overflow interrupts in Mode 0 (Normal)
001d7a bdef      	OUT  0x2F,R30
                 ;TCCR1B=(1<<CS12)|(1<<CS10);// clkio/1024; Clock value: 15,625 kHz
001d7b e0e5      	LDI  R30,LOW(5)
001d7c bdee      	OUT  0x2E,R30
                 ;TCNT1H=0;
001d7d e0e0      	LDI  R30,LOW(0)
001d7e bded      	OUT  0x2D,R30
                 ;TCNT1L=0;// timer overflow interrupts will occur with 0.25Hz frequency
001d7f bdec      	OUT  0x2C,R30
                 ;
                 ;// Timer/Counter 2 initialization
                 ;
                 ;// External Interrupt(s) initialization
                 ;// INT0: On Mode: Falling Edge INT1: Off INT2: Off
                 ;GICR|=0x40;
001d80 b7eb      	IN   R30,0x3B
001d81 64e0      	ORI  R30,0x40
001d82 bfeb      	OUT  0x3B,R30
                 ;MCUCR=0x02;
001d83 e0e2      	LDI  R30,LOW(2)
001d84 bfe5      	OUT  0x35,R30
                 ;MCUCSR=0x00;
001d85 e0e0      	LDI  R30,LOW(0)
001d86 bfe4      	OUT  0x34,R30
                 ;GIFR=0x40;
001d87 e4e0      	LDI  R30,LOW(64)
001d88 bfea      	OUT  0x3A,R30
                 ;
                 ;// Timer(s)/Counter(s) Interrupt(s) initialization
                 ;//TIMSK=0x10;
                 ;TIMSK=1<<TOIE1;// enable Timer1 overflow interrupt
001d89 e0e4      	LDI  R30,LOW(4)
001d8a bfe9      	OUT  0x39,R30
                 ;
                 ;// USART initialization
                 ;// Communication Parameters: 8 Data, 1 Stop, No Parity
                 ;// USART Receiver: On
                 ;// USART Transmitter: On
                 ;// USART Mode: Asynchronous
                 ;// USART Baud Rate: 9600
                 ;UCSRA=0x00;
001d8b e0e0      	LDI  R30,LOW(0)
001d8c b9eb      	OUT  0xB,R30
                 ;UCSRB=0xD8;
001d8d ede8      	LDI  R30,LOW(216)
001d8e b9ea      	OUT  0xA,R30
                 ;UCSRC=0x86;
001d8f e8e6      	LDI  R30,LOW(134)
001d90 bde0      	OUT  0x20,R30
                 ;UBRRH=0x00;
001d91 e0e0      	LDI  R30,LOW(0)
001d92 bde0      	OUT  0x20,R30
                 ;UBRRL=0x67;
001d93 e6e7      	LDI  R30,LOW(103)
001d94 b9e9      	OUT  0x9,R30
                 ;
                 ;// Analog Comparator initialization
                 ;ACSR=0x80;// Analog Comparator: Off
001d95 e8e0      	LDI  R30,LOW(128)
001d96 b9e8      	OUT  0x8,R30
                 ;SFIOR=0x00;
001d97 e0e0      	LDI  R30,LOW(0)
001d98 bfe0      	OUT  0x30,R30
                 ;
                 ;// TWI initialization
                 ;//TWBR=0x0C;// Bit Rate: 400,000 kHz
                 ;TWBR=0x48;// Bit Rate: 100,000 kHz
001d99 e4e8      	LDI  R30,LOW(72)
001d9a b9e0      	OUT  0x0,R30
                 ;TWAR=0x00;// Two Wire Bus Slave Address: 0x0; General Call Recognition: Off
001d9b e0e0      	LDI  R30,LOW(0)
001d9c b9e2      	OUT  0x2,R30
                 ;TWCR=0x44;// Generate Acknowledge Pulse: On; TWI Interrupt: Off
001d9d e4e4      	LDI  R30,LOW(68)
001d9e bfe6      	OUT  0x36,R30
                 ;TWSR=0x00;
001d9f e0e0      	LDI  R30,LOW(0)
001da0 b9e1      	OUT  0x1,R30
                 ;
                 ;// ADC initialization
                 ;// ADC Clock frequency: 125,000 kHz
                 ;// ADC Voltage Reference: AREF pin
                 ;ADMUX=ADC_VREF_TYPE & 0xff;
001da1 e4e0      	LDI  R30,LOW(64)
001da2 b9e7      	OUT  0x7,R30
                 ;ADCSRA=0x84;
001da3 e8e4      	LDI  R30,LOW(132)
001da4 b9e6      	OUT  0x6,R30
                 ;
                 ;offsetT = set[4][0];
                +
001da5 e2a0     +LDI R26 , LOW ( _set + ( 32 ) )
001da6 e0b0     +LDI R27 , HIGH ( _set + ( 32 ) )
                 	__POINTW2MN _set,32
001da7 940e 271b 	CALL __EEPROMRDW
001da9 93e0 03c8 	STS  _offsetT,R30
001dab 93f0 03c9 	STS  _offsetT+1,R31
                 ;offsetRH = set[4][1];
                +
001dad e2a2     +LDI R26 , LOW ( _set + ( 34 ) )
001dae e0b0     +LDI R27 , HIGH ( _set + ( 34 ) )
                 	__POINTW2MN _set,34
001daf 940e 271b 	CALL __EEPROMRDW
001db1 93e0 03cc 	STS  _offsetRH,R30
001db3 93f0 03cd 	STS  _offsetRH+1,R31
                 ;typeS = set[4][2];
                +
001db5 e2a4     +LDI R26 , LOW ( _set + ( 36 ) )
001db6 e0b0     +LDI R27 , HIGH ( _set + ( 36 ) )
                 	__POINTW2MN _set,36
001db7 940e 271f 	CALL __EEPROMRDB
001db9 940e 274d 	CALL __BSTB1
001dbb f825      	BLD  R2,5
                 ;
                 ;delay_ms(1000);
001dbc eea8      	LDI  R26,LOW(1000)
001dbd e0b3      	LDI  R27,HIGH(1000)
001dbe 940e 2535 	CALL _delay_ms
                 ;Dht = readDHT();    // detect DHT-21/11
001dc0 940e 1148 	CALL _readDHT
001dc2 940e 274d 	CALL __BSTB1
001dc4 f822      	BLD  R2,2
                 ;//------ 1 Wire Protocol Functions ----------------------------------------------------------------------
                 ;ds18b20 = w1_search(0xf0,familycode);// detect how many DS1820/DS18S20 devices are connected to the 1 Wire bus
001dc5 efe0      	LDI  R30,LOW(240)
001dc6 93ea      	ST   -Y,R30
001dc7 e9aa      	LDI  R26,LOW(_familycode)
001dc8 e0b3      	LDI  R27,HIGH(_familycode)
001dc9 940e 2592 	CALL _w1_search
001dcb 2e9e      	MOV  R9,R30
                 ;if((ds18b20+Dht)>MAX_DEVICES) ds18b20=(MAX_DEVICES-Dht);
001dcc 940e 24fc 	CALL SUBOPT_0x70
001dce 0fae      	ADD  R26,R30
001dcf 1fbf      	ADC  R27,R31
001dd0 9714      	SBIW R26,4
001dd1 f034      	BRLT _0x268
001dd2 e0e0      	LDI  R30,0
001dd3 fc22      	SBRC R2,2
001dd4 e0e1      	LDI  R30,1
001dd5 e0a3      	LDI  R26,LOW(3)
001dd6 1bae      	SUB  R26,R30
001dd7 2e9a      	MOV  R9,R26
                 ;if(ds18b20)           //    
                 _0x268:
001dd8 2099      	TST  R9
001dd9 f011      	BREQ _0x269
                 ; {
                 ;   w1_init();      // 1 Wire Bus initialization
001dda 940e 233b 	CALL SUBOPT_0x35
                 ;   w1_write(0xCC); // Load Skip ROM [CCH] command
                 ;   w1_write(0x44); // Load Convert T [44H] command
                 ; }
                 ;//------------------------ once per second --------------------------------------
                 ;clock_buffer[0] = 0;// EOSC=0 BBSQW=0 CONV=0 RS2=0 RS1=0 INTCN=0 A2IE=0 A1IE=0
                 _0x269:
001ddc e0e0      	LDI  R30,LOW(0)
001ddd 93e0 03b5 	STS  _clock_buffer,R30
                 ;clock_buffer[1] = 0;//  EN32kHz=0 BSY=0 A2F=0 A1F=0
                +
001ddf 93e0 03b6+STS _clock_buffer + ( 1 ) , R30
                 	__PUTB1MN _clock_buffer,1
                 ;Clock_Ok = write_TWI(DS3231,0x0E,clock_buffer,2);
001de1 ede0      	LDI  R30,LOW(208)
001de2 93ea      	ST   -Y,R30
001de3 e0ee      	LDI  R30,LOW(14)
001de4 e0f0      	LDI  R31,HIGH(14)
001de5 93fa      	ST   -Y,R31
001de6 93ea      	ST   -Y,R30
001de7 ebe5      	LDI  R30,LOW(_clock_buffer)
001de8 e0f3      	LDI  R31,HIGH(_clock_buffer)
001de9 93fa      	ST   -Y,R31
001dea 93ea      	ST   -Y,R30
001deb e0a2      	LDI  R26,LOW(2)
001dec 940e 10c3 	CALL _write_TWI
001dee 940e 274d 	CALL __BSTB1
001df0 f821      	BLD  R2,1
                 ;
                 ;// Global enable interrupts
                 ;#asm("sei")
001df1 9478      	sei
                 ;
                 ;InitInterface();
001df2 940e 0f09 	CALL _InitInterface
                 ;ILI9341_Init();
001df4 940e 0fc4 	CALL _ILI9341_Init
                 ;//TFT_SetOrientation(3);  //0
                 ;ILI9341_FillScreen(0, max_X, 0, max_Y, fillScreen);
001df6 940e 2280 	CALL SUBOPT_0x16
001df8 940e 239e 	CALL SUBOPT_0x44
001dfa 91e0 03c2 	LDS  R30,_max_Y
001dfc 91f0 03c3 	LDS  R31,_max_Y+1
001dfe 93fa      	ST   -Y,R31
001dff 93ea      	ST   -Y,R30
001e00 91a0 03c4 	LDS  R26,_fillScreen
001e02 91b0 03c5 	LDS  R27,_fillScreen+1
001e04 940e 0f30 	CALL _ILI9341_FillScreen
                 ;pointY = 10;
001e06 e0ea      	LDI  R30,LOW(10)
001e07 2e8e      	MOV  R8,R30
                 ;ILI9341_WriteString(60, pointY, "www.graviton.com.ua", Font_11x18, WHITE, fillScreen, 1);
001e08 e3ec      	LDI  R30,LOW(60)
001e09 e0f0      	LDI  R31,HIGH(60)
001e0a 940e 245e 	CALL SUBOPT_0x5E
001e0c 93fa      	ST   -Y,R31
001e0d 93ea      	ST   -Y,R30
                +
001e0e e3ec     +LDI R30 , LOW ( _0x26A + ( 0 ) )
001e0f e0f3     +LDI R31 , HIGH ( _0x26A + ( 0 ) )
                 	__POINTW1MN _0x26A,0
001e10 940e 23b7 	CALL SUBOPT_0x46
001e12 940e 2280 	CALL SUBOPT_0x16
001e14 940e 2503 	CALL SUBOPT_0x71
001e16 940e 22e1 	CALL SUBOPT_0x27
                 ;pointY += 30;
001e18 940e 2508 	CALL SUBOPT_0x72
                 ;ILI9341_WriteString(80, pointY, "", Font_11x18, WHITE, fillScreen, 2);
001e1a 93fa      	ST   -Y,R31
001e1b 93ea      	ST   -Y,R30
                +
001e1c e5e0     +LDI R30 , LOW ( _0x26A + ( 20 ) )
001e1d e0f3     +LDI R31 , HIGH ( _0x26A + ( 20 ) )
                 	__POINTW1MN _0x26A,20
001e1e 940e 23b7 	CALL SUBOPT_0x46
001e20 940e 2280 	CALL SUBOPT_0x16
001e22 940e 250d 	CALL SUBOPT_0x73
                 ;pointY += 30;
001e24 940e 2508 	CALL SUBOPT_0x72
                 ;ILI9341_WriteString(80, pointY, "", Font_11x18, WHITE, fillScreen, 2);
001e26 93fa      	ST   -Y,R31
001e27 93ea      	ST   -Y,R30
                +
001e28 e5e8     +LDI R30 , LOW ( _0x26A + ( 28 ) )
001e29 e0f3     +LDI R31 , HIGH ( _0x26A + ( 28 ) )
                 	__POINTW1MN _0x26A,28
001e2a 940e 23b7 	CALL SUBOPT_0x46
001e2c 940e 2280 	CALL SUBOPT_0x16
001e2e 940e 250d 	CALL SUBOPT_0x73
                 ;pointY = pointY+45;
001e30 e2ed      	LDI  R30,LOW(45)
001e31 0e8e      	ADD  R8,R30
                 ;sprintf(buff,"  %u",ds18b20+Dht);    //  
001e32 940e 22ca 	CALL SUBOPT_0x24
                +
001e34 e4e5     +LDI R30 , LOW ( 2 * _0x0 + ( 575 ) )
001e35 e1f9     +LDI R31 , HIGH ( 2 * _0x0 + ( 575 ) )
                 	__POINTW1FN _0x0,575
001e36 93fa      	ST   -Y,R31
001e37 93ea      	ST   -Y,R30
001e38 940e 24fc 	CALL SUBOPT_0x70
001e3a 0fea      	ADD  R30,R26
001e3b 1ffb      	ADC  R31,R27
001e3c 940e 2479 	CALL SUBOPT_0x61
                 ;ILI9341_WriteString(10, pointY, buff, Font_11x18, WHITE, fillScreen, 1);
001e3e 940e 2482 	CALL SUBOPT_0x62
001e40 940e 2454 	CALL SUBOPT_0x5C
001e42 940e 22d6 	CALL SUBOPT_0x26
001e44 940e 2280 	CALL SUBOPT_0x16
001e46 940e 2503 	CALL SUBOPT_0x71
001e48 940e 22e1 	CALL SUBOPT_0x27
                 ;pointY = pointY+20;
001e4a e1e4      	LDI  R30,LOW(20)
001e4b 0e8e      	ADD  R8,R30
                 ;sprintf(buff,"  %u",Dht);                //  AM2301
001e4c 940e 22ca 	CALL SUBOPT_0x24
                +
001e4e e5ed     +LDI R30 , LOW ( 2 * _0x0 + ( 599 ) )
001e4f e1f9     +LDI R31 , HIGH ( 2 * _0x0 + ( 599 ) )
                 	__POINTW1FN _0x0,599
001e50 93fa      	ST   -Y,R31
001e51 93ea      	ST   -Y,R30
001e52 e0e0      	LDI  R30,0
001e53 fc22      	SBRC R2,2
001e54 e0e1      	LDI  R30,1
001e55 940e 2421 	CALL SUBOPT_0x54
001e57 e084      	LDI  R24,4
001e58 940e 2007 	CALL _sprintf
001e5a 9628      	ADIW R28,8
                 ;ILI9341_WriteString(10, pointY, buff, Font_11x18, WHITE, fillScreen, 1);
001e5b 940e 2482 	CALL SUBOPT_0x62
001e5d 940e 2454 	CALL SUBOPT_0x5C
001e5f 940e 22d6 	CALL SUBOPT_0x26
001e61 940e 2280 	CALL SUBOPT_0x16
001e63 940e 2503 	CALL SUBOPT_0x71
001e65 940e 22e1 	CALL SUBOPT_0x27
                 ;//  pointY = pointY+20;
                 ;
                 ;newSetButt = 1;
001e67 e0e1      	LDI  R30,LOW(1)
001e68 2e6e      	MOV  R6,R30
                 ;temperature_check();
001e69 940e 13ee 	CALL _temperature_check
                 ;//display();
                 ; 0000 006E 
                 ; 0000 006F while (1){
                 _0x26B:
                 ; 0000 0070    //-----------  1  ---------------------------
                 ; 0000 0071    if(Sec){
001e6b fe20      	SBRS R2,0
001e6c c01d      	RJMP _0x26E
                 ; 0000 0072      Sec=0;
001e6d 94e8      	CLT
001e6e f820      	BLD  R2,0
                 ; 0000 0073      if(ds18b20) temperature_check();
001e6f 2099      	TST  R9
001e70 f011      	BREQ _0x26F
001e71 940e 13ee 	CALL _temperature_check
                 ; 0000 0074      if(Dht){                                         //   
                 _0x26F:
001e73 fe22      	SBRS R2,2
001e74 c015      	RJMP _0x270
                 ; 0000 0075        if(readDHT()) DHTexist = 3;
001e75 940e 1148 	CALL _readDHT
001e77 30e0      	CPI  R30,0
001e78 f019      	BREQ _0x271
001e79 e0e3      	LDI  R30,LOW(3)
001e7a 2ebe      	MOV  R11,R30
                 ; 0000 0076        else if(DHTexist) DHTexist--;                   //   ?
001e7b c00e      	RJMP _0x272
                 _0x271:
001e7c 20bb      	TST  R11
001e7d f011      	BREQ _0x273
001e7e 94ba      	DEC  R11
                 ; 0000 0077        else {pvT = 1900; pvRH = 190;}
001e7f c00a      	RJMP _0x274
                 _0x273:
001e80 e6ec      	LDI  R30,LOW(1900)
001e81 e0f7      	LDI  R31,HIGH(1900)
001e82 93e0 03c6 	STS  _pvT,R30
001e84 93f0 03c7 	STS  _pvT+1,R31
001e86 ebee      	LDI  R30,LOW(190)
001e87 e0f0      	LDI  R31,HIGH(190)
001e88 940e 22a5 	CALL SUBOPT_0x1D
                 _0x274:
                 _0x272:
                 ; 0000 0078      }
                 ; 0000 0079      // -------- 1 ---------
                 ; 0000 007A //     if(Dht){
                 ; 0000 007B //       RelayControl(pvT,0);
                 ; 0000 007C //       RelayControl(pvRH,1);
                 ; 0000 007D //     }
                 ; 0000 007E //     else {
                 ; 0000 007F //       RelayControl(t.point[0],0);
                 ; 0000 0080 //       RelayControl(t.point[1],1);
                 ; 0000 0081 //     }
                 ; 0000 0082      // -------- 2 ---------
                 ; 0000 0083 //     relayHadl();
                 ; 0000 0084 //     analogHadl();
                 ; 0000 0085 //     if (displ_num<3) display();
                 ; 0000 0086 //     //-- CO2 ----------------------------------
                 ; 0000 0087 //     if(CO2module){
                 ; 0000 0088 //       byte = readCO2();     //          pvCO2
                 ; 0000 0089 //       if(byte) pvCO2 = LowPassF2(pvCO2,3);//    2   Tf[3]
                 ; 0000 008A //       controlCompressorCO2(4);  //  2.
                 ; 0000 008B //     }
                 ; 0000 008C    }
                 _0x270:
                 ; 0000 008D    //---------------------------------------------------------
                 ; 0000 008E    if(newButton==100) display();
                 _0x26E:
001e8a e6e4      	LDI  R30,LOW(100)
001e8b 15e7      	CP   R30,R7
001e8c f029      	BREQ _0x295
                 ; 0000 008F    else {touchpad(newButton); newButton=100; display();}
001e8d 2da7      	MOV  R26,R7
001e8e 940e 148c 	CALL _touchpad
001e90 e6e4      	LDI  R30,LOW(100)
001e91 2e7e      	MOV  R7,R30
                 _0x295:
001e92 deba      	RCALL _display
                 ; 0000 0090 //   sprintf(buff,"X%4u; Y%4u; D%u newB=%3u",point_X,point_Y, displ_num, newButton);
                 ; 0000 0091 //   ILI9341_WriteString(5,TFTBUTTON-10,buff,Font_11x18,WHITE,BLACK,1);
                 ; 0000 0092  }
001e93 cfd7      	RJMP _0x26B
                 ; 0000 0093 }
                 _0x277:
001e94 cfff      	RJMP _0x277
                 ; .FEND
                 
                 	.DSEG
                 _0x26A:
00033c           	.BYTE 0x24
                 	#ifndef __SLEEP_DEFINED__
                 	#endif
                 
                 	.CSEG
                 _put_buff_G100:
                 ; .FSTART _put_buff_G100
001e95 93ba      	ST   -Y,R27
001e96 93aa      	ST   -Y,R26
001e97 931a      	ST   -Y,R17
001e98 930a      	ST   -Y,R16
001e99 81aa      	LDD  R26,Y+2
001e9a 81bb      	LDD  R27,Y+2+1
001e9b 9612      	ADIW R26,2
001e9c 940e 26f3 	CALL __GETW1P
001e9e 9730      	SBIW R30,0
001e9f f129      	BREQ _0x2000010
001ea0 81aa      	LDD  R26,Y+2
001ea1 81bb      	LDD  R27,Y+2+1
001ea2 9614      	ADIW R26,4
001ea3 940e 26f3 	CALL __GETW1P
001ea5 018f      	MOVW R16,R30
001ea6 9730      	SBIW R30,0
001ea7 f061      	BREQ _0x2000012
                +
001ea8 3002     +CPI R16 , LOW ( 2 )
001ea9 e0e0     +LDI R30 , HIGH ( 2 )
001eaa 071e     +CPC R17 , R30
                 	__CPWRN 16,17,2
001eab f080      	BRLO _0x2000013
001eac 01f8      	MOVW R30,R16
001ead 9731      	SBIW R30,1
001eae 018f      	MOVW R16,R30
                +
001eaf 81aa     +LDD R26 , Y + 2
001eb0 81bb     +LDD R27 , Y + 2 + 1
001eb1 9614     +ADIW R26 , 4
001eb2 93ed     +ST X + , R30
001eb3 93fc     +ST X , R31
                 	__PUTW1SNS 2,4
                 _0x2000012:
001eb4 81aa      	LDD  R26,Y+2
001eb5 81bb      	LDD  R27,Y+2+1
001eb6 9612      	ADIW R26,2
001eb7 940e 2376 	CALL SUBOPT_0x3D
001eb9 9731      	SBIW R30,1
001eba 81ac      	LDD  R26,Y+4
001ebb 83a0      	STD  Z+0,R26
                 _0x2000013:
001ebc 81aa      	LDD  R26,Y+2
001ebd 81bb      	LDD  R27,Y+2+1
001ebe 940e 26f3 	CALL __GETW1P
001ec0 23ff      	TST  R31
001ec1 f012      	BRMI _0x2000014
001ec2 940e 2376 	CALL SUBOPT_0x3D
                 _0x2000014:
001ec4 c006      	RJMP _0x2000015
                 _0x2000010:
001ec5 81aa      	LDD  R26,Y+2
001ec6 81bb      	LDD  R27,Y+2+1
001ec7 efef      	LDI  R30,LOW(65535)
001ec8 efff      	LDI  R31,HIGH(65535)
001ec9 93ed      	ST   X+,R30
001eca 93fc      	ST   X,R31
                 _0x2000015:
001ecb 8119      	LDD  R17,Y+1
001ecc 8108      	LDD  R16,Y+0
001ecd 9625      	ADIW R28,5
001ece 9508      	RET
                 ; .FEND
                 __print_G100:
                 ; .FSTART __print_G100
001ecf 93ba      	ST   -Y,R27
001ed0 93aa      	ST   -Y,R26
001ed1 9726      	SBIW R28,6
001ed2 940e 2752 	CALL __SAVELOCR6
001ed4 e010      	LDI  R17,0
001ed5 85ac      	LDD  R26,Y+12
001ed6 85bd      	LDD  R27,Y+12+1
001ed7 940e 2399 	CALL SUBOPT_0x43
                 _0x2000016:
001ed9 89ea      	LDD  R30,Y+18
001eda 89fb      	LDD  R31,Y+18+1
001edb 9631      	ADIW R30,1
001edc 8bea      	STD  Y+18,R30
001edd 8bfb      	STD  Y+18+1,R31
001ede 9731      	SBIW R30,1
001edf 91e4      	LPM  R30,Z
001ee0 2f2e      	MOV  R18,R30
001ee1 30e0      	CPI  R30,0
001ee2 f409      	BRNE PC+2
001ee3 c11b      	RJMP _0x2000018
001ee4 2fe1      	MOV  R30,R17
001ee5 30e0      	CPI  R30,0
001ee6 f439      	BRNE _0x200001C
001ee7 3225      	CPI  R18,37
001ee8 f411      	BRNE _0x200001D
001ee9 e011      	LDI  R17,LOW(1)
001eea c002      	RJMP _0x200001E
                 _0x200001D:
001eeb 940e 2513 	CALL SUBOPT_0x74
                 _0x200001E:
001eed c110      	RJMP _0x200001B
                 _0x200001C:
001eee 30e1      	CPI  R30,LOW(0x1)
001eef f4a9      	BRNE _0x200001F
001ef0 3225      	CPI  R18,37
001ef1 f419      	BRNE _0x2000020
001ef2 940e 2513 	CALL SUBOPT_0x74
001ef4 c108      	RJMP _0x20000CC
                 _0x2000020:
001ef5 e012      	LDI  R17,LOW(2)
001ef6 e040      	LDI  R20,LOW(0)
001ef7 e000      	LDI  R16,LOW(0)
001ef8 322d      	CPI  R18,45
001ef9 f411      	BRNE _0x2000021
001efa e001      	LDI  R16,LOW(1)
001efb c102      	RJMP _0x200001B
                 _0x2000021:
001efc 322b      	CPI  R18,43
001efd f411      	BRNE _0x2000022
001efe e24b      	LDI  R20,LOW(43)
001eff c0fe      	RJMP _0x200001B
                 _0x2000022:
001f00 3220      	CPI  R18,32
001f01 f411      	BRNE _0x2000023
001f02 e240      	LDI  R20,LOW(32)
001f03 c0fa      	RJMP _0x200001B
                 _0x2000023:
001f04 c002      	RJMP _0x2000024
                 _0x200001F:
001f05 30e2      	CPI  R30,LOW(0x2)
001f06 f439      	BRNE _0x2000025
                 _0x2000024:
001f07 e050      	LDI  R21,LOW(0)
001f08 e013      	LDI  R17,LOW(3)
001f09 3320      	CPI  R18,48
001f0a f411      	BRNE _0x2000026
001f0b 6800      	ORI  R16,LOW(128)
001f0c c0f1      	RJMP _0x200001B
                 _0x2000026:
001f0d c003      	RJMP _0x2000027
                 _0x2000025:
001f0e 30e3      	CPI  R30,LOW(0x3)
001f0f f009      	BREQ PC+2
001f10 c0ed      	RJMP _0x200001B
                 _0x2000027:
001f11 3320      	CPI  R18,48
001f12 f010      	BRLO _0x200002A
001f13 332a      	CPI  R18,58
001f14 f008      	BRLO _0x200002B
                 _0x200002A:
001f15 c007      	RJMP _0x2000029
                 _0x200002B:
001f16 e0aa      	LDI  R26,LOW(10)
001f17 9f5a      	MUL  R21,R26
001f18 2d50      	MOV  R21,R0
001f19 2fe2      	MOV  R30,R18
001f1a 53e0      	SUBI R30,LOW(48)
001f1b 0f5e      	ADD  R21,R30
001f1c c0e1      	RJMP _0x200001B
                 _0x2000029:
001f1d 2fe2      	MOV  R30,R18
001f1e 36e3      	CPI  R30,LOW(0x63)
001f1f f449      	BRNE _0x200002F
001f20 940e 251a 	CALL SUBOPT_0x75
001f22 89e8      	LDD  R30,Y+16
001f23 89f9      	LDD  R31,Y+16+1
001f24 81a4      	LDD  R26,Z+4
001f25 93aa      	ST   -Y,R26
001f26 940e 2520 	CALL SUBOPT_0x76
001f28 c0d4      	RJMP _0x2000030
                 _0x200002F:
001f29 37e3      	CPI  R30,LOW(0x73)
001f2a f459      	BRNE _0x2000032
001f2b 940e 251a 	CALL SUBOPT_0x75
001f2d 89a8      	LDD  R26,Y+16
001f2e 89b9      	LDD  R27,Y+16+1
001f2f 9614      	ADIW R26,4
001f30 940e 24f5 	CALL SUBOPT_0x6F
001f32 940e 21bb 	CALL _strlen
001f34 2f1e      	MOV  R17,R30
001f35 c00d      	RJMP _0x2000033
                 _0x2000032:
001f36 37e0      	CPI  R30,LOW(0x70)
001f37 f479      	BRNE _0x2000035
001f38 940e 251a 	CALL SUBOPT_0x75
001f3a 89a8      	LDD  R26,Y+16
001f3b 89b9      	LDD  R27,Y+16+1
001f3c 9614      	ADIW R26,4
001f3d 940e 24f5 	CALL SUBOPT_0x6F
001f3f 940e 21c7 	CALL _strlenf
001f41 2f1e      	MOV  R17,R30
001f42 6008      	ORI  R16,LOW(8)
                 _0x2000033:
001f43 6002      	ORI  R16,LOW(2)
001f44 770f      	ANDI R16,LOW(127)
001f45 e030      	LDI  R19,LOW(0)
001f46 c034      	RJMP _0x2000036
                 _0x2000035:
001f47 36e4      	CPI  R30,LOW(0x64)
001f48 f011      	BREQ _0x2000039
001f49 36e9      	CPI  R30,LOW(0x69)
001f4a f411      	BRNE _0x200003A
                 _0x2000039:
001f4b 6004      	ORI  R16,LOW(4)
001f4c c002      	RJMP _0x200003B
                 _0x200003A:
001f4d 37e5      	CPI  R30,LOW(0x75)
001f4e f431      	BRNE _0x200003C
                 _0x200003B:
001f4f ebe0      	LDI  R30,LOW(_tbl10_G100*2)
001f50 e1f6      	LDI  R31,HIGH(_tbl10_G100*2)
001f51 83ee      	STD  Y+6,R30
001f52 83ff      	STD  Y+6+1,R31
001f53 e015      	LDI  R17,LOW(5)
001f54 c00c      	RJMP _0x200003D
                 _0x200003C:
001f55 35e8      	CPI  R30,LOW(0x58)
001f56 f411      	BRNE _0x200003F
001f57 6008      	ORI  R16,LOW(8)
001f58 c003      	RJMP _0x2000040
                 _0x200003F:
001f59 37e8      	CPI  R30,LOW(0x78)
001f5a f009      	BREQ PC+2
001f5b c0a1      	RJMP _0x2000071
                 _0x2000040:
001f5c ebea      	LDI  R30,LOW(_tbl16_G100*2)
001f5d e1f6      	LDI  R31,HIGH(_tbl16_G100*2)
001f5e 83ee      	STD  Y+6,R30
001f5f 83ff      	STD  Y+6+1,R31
001f60 e014      	LDI  R17,LOW(4)
                 _0x200003D:
001f61 ff02      	SBRS R16,2
001f62 c014      	RJMP _0x2000042
001f63 940e 251a 	CALL SUBOPT_0x75
001f65 940e 2526 	CALL SUBOPT_0x77
001f67 85ab      	LDD  R26,Y+11
001f68 23aa      	TST  R26
001f69 f43a      	BRPL _0x2000043
001f6a 85ea      	LDD  R30,Y+10
001f6b 85fb      	LDD  R31,Y+10+1
001f6c 940e 2620 	CALL __ANEGW1
001f6e 87ea      	STD  Y+10,R30
001f6f 87fb      	STD  Y+10+1,R31
001f70 e24d      	LDI  R20,LOW(45)
                 _0x2000043:
001f71 3040      	CPI  R20,0
001f72 f011      	BREQ _0x2000044
001f73 5f1f      	SUBI R17,-LOW(1)
001f74 c001      	RJMP _0x2000045
                 _0x2000044:
001f75 7f0b      	ANDI R16,LOW(251)
                 _0x2000045:
001f76 c004      	RJMP _0x2000046
                 _0x2000042:
001f77 940e 251a 	CALL SUBOPT_0x75
001f79 940e 2526 	CALL SUBOPT_0x77
                 _0x2000046:
                 _0x2000036:
001f7b fd00      	SBRC R16,0
001f7c c011      	RJMP _0x2000047
                 _0x2000048:
001f7d 1715      	CP   R17,R21
001f7e f478      	BRSH _0x200004A
001f7f ff07      	SBRS R16,7
001f80 c008      	RJMP _0x200004B
001f81 ff02      	SBRS R16,2
001f82 c004      	RJMP _0x200004C
001f83 7f0b      	ANDI R16,LOW(251)
001f84 2f24      	MOV  R18,R20
001f85 5011      	SUBI R17,LOW(1)
001f86 c001      	RJMP _0x200004D
                 _0x200004C:
001f87 e320      	LDI  R18,LOW(48)
                 _0x200004D:
001f88 c001      	RJMP _0x200004E
                 _0x200004B:
001f89 e220      	LDI  R18,LOW(32)
                 _0x200004E:
001f8a 940e 2513 	CALL SUBOPT_0x74
001f8c 5051      	SUBI R21,LOW(1)
001f8d cfef      	RJMP _0x2000048
                 _0x200004A:
                 _0x2000047:
001f8e 2f31      	MOV  R19,R17
001f8f ff01      	SBRS R16,1
001f90 c017      	RJMP _0x200004F
                 _0x2000050:
001f91 3030      	CPI  R19,0
001f92 f0a1      	BREQ _0x2000052
001f93 ff03      	SBRS R16,3
001f94 c006      	RJMP _0x2000053
001f95 81ee      	LDD  R30,Y+6
001f96 81ff      	LDD  R31,Y+6+1
001f97 9125      	LPM  R18,Z+
001f98 83ee      	STD  Y+6,R30
001f99 83ff      	STD  Y+6+1,R31
001f9a c005      	RJMP _0x2000054
                 _0x2000053:
001f9b 81ae      	LDD  R26,Y+6
001f9c 81bf      	LDD  R27,Y+6+1
001f9d 912d      	LD   R18,X+
001f9e 83ae      	STD  Y+6,R26
001f9f 83bf      	STD  Y+6+1,R27
                 _0x2000054:
001fa0 940e 2513 	CALL SUBOPT_0x74
001fa2 3050      	CPI  R21,0
001fa3 f009      	BREQ _0x2000055
001fa4 5051      	SUBI R21,LOW(1)
                 _0x2000055:
001fa5 5031      	SUBI R19,LOW(1)
001fa6 cfea      	RJMP _0x2000050
                 _0x2000052:
001fa7 c04b      	RJMP _0x2000056
                 _0x200004F:
                 _0x2000058:
001fa8 e320      	LDI  R18,LOW(48)
001fa9 81ee      	LDD  R30,Y+6
001faa 81ff      	LDD  R31,Y+6+1
001fab 940e 26f7 	CALL __GETW1PF
001fad 87e8      	STD  Y+8,R30
001fae 87f9      	STD  Y+8+1,R31
001faf 81ee      	LDD  R30,Y+6
001fb0 81ff      	LDD  R31,Y+6+1
001fb1 9632      	ADIW R30,2
001fb2 83ee      	STD  Y+6,R30
001fb3 83ff      	STD  Y+6+1,R31
                 _0x200005A:
001fb4 85e8      	LDD  R30,Y+8
001fb5 85f9      	LDD  R31,Y+8+1
001fb6 85aa      	LDD  R26,Y+10
001fb7 85bb      	LDD  R27,Y+10+1
001fb8 17ae      	CP   R26,R30
001fb9 07bf      	CPC  R27,R31
001fba f050      	BRLO _0x200005C
001fbb 5f2f      	SUBI R18,-LOW(1)
001fbc 85a8      	LDD  R26,Y+8
001fbd 85b9      	LDD  R27,Y+8+1
001fbe 85ea      	LDD  R30,Y+10
001fbf 85fb      	LDD  R31,Y+10+1
001fc0 1bea      	SUB  R30,R26
001fc1 0bfb      	SBC  R31,R27
001fc2 87ea      	STD  Y+10,R30
001fc3 87fb      	STD  Y+10+1,R31
001fc4 cfef      	RJMP _0x200005A
                 _0x200005C:
001fc5 332a      	CPI  R18,58
001fc6 f028      	BRLO _0x200005D
001fc7 ff03      	SBRS R16,3
001fc8 c002      	RJMP _0x200005E
001fc9 5f29      	SUBI R18,-LOW(7)
001fca c001      	RJMP _0x200005F
                 _0x200005E:
001fcb 5d29      	SUBI R18,-LOW(39)
                 _0x200005F:
                 _0x200005D:
001fcc fd04      	SBRC R16,4
001fcd c01a      	RJMP _0x2000061
001fce 3321      	CPI  R18,49
001fcf f420      	BRSH _0x2000063
001fd0 85a8      	LDD  R26,Y+8
001fd1 85b9      	LDD  R27,Y+8+1
001fd2 9711      	SBIW R26,1
001fd3 f409      	BRNE _0x2000062
                 _0x2000063:
001fd4 c009      	RJMP _0x20000CD
                 _0x2000062:
001fd5 1753      	CP   R21,R19
001fd6 f010      	BRLO _0x2000067
001fd7 ff00      	SBRS R16,0
001fd8 c001      	RJMP _0x2000068
                 _0x2000067:
001fd9 c013      	RJMP _0x2000066
                 _0x2000068:
001fda e220      	LDI  R18,LOW(32)
001fdb ff07      	SBRS R16,7
001fdc c00b      	RJMP _0x2000069
001fdd e320      	LDI  R18,LOW(48)
                 _0x20000CD:
001fde 6100      	ORI  R16,LOW(16)
001fdf ff02      	SBRS R16,2
001fe0 c007      	RJMP _0x200006A
001fe1 7f0b      	ANDI R16,LOW(251)
001fe2 934a      	ST   -Y,R20
001fe3 940e 2520 	CALL SUBOPT_0x76
001fe5 3050      	CPI  R21,0
001fe6 f009      	BREQ _0x200006B
001fe7 5051      	SUBI R21,LOW(1)
                 _0x200006B:
                 _0x200006A:
                 _0x2000069:
                 _0x2000061:
001fe8 940e 2513 	CALL SUBOPT_0x74
001fea 3050      	CPI  R21,0
001feb f009      	BREQ _0x200006C
001fec 5051      	SUBI R21,LOW(1)
                 _0x200006C:
                 _0x2000066:
001fed 5031      	SUBI R19,LOW(1)
001fee 85a8      	LDD  R26,Y+8
001fef 85b9      	LDD  R27,Y+8+1
001ff0 9712      	SBIW R26,2
001ff1 f008      	BRLO _0x2000059
001ff2 cfb5      	RJMP _0x2000058
                 _0x2000059:
                 _0x2000056:
001ff3 ff00      	SBRS R16,0
001ff4 c008      	RJMP _0x200006D
                 _0x200006E:
001ff5 3050      	CPI  R21,0
001ff6 f031      	BREQ _0x2000070
001ff7 5051      	SUBI R21,LOW(1)
001ff8 e2e0      	LDI  R30,LOW(32)
001ff9 93ea      	ST   -Y,R30
001ffa 940e 2520 	CALL SUBOPT_0x76
001ffc cff8      	RJMP _0x200006E
                 _0x2000070:
                 _0x200006D:
                 _0x2000071:
                 _0x2000030:
                 _0x20000CC:
001ffd e010      	LDI  R17,LOW(0)
                 _0x200001B:
001ffe ceda      	RJMP _0x2000016
                 _0x2000018:
001fff 85ac      	LDD  R26,Y+12
002000 85bd      	LDD  R27,Y+12+1
002001 940e 26f3 	CALL __GETW1P
002003 940e 2759 	CALL __LOADLOCR6
002005 9664      	ADIW R28,20
002006 9508      	RET
                 ; .FEND
                 _sprintf:
                 ; .FSTART _sprintf
002007 92ff      	PUSH R15
002008 2ef8      	MOV  R15,R24
002009 9726      	SBIW R28,6
00200a 940e 2754 	CALL __SAVELOCR4
00200c 940e 252e 	CALL SUBOPT_0x78
00200e 9730      	SBIW R30,0
00200f f419      	BRNE _0x2000072
002010 efef      	LDI  R30,LOW(65535)
002011 efff      	LDI  R31,HIGH(65535)
002012 c023      	RJMP _0x20C0001
                 _0x2000072:
002013 01de      	MOVW R26,R28
002014 9616      	ADIW R26,6
002015 940e 2617 	CALL __ADDW2R15
002017 018d      	MOVW R16,R26
002018 940e 252e 	CALL SUBOPT_0x78
00201a 83ee      	STD  Y+6,R30
00201b 83ff      	STD  Y+6+1,R31
00201c e0e0      	LDI  R30,LOW(0)
00201d 87e8      	STD  Y+8,R30
00201e 87e9      	STD  Y+8+1,R30
00201f 01de      	MOVW R26,R28
002020 961a      	ADIW R26,10
002021 940e 2617 	CALL __ADDW2R15
002023 940e 26f3 	CALL __GETW1P
002025 93fa      	ST   -Y,R31
002026 93ea      	ST   -Y,R30
002027 931a      	ST   -Y,R17
002028 930a      	ST   -Y,R16
002029 e9e5      	LDI  R30,LOW(_put_buff_G100)
00202a e1fe      	LDI  R31,HIGH(_put_buff_G100)
00202b 93fa      	ST   -Y,R31
00202c 93ea      	ST   -Y,R30
00202d 01de      	MOVW R26,R28
00202e 961a      	ADIW R26,10
00202f de9f      	RCALL __print_G100
002030 019f      	MOVW R18,R30
002031 81ae      	LDD  R26,Y+6
002032 81bf      	LDD  R27,Y+6+1
002033 e0e0      	LDI  R30,LOW(0)
002034 93ec      	ST   X,R30
002035 01f9      	MOVW R30,R18
                 _0x20C0001:
002036 940e 275b 	CALL __LOADLOCR4
002038 962a      	ADIW R28,10
002039 90ff      	POP  R15
00203a 9508      	RET
                 ; .FEND
                 	#ifndef __SLEEP_DEFINED__
                 	#endif
                 
                 	.DSEG
                 
                 	.CSEG
                 _twi_int_handler:
                 ; .FSTART _twi_int_handler
00203b 920a      	ST   -Y,R0
00203c 921a      	ST   -Y,R1
00203d 92fa      	ST   -Y,R15
00203e 936a      	ST   -Y,R22
00203f 937a      	ST   -Y,R23
002040 938a      	ST   -Y,R24
002041 939a      	ST   -Y,R25
002042 93aa      	ST   -Y,R26
002043 93ba      	ST   -Y,R27
002044 93ea      	ST   -Y,R30
002045 93fa      	ST   -Y,R31
002046 b7ef      	IN   R30,SREG
002047 93ea      	ST   -Y,R30
002048 940e 2752 	CALL __SAVELOCR6
00204a 9110 0361 	LDS  R17,_twi_rx_index
00204c 9100 0360 	LDS  R16,_twi_tx_index
00204e 9130 0460 	LDS  R19,_bytes_to_tx_G101
002050 9120 0362 	LDS  R18,_twi_result
002052 2fe1      	MOV  R30,R17
002053 91a0 0461 	LDS  R26,_twi_rx_buffer_G101
002055 91b0 0462 	LDS  R27,_twi_rx_buffer_G101+1
002057 e0f0      	LDI  R31,0
002058 0fea      	ADD  R30,R26
002059 1ffb      	ADC  R31,R27
00205a 01af      	MOVW R20,R30
00205b b1e1      	IN   R30,0x1
00205c 7fe8      	ANDI R30,LOW(0xF8)
00205d 30e8      	CPI  R30,LOW(0x8)
00205e f411      	BRNE _0x2020017
00205f e020      	LDI  R18,LOW(0)
002060 c002      	RJMP _0x2020018
                 _0x2020017:
002061 31e0      	CPI  R30,LOW(0x10)
002062 f419      	BRNE _0x2020019
                 _0x2020018:
002063 91e0 045d 	LDS  R30,_slave_address_G101
002065 c010      	RJMP _0x2020067
                 _0x2020019:
002066 31e8      	CPI  R30,LOW(0x18)
002067 f011      	BREQ _0x202001D
002068 32e8      	CPI  R30,LOW(0x28)
002069 f521      	BRNE _0x202001E
                 _0x202001D:
00206a 1703      	CP   R16,R19
00206b f480      	BRSH _0x202001F
00206c 2fe0      	MOV  R30,R16
00206d 5f0f      	SUBI R16,-1
00206e 91a0 045e 	LDS  R26,_twi_tx_buffer_G101
002070 91b0 045f 	LDS  R27,_twi_tx_buffer_G101+1
002072 e0f0      	LDI  R31,0
002073 0fae      	ADD  R26,R30
002074 1fbf      	ADC  R27,R31
002075 91ec      	LD   R30,X
                 _0x2020067:
002076 b9e3      	OUT  0x3,R30
002077 b7e6      	IN   R30,0x36
002078 70ef      	ANDI R30,LOW(0xF)
002079 68e0      	ORI  R30,0x80
00207a bfe6      	OUT  0x36,R30
00207b c011      	RJMP _0x2020020
                 _0x202001F:
00207c 91e0 0463 	LDS  R30,_bytes_to_rx_G101
00207e 171e      	CP   R17,R30
00207f f460      	BRSH _0x2020021
002080 91e0 045d 	LDS  R30,_slave_address_G101
002082 60e1      	ORI  R30,1
002083 93e0 045d 	STS  _slave_address_G101,R30
002085 94e8      	CLT
002086 f830      	BLD  R3,0
002087 b7e6      	IN   R30,0x36
002088 70ef      	ANDI R30,LOW(0xF)
002089 6ae0      	ORI  R30,LOW(0xA0)
00208a bfe6      	OUT  0x36,R30
00208b c0fb      	RJMP _0x2020016
                 _0x2020021:
00208c c033      	RJMP _0x2020022
                 _0x2020020:
00208d c0f9      	RJMP _0x2020016
                 _0x202001E:
00208e 35e0      	CPI  R30,LOW(0x50)
00208f f429      	BRNE _0x2020023
002090 b1e3      	IN   R30,0x3
002091 01da      	MOVW R26,R20
002092 93ec      	ST   X,R30
002093 5f1f      	SUBI R17,-LOW(1)
002094 c002      	RJMP _0x2020024
                 _0x2020023:
002095 34e0      	CPI  R30,LOW(0x40)
002096 f471      	BRNE _0x2020025
                 _0x2020024:
002097 91e0 0463 	LDS  R30,_bytes_to_rx_G101
002099 50e1      	SUBI R30,LOW(1)
00209a 171e      	CP   R17,R30
00209b f020      	BRLO _0x2020026
00209c b7e6      	IN   R30,0x36
00209d 70ef      	ANDI R30,LOW(0xF)
00209e 68e0      	ORI  R30,0x80
00209f c003      	RJMP _0x2020068
                 _0x2020026:
0020a0 b7e6      	IN   R30,0x36
0020a1 70ef      	ANDI R30,LOW(0xF)
0020a2 6ce0      	ORI  R30,LOW(0xC0)
                 _0x2020068:
0020a3 bfe6      	OUT  0x36,R30
0020a4 c0e2      	RJMP _0x2020016
                 _0x2020025:
0020a5 35e8      	CPI  R30,LOW(0x58)
0020a6 f429      	BRNE _0x2020028
0020a7 b1e3      	IN   R30,0x3
0020a8 01da      	MOVW R26,R20
0020a9 93ec      	ST   X,R30
0020aa 5f1f      	SUBI R17,-LOW(1)
0020ab c002      	RJMP _0x2020029
                 _0x2020028:
0020ac 32e0      	CPI  R30,LOW(0x20)
0020ad f409      	BRNE _0x202002A
                 _0x2020029:
0020ae c002      	RJMP _0x202002B
                 _0x202002A:
0020af 33e0      	CPI  R30,LOW(0x30)
0020b0 f409      	BRNE _0x202002C
                 _0x202002B:
0020b1 c002      	RJMP _0x202002D
                 _0x202002C:
0020b2 34e8      	CPI  R30,LOW(0x48)
0020b3 f469      	BRNE _0x202002E
                 _0x202002D:
0020b4 3020      	CPI  R18,0
0020b5 f451      	BRNE _0x202002F
0020b6 fe30      	SBRS R3,0
0020b7 c003      	RJMP _0x2020030
0020b8 1703      	CP   R16,R19
0020b9 f028      	BRLO _0x2020032
0020ba c005      	RJMP _0x2020033
                 _0x2020030:
0020bb 91e0 0463 	LDS  R30,_bytes_to_rx_G101
0020bd 171e      	CP   R17,R30
0020be f408      	BRSH _0x2020034
                 _0x2020032:
0020bf e024      	LDI  R18,LOW(4)
                 _0x2020034:
                 _0x2020033:
                 _0x202002F:
                 _0x2020022:
0020c0 c0c0      	RJMP _0x2020069
                 _0x202002E:
0020c1 33e8      	CPI  R30,LOW(0x38)
0020c2 f429      	BRNE _0x2020037
0020c3 e022      	LDI  R18,LOW(2)
0020c4 b7e6      	IN   R30,0x36
0020c5 70ef      	ANDI R30,LOW(0xF)
0020c6 68e0      	ORI  R30,0x80
0020c7 c0bc      	RJMP _0x202006A
                 _0x2020037:
0020c8 36e8      	CPI  R30,LOW(0x68)
0020c9 f011      	BREQ _0x202003A
0020ca 37e8      	CPI  R30,LOW(0x78)
0020cb f411      	BRNE _0x202003B
                 _0x202003A:
0020cc e022      	LDI  R18,LOW(2)
0020cd c005      	RJMP _0x202003C
                 _0x202003B:
0020ce 36e0      	CPI  R30,LOW(0x60)
0020cf f011      	BREQ _0x202003F
0020d0 37e0      	CPI  R30,LOW(0x70)
0020d1 f491      	BRNE _0x2020040
                 _0x202003F:
0020d2 e020      	LDI  R18,LOW(0)
                 _0x202003C:
0020d3 e010      	LDI  R17,LOW(0)
0020d4 94e8      	CLT
0020d5 f830      	BLD  R3,0
0020d6 91e0 0464 	LDS  R30,_twi_rx_buffer_size_G101
0020d8 30e0      	CPI  R30,0
0020d9 f429      	BRNE _0x2020041
0020da e021      	LDI  R18,LOW(1)
0020db b7e6      	IN   R30,0x36
0020dc 70ef      	ANDI R30,LOW(0xF)
0020dd 68e0      	ORI  R30,0x80
0020de c003      	RJMP _0x202006B
                 _0x2020041:
0020df b7e6      	IN   R30,0x36
0020e0 70ef      	ANDI R30,LOW(0xF)
0020e1 6ce0      	ORI  R30,LOW(0xC0)
                 _0x202006B:
0020e2 bfe6      	OUT  0x36,R30
0020e3 c0a3      	RJMP _0x2020016
                 _0x2020040:
0020e4 38e0      	CPI  R30,LOW(0x80)
0020e5 f011      	BREQ _0x2020044
0020e6 39e0      	CPI  R30,LOW(0x90)
0020e7 f529      	BRNE _0x2020045
                 _0x2020044:
0020e8 fe30      	SBRS R3,0
0020e9 c002      	RJMP _0x2020046
0020ea e021      	LDI  R18,LOW(1)
0020eb c095      	RJMP _0x2020047
                 _0x2020046:
0020ec b1e3      	IN   R30,0x3
0020ed 01da      	MOVW R26,R20
0020ee 93ec      	ST   X,R30
0020ef 5f1f      	SUBI R17,-LOW(1)
0020f0 91e0 0464 	LDS  R30,_twi_rx_buffer_size_G101
0020f2 171e      	CP   R17,R30
0020f3 f4b0      	BRSH _0x2020048
0020f4 91e0 0465 	LDS  R30,_twi_slave_rx_handler_G101
0020f6 91f0 0466 	LDS  R31,_twi_slave_rx_handler_G101+1
0020f8 9730      	SBIW R30,0
0020f9 f411      	BRNE _0x2020049
0020fa e026      	LDI  R18,LOW(6)
0020fb c085      	RJMP _0x2020047
                 _0x2020049:
0020fc e0a0      	LDI  R26,LOW(0)
                +
0020fd 91e0 0465+LDS R30 , _twi_slave_rx_handler_G101 + ( 0 )
0020ff 91f0 0466+LDS R31 , _twi_slave_rx_handler_G101 + ( 0 ) + 1
002101 9509     +ICALL
                 	__CALL1MN _twi_slave_rx_handler_G101,0
002102 30e0      	CPI  R30,0
002103 f029      	BREQ _0x202004A
002104 b7e6      	IN   R30,0x36
002105 70ef      	ANDI R30,LOW(0xF)
002106 6ce0      	ORI  R30,LOW(0xC0)
002107 bfe6      	OUT  0x36,R30
002108 c07e      	RJMP _0x2020016
                 _0x202004A:
002109 c002      	RJMP _0x202004B
                 _0x2020048:
00210a 9468      	SET
00210b f830      	BLD  R3,0
                 _0x202004B:
00210c c002      	RJMP _0x202004C
                 _0x2020045:
00210d 38e8      	CPI  R30,LOW(0x88)
00210e f409      	BRNE _0x202004D
                 _0x202004C:
00210f c002      	RJMP _0x202004E
                 _0x202004D:
002110 39e8      	CPI  R30,LOW(0x98)
002111 f429      	BRNE _0x202004F
                 _0x202004E:
002112 b7e6      	IN   R30,0x36
002113 70ef      	ANDI R30,LOW(0xF)
002114 68e0      	ORI  R30,0x80
002115 bfe6      	OUT  0x36,R30
002116 c070      	RJMP _0x2020016
                 _0x202004F:
002117 3ae0      	CPI  R30,LOW(0xA0)
002118 f4a9      	BRNE _0x2020050
002119 b7e6      	IN   R30,0x36
00211a 70ef      	ANDI R30,LOW(0xF)
00211b 6ce0      	ORI  R30,LOW(0xC0)
00211c bfe6      	OUT  0x36,R30
00211d 9468      	SET
00211e f831      	BLD  R3,1
00211f 91e0 0465 	LDS  R30,_twi_slave_rx_handler_G101
002121 91f0 0466 	LDS  R31,_twi_slave_rx_handler_G101+1
002123 9730      	SBIW R30,0
002124 f039      	BREQ _0x2020051
002125 e0a1      	LDI  R26,LOW(1)
                +
002126 91e0 0465+LDS R30 , _twi_slave_rx_handler_G101 + ( 0 )
002128 91f0 0466+LDS R31 , _twi_slave_rx_handler_G101 + ( 0 ) + 1
00212a 9509     +ICALL
                 	__CALL1MN _twi_slave_rx_handler_G101,0
00212b c001      	RJMP _0x2020052
                 _0x2020051:
00212c e026      	LDI  R18,LOW(6)
                 _0x2020052:
00212d c059      	RJMP _0x2020016
                 _0x2020050:
00212e 3be0      	CPI  R30,LOW(0xB0)
00212f f411      	BRNE _0x2020053
002130 e022      	LDI  R18,LOW(2)
002131 c002      	RJMP _0x2020054
                 _0x2020053:
002132 3ae8      	CPI  R30,LOW(0xA8)
002133 f4b9      	BRNE _0x2020055
                 _0x2020054:
002134 91e0 0467 	LDS  R30,_twi_slave_tx_handler_G101
002136 91f0 0468 	LDS  R31,_twi_slave_tx_handler_G101+1
002138 9730      	SBIW R30,0
002139 f059      	BREQ _0x2020056
00213a e0a0      	LDI  R26,LOW(0)
                +
00213b 91e0 0467+LDS R30 , _twi_slave_tx_handler_G101 + ( 0 )
00213d 91f0 0468+LDS R31 , _twi_slave_tx_handler_G101 + ( 0 ) + 1
00213f 9509     +ICALL
                 	__CALL1MN _twi_slave_tx_handler_G101,0
002140 2f3e      	MOV  R19,R30
002141 30e0      	CPI  R30,0
002142 f011      	BREQ _0x2020058
002143 e020      	LDI  R18,LOW(0)
002144 c002      	RJMP _0x2020059
                 _0x2020056:
                 _0x2020058:
002145 e026      	LDI  R18,LOW(6)
002146 c03a      	RJMP _0x2020047
                 _0x2020059:
002147 e000      	LDI  R16,LOW(0)
002148 94e8      	CLT
002149 f830      	BLD  R3,0
00214a c002      	RJMP _0x202005A
                 _0x2020055:
00214b 3be8      	CPI  R30,LOW(0xB8)
00214c f4e1      	BRNE _0x202005B
                 _0x202005A:
00214d fe30      	SBRS R3,0
00214e c002      	RJMP _0x202005C
00214f e021      	LDI  R18,LOW(1)
002150 c030      	RJMP _0x2020047
                 _0x202005C:
002151 2fe0      	MOV  R30,R16
002152 5f0f      	SUBI R16,-1
002153 91a0 045e 	LDS  R26,_twi_tx_buffer_G101
002155 91b0 045f 	LDS  R27,_twi_tx_buffer_G101+1
002157 e0f0      	LDI  R31,0
002158 0fae      	ADD  R26,R30
002159 1fbf      	ADC  R27,R31
00215a 91ec      	LD   R30,X
00215b b9e3      	OUT  0x3,R30
00215c 1703      	CP   R16,R19
00215d f420      	BRSH _0x202005D
00215e b7e6      	IN   R30,0x36
00215f 70ef      	ANDI R30,LOW(0xF)
002160 6ce0      	ORI  R30,LOW(0xC0)
002161 c005      	RJMP _0x202006C
                 _0x202005D:
002162 9468      	SET
002163 f830      	BLD  R3,0
002164 b7e6      	IN   R30,0x36
002165 70ef      	ANDI R30,LOW(0xF)
002166 68e0      	ORI  R30,0x80
                 _0x202006C:
002167 bfe6      	OUT  0x36,R30
002168 c01e      	RJMP _0x2020016
                 _0x202005B:
002169 3ce0      	CPI  R30,LOW(0xC0)
00216a f011      	BREQ _0x2020060
00216b 3ce8      	CPI  R30,LOW(0xC8)
00216c f489      	BRNE _0x2020061
                 _0x2020060:
00216d b7e6      	IN   R30,0x36
00216e 70ef      	ANDI R30,LOW(0xF)
00216f 6ce0      	ORI  R30,LOW(0xC0)
002170 bfe6      	OUT  0x36,R30
002171 91e0 0467 	LDS  R30,_twi_slave_tx_handler_G101
002173 91f0 0468 	LDS  R31,_twi_slave_tx_handler_G101+1
002175 9730      	SBIW R30,0
002176 f031      	BREQ _0x2020062
002177 e0a1      	LDI  R26,LOW(1)
                +
002178 91e0 0467+LDS R30 , _twi_slave_tx_handler_G101 + ( 0 )
00217a 91f0 0468+LDS R31 , _twi_slave_tx_handler_G101 + ( 0 ) + 1
00217c 9509     +ICALL
                 	__CALL1MN _twi_slave_tx_handler_G101,0
                 _0x2020062:
00217d c007      	RJMP _0x2020035
                 _0x2020061:
00217e 30e0      	CPI  R30,0
00217f f439      	BRNE _0x2020016
002180 e023      	LDI  R18,LOW(3)
                 _0x2020047:
                 _0x2020069:
002181 b7e6      	IN   R30,0x36
002182 70ef      	ANDI R30,LOW(0xF)
002183 6de0      	ORI  R30,LOW(0xD0)
                 _0x202006A:
002184 bfe6      	OUT  0x36,R30
                 _0x2020035:
002185 9468      	SET
002186 f831      	BLD  R3,1
                 _0x2020016:
002187 9310 0361 	STS  _twi_rx_index,R17
002189 9300 0360 	STS  _twi_tx_index,R16
00218b 9320 0362 	STS  _twi_result,R18
00218d 9330 0460 	STS  _bytes_to_tx_G101,R19
00218f 940e 2759 	CALL __LOADLOCR6
002191 9626      	ADIW R28,6
002192 91e9      	LD   R30,Y+
002193 bfef      	OUT  SREG,R30
002194 91f9      	LD   R31,Y+
002195 91e9      	LD   R30,Y+
002196 91b9      	LD   R27,Y+
002197 91a9      	LD   R26,Y+
002198 9199      	LD   R25,Y+
002199 9189      	LD   R24,Y+
00219a 9179      	LD   R23,Y+
00219b 9169      	LD   R22,Y+
00219c 90f9      	LD   R15,Y+
00219d 9019      	LD   R1,Y+
00219e 9009      	LD   R0,Y+
00219f 9518      	RETI
                 ; .FEND
                 
                 	.CSEG
                 
                 	.CSEG
                 _abs:
                 ; .FSTART _abs
0021a0 93ba      	ST   -Y,R27
0021a1 93aa      	ST   -Y,R26
0021a2 91e9          ld   r30,y+
0021a3 91f9          ld   r31,y+
0021a4 9730          sbiw r30,0
0021a5 f41a          brpl __abs0
0021a6 95e0          com  r30
0021a7 95f0          com  r31
0021a8 9631          adiw r30,1
                 __abs0:
0021a9 9508          ret
                 ; .FEND
                 
                 	.DSEG
                 
                 	.CSEG
                 
                 	.CSEG
                 _strcat:
                 ; .FSTART _strcat
0021aa 93ba      	ST   -Y,R27
0021ab 93aa      	ST   -Y,R26
0021ac 91e9          ld   r30,y+
0021ad 91f9          ld   r31,y+
0021ae 91a9          ld   r26,y+
0021af 91b9          ld   r27,y+
0021b0 01cd          movw r24,r26
                 strcat0:
0021b1 916d          ld   r22,x+
0021b2 2366          tst  r22
0021b3 f7e9          brne strcat0
0021b4 9711          sbiw r26,1
                 strcat1:
0021b5 9161          ld   r22,z+
0021b6 936d          st   x+,r22
0021b7 2366          tst  r22
0021b8 f7e1          brne strcat1
0021b9 01fc          movw r30,r24
0021ba 9508          ret
                 ; .FEND
                 _strlen:
                 ; .FSTART _strlen
0021bb 93ba      	ST   -Y,R27
0021bc 93aa      	ST   -Y,R26
0021bd 91a9          ld   r26,y+
0021be 91b9          ld   r27,y+
0021bf 27ee          clr  r30
0021c0 27ff          clr  r31
                 strlen0:
0021c1 916d          ld   r22,x+
0021c2 2366          tst  r22
0021c3 f011          breq strlen1
0021c4 9631          adiw r30,1
0021c5 cffb          rjmp strlen0
                 strlen1:
0021c6 9508          ret
                 ; .FEND
                 _strlenf:
                 ; .FSTART _strlenf
0021c7 93ba      	ST   -Y,R27
0021c8 93aa      	ST   -Y,R26
0021c9 27aa          clr  r26
0021ca 27bb          clr  r27
0021cb 91e9          ld   r30,y+
0021cc 91f9          ld   r31,y+
                 strlenf0:
0021cd 9005      	lpm  r0,z+
0021ce 2000          tst  r0
0021cf f011          breq strlenf1
0021d0 9611          adiw r26,1
0021d1 cffb          rjmp strlenf0
                 strlenf1:
0021d2 01fd          movw r30,r26
0021d3 9508          ret
                 ; .FEND
                 
                 	.CSEG
                 
                 	.DSEG
                 _twi_tx_index:
000360           	.BYTE 0x1
                 _twi_rx_index:
000361           	.BYTE 0x1
                 _twi_result:
000362           	.BYTE 0x1
                 _Font_11x18:
000363           	.BYTE 0x4
                 _error:
000367           	.BYTE 0x1
                 _numMenu:
000368           	.BYTE 0x1
                 _numSet:
000369           	.BYTE 0x1
                 _relOut:
00036a           	.BYTE 0x4
                 _analogOut:
00036e           	.BYTE 0x4
                 _buff:
000372           	.BYTE 0x28
                 _familycode:
00039a           	.BYTE 0x1B
                 _clock_buffer:
0003b5           	.BYTE 0x7
                 _alarm:
0003bc           	.BYTE 0x4
                 _max_X:
0003c0           	.BYTE 0x2
                 _max_Y:
0003c2           	.BYTE 0x2
                 _fillScreen:
0003c4           	.BYTE 0x2
                 _pvT:
0003c6           	.BYTE 0x2
                 _offsetT:
0003c8           	.BYTE 0x2
                 _pvRH:
0003ca           	.BYTE 0x2
                 _offsetRH:
0003cc           	.BYTE 0x2
                 _pvCO2:
0003ce           	.BYTE 0x2
                 _pvPH:
0003d0           	.BYTE 0x2
                 _newval:
0003d2           	.BYTE 0xA
                 _ptr_char:
0003dc           	.BYTE 0x2
                 _t:
0003de           	.BYTE 0x6
                 _ds:
0003e4           	.BYTE 0x8
                 _in:
0003ec           	.BYTE 0x4
                 _out:
0003f0           	.BYTE 0x4
                 _analog:
0003f4           	.BYTE 0x4
                 _relay:
0003f8           	.BYTE 0x4
                 
                 	.ESEG
                 _set:
000000 0e
000001 01
000002 0a
000003 00        	.DB  0xE,0x1,0xA,0x0
000004 05
000005 00
000006 00
000007 00        	.DB  0x5,0x0,0x0,0x0
000008 37
000009 00
00000a 05
00000b 00        	.DB  0x37,0x0,0x5,0x0
00000c 05
00000d 00
00000e 00
00000f 00        	.DB  0x5,0x0,0x0,0x0
000010 fa
000011 00
000012 08
000013 00        	.DB  0xFA,0x0,0x8,0x0
000014 04
000015 00
000016 00
000017 00        	.DB  0x4,0x0,0x0,0x0
000018 05
000019 00
00001a 0a
00001b 00        	.DB  0x5,0x0,0xA,0x0
00001c 01
00001d 00
00001e 00
00001f 00        	.DB  0x1,0x0,0x0,0x0
000020 00
000021 00
000022 00
000023 00        	.DB  0x0,0x0,0x0,0x0
000024 00
000025 00
000026 00
000027 00        	.DB  0x0,0x0,0x0,0x0
                 
                 	.DSEG
                 _err_S0000013000:
0003fc           	.BYTE 0x1
                 _buttonCount:
0003fd           	.BYTE 0x1
                 _plusCount:
0003fe           	.BYTE 0x1
                 _point_X:
0003ff           	.BYTE 0x2
                 _point_Y:
000401           	.BYTE 0x2
                 _point_Z:
000403           	.BYTE 0x2
                 _bottom_Y:
000405           	.BYTE 0x2
                 _left_X:
000407           	.BYTE 0x2
                 _buttons:
000409           	.BYTE 0x18
                 _plus:
000421           	.BYTE 0x30
                 _txt:
000451           	.BYTE 0xA
                 _count1_S0000028000:
00045b           	.BYTE 0x2
                 _slave_address_G101:
00045d           	.BYTE 0x1
                 _twi_tx_buffer_G101:
00045e           	.BYTE 0x2
                 _bytes_to_tx_G101:
000460           	.BYTE 0x1
                 _twi_rx_buffer_G101:
000461           	.BYTE 0x2
                 _bytes_to_rx_G101:
000463           	.BYTE 0x1
                 _twi_rx_buffer_size_G101:
000464           	.BYTE 0x1
                 _twi_slave_rx_handler_G101:
000465           	.BYTE 0x2
                 _twi_slave_tx_handler_G101:
000467           	.BYTE 0x2
                 __seed_G103:
000469           	.BYTE 0x4
                 
                 	.CSEG
                 ;OPTIMIZER ADDED SUBROUTINE, CALLED 2 TIMES, CODE SIZE REDUCTION:10 WORDS
                 SUBOPT_0x0:
0021d4 93aa      	ST   -Y,R26
0021d5 b3eb      	IN   R30,0x1B
0021d6 7fec      	ANDI R30,LOW(0xFC)
0021d7 2fae      	MOV  R26,R30
0021d8 81e8      	LD   R30,Y
0021d9 70e3      	ANDI R30,LOW(0x3)
0021da 2bea      	OR   R30,R26
0021db bbeb      	OUT  0x1B,R30
0021dc b3e5      	IN   R30,0x15
0021dd 70e3      	ANDI R30,LOW(0x3)
0021de 2fae      	MOV  R26,R30
0021df 81e8      	LD   R30,Y
0021e0 7fec      	ANDI R30,LOW(0xFC)
0021e1 2bea      	OR   R30,R26
0021e2 bbe5      	OUT  0x15,R30
0021e3 9508      	RET
                 
                 ;OPTIMIZER ADDED SUBROUTINE, CALLED 3 TIMES, CODE SIZE REDUCTION:7 WORDS
                 SUBOPT_0x1:
0021e4 81ab      	LDD  R26,Y+3
0021e5 940e 0d5a 	CALL _ILI9341_WriteByte
0021e7 81ea      	LDD  R30,Y+2
0021e8 2fae      	MOV  R26,R30
0021e9 940c 0d5a 	JMP  _ILI9341_WriteByte
                 
                 ;OPTIMIZER ADDED SUBROUTINE, CALLED 2 TIMES, CODE SIZE REDUCTION:2 WORDS
                 SUBOPT_0x2:
0021eb 81a9      	LDD  R26,Y+1
0021ec 940e 0d5a 	CALL _ILI9341_WriteByte
0021ee 81e8      	LD   R30,Y
0021ef 2fae      	MOV  R26,R30
0021f0 940c 0d5a 	JMP  _ILI9341_WriteByte
                 
                 ;OPTIMIZER ADDED SUBROUTINE, CALLED 5 TIMES, CODE SIZE REDUCTION:5 WORDS
                 SUBOPT_0x3:
0021f2 81ee      	LDD  R30,Y+6
0021f3 81ff      	LDD  R31,Y+6+1
0021f4 93fa      	ST   -Y,R31
0021f5 93ea      	ST   -Y,R30
0021f6 9508      	RET
                 
                 ;OPTIMIZER ADDED SUBROUTINE, CALLED 4 TIMES, CODE SIZE REDUCTION:6 WORDS
                 SUBOPT_0x4:
0021f7 940e 0d65 	CALL _ILI9341_SetRow
0021f9 e2ac      	LDI  R26,LOW(44)
0021fa 940c 0d51 	JMP  _ILI9341_WriteCommand
                 
                 ;OPTIMIZER ADDED SUBROUTINE, CALLED 3 TIMES, CODE SIZE REDUCTION:1 WORDS
                 SUBOPT_0x5:
0021fc 81ec      	LDD  R30,Y+4
0021fd 81fd      	LDD  R31,Y+4+1
0021fe 85a8      	LDD  R26,Y+8
0021ff 85b9      	LDD  R27,Y+8+1
002200 9508      	RET
                 
                 ;OPTIMIZER ADDED SUBROUTINE, CALLED 12 TIMES, CODE SIZE REDUCTION:19 WORDS
                 SUBOPT_0x6:
002201 85e8      	LDD  R30,Y+8
002202 85f9      	LDD  R31,Y+8+1
002203 93fa      	ST   -Y,R31
002204 93ea      	ST   -Y,R30
002205 9508      	RET
                 
                 ;OPTIMIZER ADDED SUBROUTINE, CALLED 2 TIMES, CODE SIZE REDUCTION:2 WORDS
                 SUBOPT_0x7:
002206 85e8      	LDD  R30,Y+8
002207 85f9      	LDD  R31,Y+8+1
002208 85ac      	LDD  R26,Y+12
002209 85bd      	LDD  R27,Y+12+1
00220a 0fae      	ADD  R26,R30
00220b 1fbf      	ADC  R27,R31
00220c 9711      	SBIW R26,1
00220d 9508      	RET
                 
                 ;OPTIMIZER ADDED SUBROUTINE, CALLED 2 TIMES, CODE SIZE REDUCTION:1 WORDS
                 SUBOPT_0x8:
00220e 93ba      	ST   -Y,R27
00220f 93aa      	ST   -Y,R26
002210 931a      	ST   -Y,R17
002211 930a      	ST   -Y,R16
002212 cfee      	RJMP SUBOPT_0x6
                 
                 ;OPTIMIZER ADDED SUBROUTINE, CALLED 2 TIMES, CODE SIZE REDUCTION:1 WORDS
                 SUBOPT_0x9:
002213 81ae      	LDD  R26,Y+6
002214 81bf      	LDD  R27,Y+6+1
002215 940e 0de0 	CALL _ILI9341_DrawHorizontalLine
002217 cfe9      	RJMP SUBOPT_0x6
                 
                 ;OPTIMIZER ADDED SUBROUTINE, CALLED 2 TIMES, CODE SIZE REDUCTION:1 WORDS
                 SUBOPT_0xA:
002218 0fea      	ADD  R30,R26
002219 1ffb      	ADC  R31,R27
00221a 93fa      	ST   -Y,R31
00221b 93ea      	ST   -Y,R30
00221c cfe4      	RJMP SUBOPT_0x6
                 
                 ;OPTIMIZER ADDED SUBROUTINE, CALLED 15 TIMES, CODE SIZE REDUCTION:25 WORDS
                 SUBOPT_0xB:
00221d 0fee      	LSL  R30
00221e 1fff      	ROL  R31
00221f 0fea      	ADD  R30,R26
002220 1ffb      	ADC  R31,R27
002221 9508      	RET
                 
                 ;OPTIMIZER ADDED SUBROUTINE, CALLED 2 TIMES, CODE SIZE REDUCTION:1 WORDS
                 SUBOPT_0xC:
002222 2766      	CLR  R22
002223 2777      	CLR  R23
                +
002224 83ec     +STD Y + 4 , R30
002225 83fd     +STD Y + 4 + 1 , R31
002226 836e     +STD Y + 4 + 2 , R22
002227 837f     +STD Y + 4 + 3 , R23
                 	__PUTD1S 4
002228 9508      	RET
                 
                 ;OPTIMIZER ADDED SUBROUTINE, CALLED 5 TIMES, CODE SIZE REDUCTION:5 WORDS
                 SUBOPT_0xD:
002229 940e 2700 	CALL __GETD2S0
00222b 9508      	RET
                 
                 ;OPTIMIZER ADDED SUBROUTINE, CALLED 2 TIMES, CODE SIZE REDUCTION:27 WORDS
                 SUBOPT_0xE:
00222c 85ec      	LDD  R30,Y+12
00222d e0f0      	LDI  R31,0
00222e 81a8      	LD   R26,Y
00222f 81b9      	LDD  R27,Y+1
002230 940e 2650 	CALL __MULW12U
002232 8da8      	LDD  R26,Y+24
002233 8db9      	LDD  R27,Y+24+1
002234 0fea      	ADD  R30,R26
002235 1ffb      	ADC  R31,R27
002236 93fa      	ST   -Y,R31
002237 93ea      	ST   -Y,R30
002238 85ee      	LDD  R30,Y+14
002239 e0f0      	LDI  R31,0
00223a 85aa      	LDD  R26,Y+10
00223b 85bb      	LDD  R27,Y+10+1
00223c 940e 2650 	CALL __MULW12U
00223e 8da8      	LDD  R26,Y+24
00223f 8db9      	LDD  R27,Y+24+1
002240 0fea      	ADD  R30,R26
002241 1ffb      	ADC  R31,R27
002242 93fa      	ST   -Y,R31
002243 93ea      	ST   -Y,R30
002244 89e8      	LDD  R30,Y+16
002245 e0f0      	LDI  R31,0
002246 93fa      	ST   -Y,R31
002247 93ea      	ST   -Y,R30
002248 89ea      	LDD  R30,Y+18
002249 e0f0      	LDI  R31,0
00224a 93fa      	ST   -Y,R31
00224b 93ea      	ST   -Y,R30
00224c 9508      	RET
                 
                 ;OPTIMIZER ADDED SUBROUTINE, CALLED 2 TIMES, CODE SIZE REDUCTION:7 WORDS
                 SUBOPT_0xF:
00224d 940e 26fb 	CALL __GETD1S0
                +
00224f 5fef     +SUBI R30 , LOW ( - 1 )
002250 4fff     +SBCI R31 , HIGH ( - 1 )
002251 4f6f     +SBCI R22 , BYTE3 ( - 1 )
002252 4f7f     +SBCI R23 , BYTE4 ( - 1 )
                 	__SUBD1N -1
002253 940e 2705 	CALL __PUTD1S0
002255 9508      	RET
                 
                 ;OPTIMIZER ADDED SUBROUTINE, CALLED 6 TIMES, CODE SIZE REDUCTION:7 WORDS
                 SUBOPT_0x10:
002256 85ec      	LDD  R30,Y+12
002257 85fd      	LDD  R31,Y+12+1
002258 93fa      	ST   -Y,R31
002259 93ea      	ST   -Y,R30
00225a 9508      	RET
                 
                 ;OPTIMIZER ADDED SUBROUTINE, CALLED 4 TIMES, CODE SIZE REDUCTION:3 WORDS
                 SUBOPT_0x11:
00225b 85ee      	LDD  R30,Y+14
00225c 85ff      	LDD  R31,Y+14+1
00225d 89a8      	LDD  R26,Y+16
00225e 89b9      	LDD  R27,Y+16+1
00225f 9508      	RET
                 
                 ;OPTIMIZER ADDED SUBROUTINE, CALLED 4 TIMES, CODE SIZE REDUCTION:3 WORDS
                 SUBOPT_0x12:
002260 85ea      	LDD  R30,Y+10
002261 85fb      	LDD  R31,Y+10+1
002262 85ac      	LDD  R26,Y+12
002263 85bd      	LDD  R27,Y+12+1
002264 9508      	RET
                 
                 ;OPTIMIZER ADDED SUBROUTINE, CALLED 2 TIMES, CODE SIZE REDUCTION:7 WORDS
                 SUBOPT_0x13:
002265 93fa      	ST   -Y,R31
002266 93ea      	ST   -Y,R30
002267 e0e0      	LDI  R30,LOW(0)
002268 e0f0      	LDI  R31,HIGH(0)
002269 93fa      	ST   -Y,R31
00226a 93ea      	ST   -Y,R30
00226b 91a0 03c0 	LDS  R26,_max_X
00226d 91b0 03c1 	LDS  R27,_max_X+1
00226f 940c 0f19 	JMP  _constrain
                 
                 ;OPTIMIZER ADDED SUBROUTINE, CALLED 2 TIMES, CODE SIZE REDUCTION:5 WORDS
                 SUBOPT_0x14:
002271 e0e0      	LDI  R30,LOW(0)
002272 e0f0      	LDI  R31,HIGH(0)
002273 93fa      	ST   -Y,R31
002274 93ea      	ST   -Y,R30
002275 91a0 03c2 	LDS  R26,_max_Y
002277 91b0 03c3 	LDS  R27,_max_Y+1
002279 940c 0f19 	JMP  _constrain
                 
                 ;OPTIMIZER ADDED SUBROUTINE, CALLED 5 TIMES, CODE SIZE REDUCTION:9 WORDS
                 SUBOPT_0x15:
00227b 940e 0d51 	CALL _ILI9341_WriteCommand
00227d e0a0      	LDI  R26,LOW(0)
00227e 940c 0d5a 	JMP  _ILI9341_WriteByte
                 
                 ;OPTIMIZER ADDED SUBROUTINE, CALLED 43 TIMES, CODE SIZE REDUCTION:81 WORDS
                 SUBOPT_0x16:
002280 e0e0      	LDI  R30,LOW(0)
002281 e0f0      	LDI  R31,HIGH(0)
002282 93fa      	ST   -Y,R31
002283 93ea      	ST   -Y,R30
002284 9508      	RET
                 
                 ;OPTIMIZER ADDED SUBROUTINE, CALLED 3 TIMES, CODE SIZE REDUCTION:1 WORDS
                 SUBOPT_0x17:
002285 91a0 03c0 	LDS  R26,_max_X
002287 91b0 03c1 	LDS  R27,_max_X+1
002289 9508      	RET
                 
                 ;OPTIMIZER ADDED SUBROUTINE, CALLED 3 TIMES, CODE SIZE REDUCTION:1 WORDS
                 SUBOPT_0x18:
00228a 91a0 03c2 	LDS  R26,_max_Y
00228c 91b0 03c3 	LDS  R27,_max_Y+1
00228e 9508      	RET
                 
                 ;OPTIMIZER ADDED SUBROUTINE, CALLED 8 TIMES, CODE SIZE REDUCTION:11 WORDS
                 SUBOPT_0x19:
00228f bfe6      	OUT  0x36,R30
002290 940e 101b 	CALL _wait_int
002292 30e0      	CPI  R30,0
002293 9508      	RET
                 
                 ;OPTIMIZER ADDED SUBROUTINE, CALLED 3 TIMES, CODE SIZE REDUCTION:1 WORDS
                 SUBOPT_0x1A:
002294 b9e3      	OUT  0x3,R30
002295 e8e4      	LDI  R30,LOW(132)
002296 cff8      	RJMP SUBOPT_0x19
                 
                 ;OPTIMIZER ADDED SUBROUTINE, CALLED 3 TIMES, CODE SIZE REDUCTION:5 WORDS
                 SUBOPT_0x1B:
002297 2fe1      	MOV  R30,R17
002298 e0f0      	LDI  R31,0
002299 01de      	MOVW R26,R28
00229a 9616      	ADIW R26,6
00229b 0fae      	ADD  R26,R30
00229c 1fbf      	ADC  R27,R31
00229d 9508      	RET
                 
                 ;OPTIMIZER ADDED SUBROUTINE, CALLED 2 TIMES, CODE SIZE REDUCTION:1 WORDS
                 SUBOPT_0x1C:
00229e e0b0      	LDI  R27,0
00229f e0e0      	LDI  R30,LOW(256)
0022a0 e0f1      	LDI  R31,HIGH(256)
0022a1 940e 2678 	CALL __MULW12
0022a3 01df      	MOVW R26,R30
0022a4 9508      	RET
                 
                 ;OPTIMIZER ADDED SUBROUTINE, CALLED 3 TIMES, CODE SIZE REDUCTION:1 WORDS
                 SUBOPT_0x1D:
0022a5 93e0 03ca 	STS  _pvRH,R30
0022a7 93f0 03cb 	STS  _pvRH+1,R31
0022a9 9508      	RET
                 
                 ;OPTIMIZER ADDED SUBROUTINE, CALLED 4 TIMES, CODE SIZE REDUCTION:3 WORDS
                 SUBOPT_0x1E:
0022aa 91a0 03ca 	LDS  R26,_pvRH
0022ac 91b0 03cb 	LDS  R27,_pvRH+1
0022ae 9508      	RET
                 
                 ;OPTIMIZER ADDED SUBROUTINE, CALLED 11 TIMES, CODE SIZE REDUCTION:17 WORDS
                 SUBOPT_0x1F:
0022af 91e0 03c0 	LDS  R30,_max_X
0022b1 91f0 03c1 	LDS  R31,_max_X+1
0022b3 9508      	RET
                 
                 ;OPTIMIZER ADDED SUBROUTINE, CALLED 4 TIMES, CODE SIZE REDUCTION:3 WORDS
                 SUBOPT_0x20:
0022b4 85ea      	LDD  R30,Y+10
0022b5 e0a6      	LDI  R26,LOW(6)
0022b6 9fea      	MUL  R30,R26
0022b7 01f0      	MOVW R30,R0
0022b8 9508      	RET
                 
                 ;OPTIMIZER ADDED SUBROUTINE, CALLED 8 TIMES, CODE SIZE REDUCTION:11 WORDS
                 SUBOPT_0x21:
                +
0022b9 5fe2     +SUBI R30 , LOW ( - _buttons - ( 5 ) )
0022ba 4ffb     +SBCI R31 , HIGH ( - _buttons - ( 5 ) )
                 	__ADDW1MN _buttons,5
0022bb 81e0      	LD   R30,Z
0022bc e0f0      	LDI  R31,0
0022bd 9508      	RET
                 
                 ;OPTIMIZER ADDED SUBROUTINE, CALLED 2 TIMES, CODE SIZE REDUCTION:3 WORDS
                 SUBOPT_0x22:
0022be 931a      	ST   -Y,R17
0022bf 930a      	ST   -Y,R16
0022c0 933a      	ST   -Y,R19
0022c1 932a      	ST   -Y,R18
0022c2 935a      	ST   -Y,R21
0022c3 934a      	ST   -Y,R20
0022c4 cf91      	RJMP SUBOPT_0x10
                 
                 ;OPTIMIZER ADDED SUBROUTINE, CALLED 4 TIMES, CODE SIZE REDUCTION:3 WORDS
                 SUBOPT_0x23:
0022c5 e0e2      	LDI  R30,LOW(2)
0022c6 e0f0      	LDI  R31,HIGH(2)
0022c7 940e 2695 	CALL __DIVW21
0022c9 9508      	RET
                 
                 ;OPTIMIZER ADDED SUBROUTINE, CALLED 41 TIMES, CODE SIZE REDUCTION:77 WORDS
                 SUBOPT_0x24:
0022ca e7e2      	LDI  R30,LOW(_buff)
0022cb e0f3      	LDI  R31,HIGH(_buff)
0022cc 93fa      	ST   -Y,R31
0022cd 93ea      	ST   -Y,R30
0022ce 9508      	RET
                 
                 ;OPTIMIZER ADDED SUBROUTINE, CALLED 4 TIMES, CODE SIZE REDUCTION:9 WORDS
                 SUBOPT_0x25:
0022cf 93fa      	ST   -Y,R31
0022d0 93ea      	ST   -Y,R30
0022d1 e080      	LDI  R24,0
0022d2 940e 2007 	CALL _sprintf
0022d4 9624      	ADIW R28,4
0022d5 9508      	RET
                 
                 ;OPTIMIZER ADDED SUBROUTINE, CALLED 33 TIMES, CODE SIZE REDUCTION:253 WORDS
                 SUBOPT_0x26:
0022d6 91e0 0363 	LDS  R30,_Font_11x18
0022d8 91f0 0364 	LDS  R31,_Font_11x18+1
0022da 9160 0365 	LDS  R22,_Font_11x18+2
0022dc 9170 0366 	LDS  R23,_Font_11x18+3
0022de 940e 270f 	CALL __PUTPARD1
0022e0 9508      	RET
                 
                 ;OPTIMIZER ADDED SUBROUTINE, CALLED 8 TIMES, CODE SIZE REDUCTION:18 WORDS
                 SUBOPT_0x27:
0022e1 93fa      	ST   -Y,R31
0022e2 93ea      	ST   -Y,R30
0022e3 e0a1      	LDI  R26,LOW(1)
0022e4 940c 0ea3 	JMP  _ILI9341_WriteString
                 
                 ;OPTIMIZER ADDED SUBROUTINE, CALLED 3 TIMES, CODE SIZE REDUCTION:1 WORDS
                 SUBOPT_0x28:
0022e6 940e 2714 	CALL __SWAPW12
0022e8 1bea      	SUB  R30,R26
0022e9 0bfb      	SBC  R31,R27
0022ea 9508      	RET
                 
                 ;OPTIMIZER ADDED SUBROUTINE, CALLED 4 TIMES, CODE SIZE REDUCTION:3 WORDS
                 SUBOPT_0x29:
0022eb 940e 2705 	CALL __PUTD1S0
0022ed 9508      	RET
                 
                 ;OPTIMIZER ADDED SUBROUTINE, CALLED 4 TIMES, CODE SIZE REDUCTION:3 WORDS
                 SUBOPT_0x2A:
0022ee 81ec      	LDD  R30,Y+4
0022ef e0a6      	LDI  R26,LOW(6)
0022f0 9fea      	MUL  R30,R26
0022f1 01f0      	MOVW R30,R0
0022f2 9508      	RET
                 
                 ;OPTIMIZER ADDED SUBROUTINE, CALLED 7 TIMES, CODE SIZE REDUCTION:9 WORDS
                 SUBOPT_0x2B:
                +
0022f3 5fe3     +SUBI R30 , LOW ( - _buttons - ( 4 ) )
0022f4 4ffb     +SBCI R31 , HIGH ( - _buttons - ( 4 ) )
                 	__ADDW1MN _buttons,4
0022f5 81e0      	LD   R30,Z
0022f6 e0f0      	LDI  R31,0
0022f7 9508      	RET
                 
                 ;OPTIMIZER ADDED SUBROUTINE, CALLED 2 TIMES, CODE SIZE REDUCTION:1 WORDS
                 SUBOPT_0x2C:
0022f8 2fe1      	MOV  R30,R17
0022f9 e0f0      	LDI  R31,0
0022fa 01de      	MOVW R26,R28
0022fb 9614      	ADIW R26,4
0022fc cf20      	RJMP SUBOPT_0xB
                 
                 ;OPTIMIZER ADDED SUBROUTINE, CALLED 2 TIMES, CODE SIZE REDUCTION:5 WORDS
                 SUBOPT_0x2D:
0022fd 81ae      	LDD  R26,Y+6
0022fe 81bf      	LDD  R27,Y+6+1
0022ff 81ec      	LDD  R30,Y+4
002300 81fd      	LDD  R31,Y+4+1
002301 1bea      	SUB  R30,R26
002302 0bfb      	SBC  R31,R27
002303 01df      	MOVW R26,R30
002304 940e 21a0 	CALL _abs
002306 019f      	MOVW R18,R30
002307 9508      	RET
                 
                 ;OPTIMIZER ADDED SUBROUTINE, CALLED 2 TIMES, CODE SIZE REDUCTION:3 WORDS
                 SUBOPT_0x2E:
002308 81ee      	LDD  R30,Y+6
002309 81ff      	LDD  R31,Y+6+1
00230a 81ac      	LDD  R26,Y+4
00230b 81bd      	LDD  R27,Y+4+1
00230c 0fae      	ADD  R26,R30
00230d 1fbf      	ADC  R27,R31
00230e cfb6      	RJMP SUBOPT_0x23
                 
                 ;OPTIMIZER ADDED SUBROUTINE, CALLED 2 TIMES, CODE SIZE REDUCTION:1 WORDS
                 SUBOPT_0x2F:
00230f 91e0 03ff 	LDS  R30,_point_X
002311 91f0 0400 	LDS  R31,_point_X+1
002313 93fa      	ST   -Y,R31
002314 93ea      	ST   -Y,R30
002315 9508      	RET
                 
                 ;OPTIMIZER ADDED SUBROUTINE, CALLED 4 TIMES, CODE SIZE REDUCTION:3 WORDS
                 SUBOPT_0x30:
002316 93fa      	ST   -Y,R31
002317 93ea      	ST   -Y,R30
002318 e0e0      	LDI  R30,LOW(0)
002319 93ea      	ST   -Y,R30
00231a 9508      	RET
                 
                 ;OPTIMIZER ADDED SUBROUTINE, CALLED 2 TIMES, CODE SIZE REDUCTION:1 WORDS
                 SUBOPT_0x31:
00231b 91e0 0401 	LDS  R30,_point_Y
00231d 91f0 0402 	LDS  R31,_point_Y+1
00231f 93fa      	ST   -Y,R31
002320 93ea      	ST   -Y,R30
002321 9508      	RET
                 
                 ;OPTIMIZER ADDED SUBROUTINE, CALLED 3 TIMES, CODE SIZE REDUCTION:1 WORDS
                 SUBOPT_0x32:
002322 93e0 03dc 	STS  _ptr_char,R30
002324 93f0 03dd 	STS  _ptr_char+1,R31
002326 9508      	RET
                 
                 ;OPTIMIZER ADDED SUBROUTINE, CALLED 2 TIMES, CODE SIZE REDUCTION:3 WORDS
                 SUBOPT_0x33:
002327 edac      	LDI  R26,LOW(_ptr_char)
002328 e0b3      	LDI  R27,HIGH(_ptr_char)
002329 91ed      	LD   R30,X+
00232a 91fd      	LD   R31,X+
00232b 9631      	ADIW R30,1
00232c 93fe      	ST   -X,R31
00232d 93ee      	ST   -X,R30
00232e 9731      	SBIW R30,1
00232f 9508      	RET
                 
                 ;OPTIMIZER ADDED SUBROUTINE, CALLED 2 TIMES, CODE SIZE REDUCTION:5 WORDS
                 SUBOPT_0x34:
002330 01f8      	MOVW R30,R16
002331 e0aa      	LDI  R26,LOW(10)
002332 e0b0      	LDI  R27,HIGH(10)
002333 940e 2678 	CALL __MULW12
002335 01df      	MOVW R26,R30
002336 e1e0      	LDI  R30,LOW(16)
002337 e0f0      	LDI  R31,HIGH(16)
002338 940e 2695 	CALL __DIVW21
00233a 9508      	RET
                 
                 ;OPTIMIZER ADDED SUBROUTINE, CALLED 2 TIMES, CODE SIZE REDUCTION:3 WORDS
                 SUBOPT_0x35:
00233b 940e 253f 	CALL _w1_init
00233d ecac      	LDI  R26,LOW(204)
00233e 940e 2588 	CALL _w1_write
002340 e4a4      	LDI  R26,LOW(68)
002341 940c 2588 	JMP  _w1_write
                 
                 ;OPTIMIZER ADDED SUBROUTINE, CALLED 3 TIMES, CODE SIZE REDUCTION:1 WORDS
                 SUBOPT_0x36:
002343 91e0 03fd 	LDS  R30,_buttonCount
002345 81a9      	LDD  R26,Y+1
002346 17ae      	CP   R26,R30
002347 9508      	RET
                 
                 ;OPTIMIZER ADDED SUBROUTINE, CALLED 3 TIMES, CODE SIZE REDUCTION:5 WORDS
                 SUBOPT_0x37:
002348 91a0 0369 	LDS  R26,_numSet
00234a 50a1      	SUBI R26,LOW(1)
00234b 93a0 0369 	STS  _numSet,R26
00234d 30a0      	CPI  R26,0
00234e 9508      	RET
                 
                 ;OPTIMIZER ADDED SUBROUTINE, CALLED 3 TIMES, CODE SIZE REDUCTION:3 WORDS
                 SUBOPT_0x38:
00234f 91a0 0369 	LDS  R26,_numSet
002351 5faf      	SUBI R26,-LOW(1)
002352 93a0 0369 	STS  _numSet,R26
002354 9508      	RET
                 
                 ;OPTIMIZER ADDED SUBROUTINE, CALLED 4 TIMES, CODE SIZE REDUCTION:9 WORDS
                 SUBOPT_0x39:
002355 91e0 0368 	LDS  R30,_numMenu
002357 e0f0      	LDI  R31,0
002358 fde7      	SBRC R30,7
002359 efff      	SER  R31
00235a 9730      	SBIW R30,0
00235b 9508      	RET
                 
                 ;OPTIMIZER ADDED SUBROUTINE, CALLED 7 TIMES, CODE SIZE REDUCTION:21 WORDS
                 SUBOPT_0x3A:
00235c 81e9      	LDD  R30,Y+1
00235d eda2      	LDI  R26,LOW(_newval)
00235e e0b3      	LDI  R27,HIGH(_newval)
00235f e0f0      	LDI  R31,0
002360 cebc      	RJMP SUBOPT_0xB
                 
                 ;OPTIMIZER ADDED SUBROUTINE, CALLED 4 TIMES, CODE SIZE REDUCTION:21 WORDS
                 SUBOPT_0x3B:
002361 e0f0      	LDI  R31,0
002362 0fee      	LSL  R30
002363 1fff      	ROL  R31
002364 0fae      	ADD  R26,R30
002365 1fbf      	ADC  R27,R31
002366 940e 271b 	CALL __EEPROMRDW
002368 01d0      	MOVW R26,R0
002369 93ed      	ST   X+,R30
00236a 93fc      	ST   X,R31
00236b 9508      	RET
                 
                 ;OPTIMIZER ADDED SUBROUTINE, CALLED 72 TIMES, CODE SIZE REDUCTION:494 WORDS
                 SUBOPT_0x3C:
00236c 91e0 0369 	LDS  R30,_numSet
00236e eda2      	LDI  R26,LOW(_newval)
00236f e0b3      	LDI  R27,HIGH(_newval)
002370 e0f0      	LDI  R31,0
002371 0fee      	LSL  R30
002372 1fff      	ROL  R31
002373 0fae      	ADD  R26,R30
002374 1fbf      	ADC  R27,R31
002375 9508      	RET
                 
                 ;OPTIMIZER ADDED SUBROUTINE, CALLED 6 TIMES, CODE SIZE REDUCTION:12 WORDS
                 SUBOPT_0x3D:
002376 91ed      	LD   R30,X+
002377 91fd      	LD   R31,X+
002378 9631      	ADIW R30,1
002379 93fe      	ST   -X,R31
00237a 93ee      	ST   -X,R30
00237b 9508      	RET
                 
                 ;OPTIMIZER ADDED SUBROUTINE, CALLED 11 TIMES, CODE SIZE REDUCTION:37 WORDS
                 SUBOPT_0x3E:
00237c 91e0 0369 	LDS  R30,_numSet
00237e e0f0      	LDI  R31,0
00237f fde7      	SBRC R30,7
002380 efff      	SER  R31
002381 9730      	SBIW R30,0
002382 9508      	RET
                 
                 ;OPTIMIZER ADDED SUBROUTINE, CALLED 4 TIMES, CODE SIZE REDUCTION:6 WORDS
                 SUBOPT_0x3F:
002383 940e 26f3 	CALL __GETW1P
002385 36e5      	CPI  R30,LOW(0x65)
002386 e0a0      	LDI  R26,HIGH(0x65)
002387 07fa      	CPC  R31,R26
002388 9508      	RET
                 
                 ;OPTIMIZER ADDED SUBROUTINE, CALLED 5 TIMES, CODE SIZE REDUCTION:5 WORDS
                 SUBOPT_0x40:
002389 e6e4      	LDI  R30,LOW(100)
00238a e0f0      	LDI  R31,HIGH(100)
00238b 93ed      	ST   X+,R30
00238c 93fc      	ST   X,R31
00238d 9508      	RET
                 
                 ;OPTIMIZER ADDED SUBROUTINE, CALLED 11 TIMES, CODE SIZE REDUCTION:17 WORDS
                 SUBOPT_0x41:
00238e e0e1      	LDI  R30,LOW(1)
00238f e0f0      	LDI  R31,HIGH(1)
002390 93ed      	ST   X+,R30
002391 93fc      	ST   X,R31
002392 9508      	RET
                 
                 ;OPTIMIZER ADDED SUBROUTINE, CALLED 3 TIMES, CODE SIZE REDUCTION:3 WORDS
                 SUBOPT_0x42:
002393 91ed      	LD   R30,X+
002394 91fd      	LD   R31,X+
002395 9731      	SBIW R30,1
002396 93fe      	ST   -X,R31
002397 93ee      	ST   -X,R30
002398 9508      	RET
                 
                 ;OPTIMIZER ADDED SUBROUTINE, CALLED 5 TIMES, CODE SIZE REDUCTION:5 WORDS
                 SUBOPT_0x43:
002399 e0e0      	LDI  R30,LOW(0)
00239a e0f0      	LDI  R31,HIGH(0)
00239b 93ed      	ST   X+,R30
00239c 93fc      	ST   X,R31
00239d 9508      	RET
                 
                 ;OPTIMIZER ADDED SUBROUTINE, CALLED 7 TIMES, CODE SIZE REDUCTION:21 WORDS
                 SUBOPT_0x44:
00239e df10      	RCALL SUBOPT_0x1F
00239f 93fa      	ST   -Y,R31
0023a0 93ea      	ST   -Y,R30
0023a1 cede      	RJMP SUBOPT_0x16
                 
                 ;OPTIMIZER ADDED SUBROUTINE, CALLED 3 TIMES, CODE SIZE REDUCTION:33 WORDS
                 SUBOPT_0x45:
0023a2 91e0 03c2 	LDS  R30,_max_Y
0023a4 91f0 03c3 	LDS  R31,_max_Y+1
0023a6 93fa      	ST   -Y,R31
0023a7 93ea      	ST   -Y,R30
0023a8 91a0 03c4 	LDS  R26,_fillScreen
0023aa 91b0 03c5 	LDS  R27,_fillScreen+1
0023ac 940e 0f30 	CALL _ILI9341_FillScreen
0023ae e0e5      	LDI  R30,LOW(5)
0023af e0f0      	LDI  R31,HIGH(5)
0023b0 93fa      	ST   -Y,R31
0023b1 93ea      	ST   -Y,R30
0023b2 e6e4      	LDI  R30,LOW(100)
0023b3 e0f0      	LDI  R31,HIGH(100)
0023b4 93fa      	ST   -Y,R31
0023b5 93ea      	ST   -Y,R30
0023b6 9508      	RET
                 
                 ;OPTIMIZER ADDED SUBROUTINE, CALLED 16 TIMES, CODE SIZE REDUCTION:27 WORDS
                 SUBOPT_0x46:
0023b7 93fa      	ST   -Y,R31
0023b8 93ea      	ST   -Y,R30
0023b9 cf1c      	RJMP SUBOPT_0x26
                 
                 ;OPTIMIZER ADDED SUBROUTINE, CALLED 3 TIMES, CODE SIZE REDUCTION:13 WORDS
                 SUBOPT_0x47:
0023ba e1ef      	LDI  R30,LOW(63519)
0023bb eff8      	LDI  R31,HIGH(63519)
0023bc 93fa      	ST   -Y,R31
0023bd 93ea      	ST   -Y,R30
0023be 91e0 03c4 	LDS  R30,_fillScreen
0023c0 91f0 03c5 	LDS  R31,_fillScreen+1
0023c2 cf1e      	RJMP SUBOPT_0x27
                 
                 ;OPTIMIZER ADDED SUBROUTINE, CALLED 4 TIMES, CODE SIZE REDUCTION:6 WORDS
                 SUBOPT_0x48:
0023c3 940e 26f3 	CALL __GETW1P
0023c5 01d0      	MOVW R26,R0
0023c6 940e 272b 	CALL __EEPROMWRW
0023c8 9508      	RET
                 
                 ;OPTIMIZER ADDED SUBROUTINE, CALLED 2 TIMES, CODE SIZE REDUCTION:6 WORDS
                 SUBOPT_0x49:
0023c9 81e9      	LDD  R30,Y+1
0023ca eda2      	LDI  R26,LOW(_newval)
0023cb e0b3      	LDI  R27,HIGH(_newval)
0023cc e0f0      	LDI  R31,0
0023cd 0fee      	LSL  R30
0023ce 1fff      	ROL  R31
0023cf 0fae      	ADD  R26,R30
0023d0 1fbf      	ADC  R27,R31
0023d1 91ac      	LD   R26,X
0023d2 940c 146a 	JMP  _ByteToBcd2
                 
                 ;OPTIMIZER ADDED SUBROUTINE, CALLED 2 TIMES, CODE SIZE REDUCTION:5 WORDS
                 SUBOPT_0x4A:
0023d4 81e9      	LDD  R30,Y+1
0023d5 eda2      	LDI  R26,LOW(_newval)
0023d6 e0b3      	LDI  R27,HIGH(_newval)
0023d7 e0f0      	LDI  R31,0
0023d8 0fee      	LSL  R30
0023d9 1fff      	ROL  R31
0023da 0fae      	ADD  R26,R30
0023db 1fbf      	ADC  R27,R31
0023dc 81e9      	LDD  R30,Y+1
0023dd e0f0      	LDI  R31,0
0023de 9508      	RET
                 
                 ;OPTIMIZER ADDED SUBROUTINE, CALLED 2 TIMES, CODE SIZE REDUCTION:1 WORDS
                 SUBOPT_0x4B:
0023df 81e0      	LD   R30,Z
0023e0 e0f0      	LDI  R31,0
0023e1 fde7      	SBRC R30,7
0023e2 efff      	SER  R31
0023e3 93ed      	ST   X+,R30
0023e4 93fc      	ST   X,R31
0023e5 9508      	RET
                 
                 ;OPTIMIZER ADDED SUBROUTINE, CALLED 2 TIMES, CODE SIZE REDUCTION:2 WORDS
                 SUBOPT_0x4C:
0023e6 91ec      	LD   R30,X
0023e7 01d0      	MOVW R26,R0
0023e8 93ec      	ST   X,R30
0023e9 eea8      	LDI  R26,LOW(1000)
0023ea e0b3      	LDI  R27,HIGH(1000)
0023eb 940c 2535 	JMP  _delay_ms
                 
                 ;OPTIMIZER ADDED SUBROUTINE, CALLED 3 TIMES, CODE SIZE REDUCTION:25 WORDS
                 SUBOPT_0x4D:
0023ed 91e0 03c2 	LDS  R30,_max_Y
0023ef 91f0 03c3 	LDS  R31,_max_Y+1
0023f1 93fa      	ST   -Y,R31
0023f2 93ea      	ST   -Y,R30
0023f3 01d9      	MOVW R26,R18
0023f4 940e 0f30 	CALL _ILI9341_FillScreen
0023f6 e0e4      	LDI  R30,LOW(4)
0023f7 93ea      	ST   -Y,R30
0023f8 e0e1      	LDI  R30,LOW(1)
0023f9 93ea      	ST   -Y,R30
0023fa e1a9      	LDI  R26,LOW(25)
0023fb 940c 11f5 	JMP  _initializeButtons
                 
                 ;OPTIMIZER ADDED SUBROUTINE, CALLED 3 TIMES, CODE SIZE REDUCTION:5 WORDS
                 SUBOPT_0x4E:
0023fd 933a      	ST   -Y,R19
0023fe 932a      	ST   -Y,R18
0023ff 933a      	ST   -Y,R19
002400 932a      	ST   -Y,R18
002401 935a      	ST   -Y,R21
002402 934a      	ST   -Y,R20
002403 9508      	RET
                 
                 ;OPTIMIZER ADDED SUBROUTINE, CALLED 3 TIMES, CODE SIZE REDUCTION:1 WORDS
                 SUBOPT_0x4F:
                +
002404 ecae     +LDI R26 , LOW ( 2 * _0x0 + ( 200 ) )
002405 e1b7     +LDI R27 , HIGH ( 2 * _0x0 + ( 200 ) )
                 	__POINTW2FN _0x0,200
002406 940c 127b 	JMP  _drawButton
                 
                 ;OPTIMIZER ADDED SUBROUTINE, CALLED 8 TIMES, CODE SIZE REDUCTION:11 WORDS
                 SUBOPT_0x50:
002408 efef      	LDI  R30,LOW(65535)
002409 efff      	LDI  R31,HIGH(65535)
00240a 93fa      	ST   -Y,R31
00240b 93ea      	ST   -Y,R30
00240c 9508      	RET
                 
                 ;OPTIMIZER ADDED SUBROUTINE, CALLED 2 TIMES, CODE SIZE REDUCTION:3 WORDS
                 SUBOPT_0x51:
00240d e0e1      	LDI  R30,LOW(1)
00240e 93ea      	ST   -Y,R30
                +
00240f eda6     +LDI R26 , LOW ( 2 * _0x0 + ( 208 ) )
002410 e1b7     +LDI R27 , HIGH ( 2 * _0x0 + ( 208 ) )
                 	__POINTW2FN _0x0,208
002411 940e 127b 	CALL _drawButton
002413 ce6c      	RJMP SUBOPT_0x16
                 
                 ;OPTIMIZER ADDED SUBROUTINE, CALLED 3 TIMES, CODE SIZE REDUCTION:9 WORDS
                 SUBOPT_0x52:
002414 e0e2      	LDI  R30,LOW(2)
002415 93ea      	ST   -Y,R30
                +
002416 edac     +LDI R26 , LOW ( 2 * _0x0 + ( 214 ) )
002417 e1b7     +LDI R27 , HIGH ( 2 * _0x0 + ( 214 ) )
                 	__POINTW2FN _0x0,214
002418 940e 127b 	CALL _drawButton
00241a ce65      	RJMP SUBOPT_0x16
                 
                 ;OPTIMIZER ADDED SUBROUTINE, CALLED 3 TIMES, CODE SIZE REDUCTION:5 WORDS
                 SUBOPT_0x53:
00241b e0e3      	LDI  R30,LOW(3)
00241c 93ea      	ST   -Y,R30
                +
00241d eea3     +LDI R26 , LOW ( 2 * _0x0 + ( 221 ) )
00241e e1b7     +LDI R27 , HIGH ( 2 * _0x0 + ( 221 ) )
                 	__POINTW2FN _0x0,221
00241f 940c 127b 	JMP  _drawButton
                 
                 ;OPTIMIZER ADDED SUBROUTINE, CALLED 15 TIMES, CODE SIZE REDUCTION:39 WORDS
                 SUBOPT_0x54:
002421 27ff      	CLR  R31
002422 2766      	CLR  R22
002423 2777      	CLR  R23
002424 940e 270f 	CALL __PUTPARD1
002426 9508      	RET
                 
                 ;OPTIMIZER ADDED SUBROUTINE, CALLED 4 TIMES, CODE SIZE REDUCTION:21 WORDS
                 SUBOPT_0x55:
002427 e4e6      	LDI  R30,LOW(70)
002428 e0f0      	LDI  R31,HIGH(70)
002429 93fa      	ST   -Y,R31
00242a 93ea      	ST   -Y,R30
00242b 2de8      	MOV  R30,R8
00242c e0f0      	LDI  R31,0
00242d 93fa      	ST   -Y,R31
00242e 93ea      	ST   -Y,R30
00242f ce9a      	RJMP SUBOPT_0x24
                 
                 ;OPTIMIZER ADDED SUBROUTINE, CALLED 3 TIMES, CODE SIZE REDUCTION:5 WORDS
                 SUBOPT_0x56:
002430 e1ef      	LDI  R30,LOW(31)
002431 e0f0      	LDI  R31,HIGH(31)
002432 93fa      	ST   -Y,R31
002433 93ea      	ST   -Y,R30
002434 efef      	LDI  R30,LOW(2047)
002435 e0f7      	LDI  R31,HIGH(2047)
002436 9508      	RET
                 
                 ;OPTIMIZER ADDED SUBROUTINE, CALLED 3 TIMES, CODE SIZE REDUCTION:3 WORDS
                 SUBOPT_0x57:
002437 e1e6      	LDI  R30,LOW(22)
002438 0e8e      	ADD  R8,R30
002439 940e 19ac 	CALL _newButtonCheck
00243b 30e0      	CPI  R30,0
00243c 9508      	RET
                 
                 ;OPTIMIZER ADDED SUBROUTINE, CALLED 3 TIMES, CODE SIZE REDUCTION:9 WORDS
                 SUBOPT_0x58:
00243d 83ee      	STD  Y+6,R30
00243e 83ff      	STD  Y+6+1,R31
00243f 81ae      	LDD  R26,Y+6
002440 81bf      	LDD  R27,Y+6+1
002441 940e 198d 	CALL _fraction
002443 ce86      	RJMP SUBOPT_0x24
                 
                 ;OPTIMIZER ADDED SUBROUTINE, CALLED 4 TIMES, CODE SIZE REDUCTION:6 WORDS
                 SUBOPT_0x59:
002444 93fa      	ST   -Y,R31
002445 93ea      	ST   -Y,R30
002446 2ded      	MOV  R30,R13
002447 cfd9      	RJMP SUBOPT_0x54
                 
                 ;OPTIMIZER ADDED SUBROUTINE, CALLED 4 TIMES, CODE SIZE REDUCTION:3 WORDS
                 SUBOPT_0x5A:
002448 e088      	LDI  R24,8
002449 940e 2007 	CALL _sprintf
00244b 962c      	ADIW R28,12
00244c 9508      	RET
                 
                 ;OPTIMIZER ADDED SUBROUTINE, CALLED 7 TIMES, CODE SIZE REDUCTION:21 WORDS
                 SUBOPT_0x5B:
00244d e0e5      	LDI  R30,LOW(5)
00244e e0f0      	LDI  R31,HIGH(5)
00244f 93fa      	ST   -Y,R31
002450 93ea      	ST   -Y,R30
002451 2de8      	MOV  R30,R8
002452 e0f0      	LDI  R31,0
002453 9508      	RET
                 
                 ;OPTIMIZER ADDED SUBROUTINE, CALLED 12 TIMES, CODE SIZE REDUCTION:19 WORDS
                 SUBOPT_0x5C:
002454 93fa      	ST   -Y,R31
002455 93ea      	ST   -Y,R30
002456 ce73      	RJMP SUBOPT_0x24
                 
                 ;OPTIMIZER ADDED SUBROUTINE, CALLED 11 TIMES, CODE SIZE REDUCTION:47 WORDS
                 SUBOPT_0x5D:
002457 935a      	ST   -Y,R21
002458 934a      	ST   -Y,R20
002459 933a      	ST   -Y,R19
00245a 932a      	ST   -Y,R18
00245b e0a1      	LDI  R26,LOW(1)
00245c 940c 0ea3 	JMP  _ILI9341_WriteString
                 
                 ;OPTIMIZER ADDED SUBROUTINE, CALLED 21 TIMES, CODE SIZE REDUCTION:37 WORDS
                 SUBOPT_0x5E:
00245e 93fa      	ST   -Y,R31
00245f 93ea      	ST   -Y,R30
002460 2de8      	MOV  R30,R8
002461 e0f0      	LDI  R31,0
002462 9508      	RET
                 
                 ;OPTIMIZER ADDED SUBROUTINE, CALLED 2 TIMES, CODE SIZE REDUCTION:2 WORDS
                 SUBOPT_0x5F:
002463 935a      	ST   -Y,R21
002464 934a      	ST   -Y,R20
002465 933a      	ST   -Y,R19
002466 932a      	ST   -Y,R18
002467 e0a3      	LDI  R26,LOW(3)
002468 940c 0ea3 	JMP  _ILI9341_WriteString
                 
                 ;OPTIMIZER ADDED SUBROUTINE, CALLED 2 TIMES, CODE SIZE REDUCTION:10 WORDS
                 SUBOPT_0x60:
00246a 9632      	ADIW R30,2
00246b 93fa      	ST   -Y,R31
00246c 93ea      	ST   -Y,R30
00246d e1ee      	LDI  R30,LOW(30)
00246e e0f0      	LDI  R31,HIGH(30)
00246f 93fa      	ST   -Y,R31
002470 93ea      	ST   -Y,R30
002471 e2ed      	LDI  R30,LOW(45)
002472 e0f0      	LDI  R31,HIGH(45)
002473 93fa      	ST   -Y,R31
002474 93ea      	ST   -Y,R30
002475 85ae      	LDD  R26,Y+14
002476 85bf      	LDD  R27,Y+14+1
002477 940c 0d81 	JMP  _ILI9341_FillRectangle
                 
                 ;OPTIMIZER ADDED SUBROUTINE, CALLED 7 TIMES, CODE SIZE REDUCTION:33 WORDS
                 SUBOPT_0x61:
002479 940e 264b 	CALL __CWD1
00247b 940e 270f 	CALL __PUTPARD1
00247d e084      	LDI  R24,4
00247e 940e 2007 	CALL _sprintf
002480 9628      	ADIW R28,8
002481 9508      	RET
                 
                 ;OPTIMIZER ADDED SUBROUTINE, CALLED 6 TIMES, CODE SIZE REDUCTION:7 WORDS
                 SUBOPT_0x62:
002482 e0ea      	LDI  R30,LOW(10)
002483 e0f0      	LDI  R31,HIGH(10)
002484 cfd9      	RJMP SUBOPT_0x5E
                 
                 ;OPTIMIZER ADDED SUBROUTINE, CALLED 5 TIMES, CODE SIZE REDUCTION:5 WORDS
                 SUBOPT_0x63:
002485 935a      	ST   -Y,R21
002486 934a      	ST   -Y,R20
002487 933a      	ST   -Y,R19
002488 932a      	ST   -Y,R18
002489 9508      	RET
                 
                 ;OPTIMIZER ADDED SUBROUTINE, CALLED 4 TIMES, CODE SIZE REDUCTION:3 WORDS
                 SUBOPT_0x64:
00248a e0e2      	LDI  R30,LOW(2)
00248b e0f0      	LDI  R31,HIGH(2)
00248c 93fa      	ST   -Y,R31
00248d 93ea      	ST   -Y,R30
00248e 9508      	RET
                 
                 ;OPTIMIZER ADDED SUBROUTINE, CALLED 2 TIMES, CODE SIZE REDUCTION:26 WORDS
                 SUBOPT_0x65:
00248f de1f      	RCALL SUBOPT_0x1F
002490 9735      	SBIW R30,5
002491 93fa      	ST   -Y,R31
002492 93ea      	ST   -Y,R30
002493 ecee      	LDI  R30,LOW(206)
002494 e0f0      	LDI  R31,HIGH(206)
002495 93fa      	ST   -Y,R31
002496 93ea      	ST   -Y,R30
002497 01da      	MOVW R26,R20
002498 940e 0e1e 	CALL _ILI9341_DrawRectangle
00249a e0a6      	LDI  R26,LOW(6)
00249b 9f0a      	MUL  R16,R26
00249c 01f0      	MOVW R30,R0
00249d 01bf      	MOVW R22,R30
00249e 5fe7      	SUBI R30,LOW(-_buttons)
00249f 4ffb      	SBCI R31,HIGH(-_buttons)
0024a0 01df      	MOVW R26,R30
0024a1 940e 26f3 	CALL __GETW1P
0024a3 9733      	SBIW R30,3
0024a4 93fa      	ST   -Y,R31
0024a5 93ea      	ST   -Y,R30
0024a6 ece8      	LDI  R30,LOW(200)
0024a7 e0f0      	LDI  R31,HIGH(200)
0024a8 93fa      	ST   -Y,R31
0024a9 93ea      	ST   -Y,R30
0024aa 01f0      	MOVW R30,R0
0024ab ce47      	RJMP SUBOPT_0x2B
                 
                 ;OPTIMIZER ADDED SUBROUTINE, CALLED 2 TIMES, CODE SIZE REDUCTION:1 WORDS
                 SUBOPT_0x66:
0024ac 9633      	ADIW R30,3
0024ad 93fa      	ST   -Y,R31
0024ae 93ea      	ST   -Y,R30
0024af 01fb      	MOVW R30,R22
0024b0 ce08      	RJMP SUBOPT_0x21
                 
                 ;OPTIMIZER ADDED SUBROUTINE, CALLED 2 TIMES, CODE SIZE REDUCTION:2 WORDS
                 SUBOPT_0x67:
0024b1 93fa      	ST   -Y,R31
0024b2 93ea      	ST   -Y,R30
0024b3 01d9      	MOVW R26,R18
0024b4 940e 0d81 	CALL _ILI9341_FillRectangle
0024b6 cdc9      	RJMP SUBOPT_0x16
                 
                 ;OPTIMIZER ADDED SUBROUTINE, CALLED 4 TIMES, CODE SIZE REDUCTION:15 WORDS
                 SUBOPT_0x68:
0024b7 e0a6      	LDI  R26,LOW(6)
0024b8 9f0a      	MUL  R16,R26
0024b9 01f0      	MOVW R30,R0
0024ba 5fe7      	SUBI R30,LOW(-_buttons)
0024bb 4ffb      	SBCI R31,HIGH(-_buttons)
0024bc 01df      	MOVW R26,R30
0024bd 940e 26f3 	CALL __GETW1P
0024bf 9508      	RET
                 
                 ;OPTIMIZER ADDED SUBROUTINE, CALLED 2 TIMES, CODE SIZE REDUCTION:5 WORDS
                 SUBOPT_0x69:
0024c0 9732      	SBIW R30,2
0024c1 93fa      	ST   -Y,R31
0024c2 93ea      	ST   -Y,R30
0024c3 ede0      	LDI  R30,LOW(208)
0024c4 e0f0      	LDI  R31,HIGH(208)
0024c5 93fa      	ST   -Y,R31
0024c6 93ea      	ST   -Y,R30
0024c7 01f0      	MOVW R30,R0
0024c8 cdf0      	RJMP SUBOPT_0x21
                 
                 ;OPTIMIZER ADDED SUBROUTINE, CALLED 4 TIMES, CODE SIZE REDUCTION:9 WORDS
                 SUBOPT_0x6A:
0024c9 9635      	ADIW R30,5
0024ca 93fa      	ST   -Y,R31
0024cb 93ea      	ST   -Y,R30
0024cc 01da      	MOVW R26,R20
0024cd 940c 0dff 	JMP  _ILI9341_DrawVerticalLine
                 
                 ;OPTIMIZER ADDED SUBROUTINE, CALLED 2 TIMES, CODE SIZE REDUCTION:6 WORDS
                 SUBOPT_0x6B:
0024cf e0a6      	LDI  R26,LOW(6)
0024d0 9f0a      	MUL  R16,R26
0024d1 01f0      	MOVW R30,R0
0024d2 01df      	MOVW R26,R30
0024d3 5fe7      	SUBI R30,LOW(-_buttons)
0024d4 4ffb      	SBCI R31,HIGH(-_buttons)
0024d5 8160      	LD   R22,Z
0024d6 8171      	LDD  R23,Z+1
0024d7 01fd      	MOVW R30,R26
0024d8 ce1a      	RJMP SUBOPT_0x2B
                 
                 ;OPTIMIZER ADDED SUBROUTINE, CALLED 2 TIMES, CODE SIZE REDUCTION:6 WORDS
                 SUBOPT_0x6C:
0024d9 0fe6      	ADD  R30,R22
0024da 1ff7      	ADC  R31,R23
0024db 93fa      	ST   -Y,R31
0024dc 93ea      	ST   -Y,R30
0024dd ede0      	LDI  R30,LOW(208)
0024de e0f0      	LDI  R31,HIGH(208)
0024df 93fa      	ST   -Y,R31
0024e0 93ea      	ST   -Y,R30
0024e1 01f0      	MOVW R30,R0
0024e2 cdd6      	RJMP SUBOPT_0x21
                 
                 ;OPTIMIZER ADDED SUBROUTINE, CALLED 2 TIMES, CODE SIZE REDUCTION:8 WORDS
                 SUBOPT_0x6D:
0024e3 9731      	SBIW R30,1
0024e4 93fa      	ST   -Y,R31
0024e5 93ea      	ST   -Y,R30
0024e6 91e0 03c2 	LDS  R30,_max_Y
0024e8 91f0 03c3 	LDS  R31,_max_Y+1
0024ea 9732      	SBIW R30,2
0024eb 93fa      	ST   -Y,R31
0024ec 93ea      	ST   -Y,R30
0024ed 01f0      	MOVW R30,R0
0024ee ce04      	RJMP SUBOPT_0x2B
                 
                 ;OPTIMIZER ADDED SUBROUTINE, CALLED 3 TIMES, CODE SIZE REDUCTION:7 WORDS
                 SUBOPT_0x6E:
0024ef 93fa      	ST   -Y,R31
0024f0 93ea      	ST   -Y,R30
0024f1 2fe1      	MOV  R30,R17
0024f2 e0f0      	LDI  R31,0
0024f3 9631      	ADIW R30,1
0024f4 cf84      	RJMP SUBOPT_0x61
                 
                 ;OPTIMIZER ADDED SUBROUTINE, CALLED 3 TIMES, CODE SIZE REDUCTION:5 WORDS
                 SUBOPT_0x6F:
0024f5 940e 26f3 	CALL __GETW1P
0024f7 83ee      	STD  Y+6,R30
0024f8 83ff      	STD  Y+6+1,R31
0024f9 81ae      	LDD  R26,Y+6
0024fa 81bf      	LDD  R27,Y+6+1
0024fb 9508      	RET
                 
                 ;OPTIMIZER ADDED SUBROUTINE, CALLED 2 TIMES, CODE SIZE REDUCTION:1 WORDS
                 SUBOPT_0x70:
0024fc 2da9      	MOV  R26,R9
0024fd 27bb      	CLR  R27
0024fe e0e0      	LDI  R30,0
0024ff fc22      	SBRC R2,2
002500 e0e1      	LDI  R30,1
002501 e0f0      	LDI  R31,0
002502 9508      	RET
                 
                 ;OPTIMIZER ADDED SUBROUTINE, CALLED 5 TIMES, CODE SIZE REDUCTION:5 WORDS
                 SUBOPT_0x71:
002503 91e0 03c4 	LDS  R30,_fillScreen
002505 91f0 03c5 	LDS  R31,_fillScreen+1
002507 9508      	RET
                 
                 ;OPTIMIZER ADDED SUBROUTINE, CALLED 2 TIMES, CODE SIZE REDUCTION:1 WORDS
                 SUBOPT_0x72:
002508 e1ee      	LDI  R30,LOW(30)
002509 0e8e      	ADD  R8,R30
00250a e5e0      	LDI  R30,LOW(80)
00250b e0f0      	LDI  R31,HIGH(80)
00250c cf51      	RJMP SUBOPT_0x5E
                 
                 ;OPTIMIZER ADDED SUBROUTINE, CALLED 2 TIMES, CODE SIZE REDUCTION:2 WORDS
                 SUBOPT_0x73:
00250d dff5      	RCALL SUBOPT_0x71
00250e 93fa      	ST   -Y,R31
00250f 93ea      	ST   -Y,R30
002510 e0a2      	LDI  R26,LOW(2)
002511 940c 0ea3 	JMP  _ILI9341_WriteString
                 
                 ;OPTIMIZER ADDED SUBROUTINE, CALLED 5 TIMES, CODE SIZE REDUCTION:13 WORDS
                 SUBOPT_0x74:
002513 932a      	ST   -Y,R18
002514 85ad      	LDD  R26,Y+13
002515 85be      	LDD  R27,Y+13+1
002516 85ef      	LDD  R30,Y+15
002517 89f8      	LDD  R31,Y+15+1
002518 9509      	ICALL
002519 9508      	RET
                 
                 ;OPTIMIZER ADDED SUBROUTINE, CALLED 5 TIMES, CODE SIZE REDUCTION:9 WORDS
                 SUBOPT_0x75:
00251a 89e8      	LDD  R30,Y+16
00251b 89f9      	LDD  R31,Y+16+1
00251c 9734      	SBIW R30,4
00251d 8be8      	STD  Y+16,R30
00251e 8bf9      	STD  Y+16+1,R31
00251f 9508      	RET
                 
                 ;OPTIMIZER ADDED SUBROUTINE, CALLED 3 TIMES, CODE SIZE REDUCTION:3 WORDS
                 SUBOPT_0x76:
002520 85ad      	LDD  R26,Y+13
002521 85be      	LDD  R27,Y+13+1
002522 85ef      	LDD  R30,Y+15
002523 89f8      	LDD  R31,Y+15+1
002524 9509      	ICALL
002525 9508      	RET
                 
                 ;OPTIMIZER ADDED SUBROUTINE, CALLED 2 TIMES, CODE SIZE REDUCTION:2 WORDS
                 SUBOPT_0x77:
002526 89a8      	LDD  R26,Y+16
002527 89b9      	LDD  R27,Y+16+1
002528 9614      	ADIW R26,4
002529 940e 26f3 	CALL __GETW1P
00252b 87ea      	STD  Y+10,R30
00252c 87fb      	STD  Y+10+1,R31
00252d 9508      	RET
                 
                 ;OPTIMIZER ADDED SUBROUTINE, CALLED 2 TIMES, CODE SIZE REDUCTION:1 WORDS
                 SUBOPT_0x78:
00252e 01de      	MOVW R26,R28
00252f 961c      	ADIW R26,12
002530 940e 2617 	CALL __ADDW2R15
002532 940e 26f3 	CALL __GETW1P
002534 9508      	RET
                 
                 
                 	.CSEG
                 _delay_ms:
002535 9610      	adiw r26,0
002536 f039      	breq __delay_ms1
                 __delay_ms0:
                +
002537 ea80     +LDI R24 , LOW ( 0xFA0 )
002538 e09f     +LDI R25 , HIGH ( 0xFA0 )
                +__DELAY_USW_LOOP :
002539 9701     +SBIW R24 , 1
00253a f7f1     +BRNE __DELAY_USW_LOOP
                 	__DELAY_USW 0xFA0
00253b 95a8      	wdr
00253c 9711      	sbiw r26,1
00253d f7c9      	brne __delay_ms0
                 __delay_ms1:
00253e 9508      	ret
                 
                 	.equ __w1_port=0x18
                 	.equ __w1_bit=0x04
                 
                 _w1_init:
00253f 27ee      	clr  r30
002540 98c4      	cbi  __w1_port,__w1_bit
002541 9abc      	sbi  __w1_port-1,__w1_bit
                +
002542 e880     +LDI R24 , LOW ( 0x780 )
002543 e097     +LDI R25 , HIGH ( 0x780 )
                +__DELAY_USW_LOOP :
002544 9701     +SBIW R24 , 1
002545 f7f1     +BRNE __DELAY_USW_LOOP
                 	__DELAY_USW 0x780
002546 98bc      	cbi  __w1_port-1,__w1_bit
                +
002547 e48b     +LDI R24 , LOW ( 0x4B )
                +__DELAY_USB_LOOP :
002548 958a     +DEC R24
002549 f7f1     +BRNE __DELAY_USB_LOOP
                 	__DELAY_USB 0x4B
00254a 9bb4      	sbis __w1_port-2,__w1_bit
00254b 9508      	ret
                +
00254c e380     +LDI R24 , LOW ( 0x130 )
00254d e091     +LDI R25 , HIGH ( 0x130 )
                +__DELAY_USW_LOOP :
00254e 9701     +SBIW R24 , 1
00254f f7f1     +BRNE __DELAY_USW_LOOP
                 	__DELAY_USW 0x130
002550 9bb4      	sbis __w1_port-2,__w1_bit
002551 e0e1      	ldi  r30,1
                +
002552 e188     +LDI R24 , LOW ( 0x618 )
002553 e096     +LDI R25 , HIGH ( 0x618 )
                +__DELAY_USW_LOOP :
002554 9701     +SBIW R24 , 1
002555 f7f1     +BRNE __DELAY_USW_LOOP
                 	__DELAY_USW 0x618
002556 9508      	ret
                 
                 __w1_read_bit:
002557 9abc      	sbi  __w1_port-1,__w1_bit
                +
002558 e08b     +LDI R24 , LOW ( 0xB )
                +__DELAY_USB_LOOP :
002559 958a     +DEC R24
00255a f7f1     +BRNE __DELAY_USB_LOOP
                 	__DELAY_USB 0xB
00255b 98bc      	cbi  __w1_port-1,__w1_bit
                +
00255c e38b     +LDI R24 , LOW ( 0x3B )
                +__DELAY_USB_LOOP :
00255d 958a     +DEC R24
00255e f7f1     +BRNE __DELAY_USB_LOOP
                 	__DELAY_USB 0x3B
00255f 9488      	clc
002560 99b4      	sbic __w1_port-2,__w1_bit
002561 9408      	sec
002562 95e7      	ror  r30
                +
002563 e480     +LDI R24 , LOW ( 0x140 )
002564 e091     +LDI R25 , HIGH ( 0x140 )
                +__DELAY_USW_LOOP :
002565 9701     +SBIW R24 , 1
002566 f7f1     +BRNE __DELAY_USW_LOOP
                 	__DELAY_USW 0x140
002567 9508      	ret
                 
                 __w1_write_bit:
002568 94e8      	clt
002569 9abc      	sbi  __w1_port-1,__w1_bit
                +
00256a e08b     +LDI R24 , LOW ( 0xB )
                +__DELAY_USB_LOOP :
00256b 958a     +DEC R24
00256c f7f1     +BRNE __DELAY_USB_LOOP
                 	__DELAY_USB 0xB
00256d fd70      	sbrc r23,0
00256e 98bc      	cbi  __w1_port-1,__w1_bit
                +
00256f e485     +LDI R24 , LOW ( 0x45 )
                +__DELAY_USB_LOOP :
002570 958a     +DEC R24
002571 f7f1     +BRNE __DELAY_USB_LOOP
                 	__DELAY_USB 0x45
002572 99b4      	sbic __w1_port-2,__w1_bit
002573 c003      	rjmp __w1_write_bit0
002574 ff70      	sbrs r23,0
002575 c003      	rjmp __w1_write_bit1
002576 9508      	ret
                 __w1_write_bit0:
002577 ff70      	sbrs r23,0
002578 9508      	ret
                 __w1_write_bit1:
                +
002579 e28c     +LDI R24 , LOW ( 0x12C )
00257a e091     +LDI R25 , HIGH ( 0x12C )
                +__DELAY_USW_LOOP :
00257b 9701     +SBIW R24 , 1
00257c f7f1     +BRNE __DELAY_USW_LOOP
                 	__DELAY_USW 0x12C
00257d 98bc      	cbi  __w1_port-1,__w1_bit
                +
00257e e18b     +LDI R24 , LOW ( 0x1B )
                +__DELAY_USB_LOOP :
00257f 958a     +DEC R24
002580 f7f1     +BRNE __DELAY_USB_LOOP
                 	__DELAY_USB 0x1B
002581 9468      	set
002582 9508      	ret
                 
                 _w1_read:
002583 e068      	ldi  r22,8
                 	__w1_read0:
002584 dfd2      	rcall __w1_read_bit
002585 956a      	dec  r22
002586 f7e9      	brne __w1_read0
002587 9508      	ret
                 
                 _w1_write:
002588 2f7a      	mov  r23,r26
002589 e068      	ldi  r22,8
00258a 27ee      	clr  r30
                 __w1_write0:
00258b dfdc      	rcall __w1_write_bit
00258c f426      	brtc __w1_write1
00258d 9577      	ror  r23
00258e 956a      	dec  r22
00258f f7d9      	brne __w1_write0
002590 95e3      	inc  r30
                 __w1_write1:
002591 9508      	ret
                 
                 _w1_search:
002592 934f      	push r20
002593 935f      	push r21
002594 2411      	clr  r1
002595 2744      	clr  r20
                 __w1_search0:
002596 2c01      	mov  r0,r1
002597 2411      	clr  r1
002598 dfa6      	rcall _w1_init
002599 23ee      	tst  r30
00259a f101      	breq __w1_search7
00259b 93af      	push r26
00259c 81a8      	ld   r26,y
00259d dfea      	rcall _w1_write
00259e 91af      	pop  r26
00259f e051      	ldi  r21,1
                 __w1_search1:
0025a0 1550      	cp   r21,r0
0025a1 f498      	brsh __w1_search6
0025a2 dfb4      	rcall __w1_read_bit
0025a3 fde7      	sbrc r30,7
0025a4 c008      	rjmp __w1_search2
0025a5 dfb1      	rcall __w1_read_bit
0025a6 fde7      	sbrc r30,7
0025a7 c006      	rjmp __w1_search3
0025a8 d03f      	rcall __sel_bit
0025a9 2389      	and  r24,r25
0025aa f419      	brne __w1_search3
0025ab 2e15      	mov  r1,r21
0025ac c001      	rjmp __w1_search3
                 __w1_search2:
0025ad dfa9      	rcall __w1_read_bit
                 __w1_search3:
0025ae d039      	rcall __sel_bit
0025af 2389      	and  r24,r25
0025b0 e070      	ldi  r23,0
0025b1 f009      	breq __w1_search5
                 __w1_search4:
0025b2 e071      	ldi  r23,1
                 __w1_search5:
0025b3 dfb4      	rcall __w1_write_bit
0025b4 c01e      	rjmp __w1_search13
                 __w1_search6:
0025b5 dfa1      	rcall __w1_read_bit
0025b6 ffe7      	sbrs r30,7
0025b7 c00b      	rjmp __w1_search9
0025b8 df9e      	rcall __w1_read_bit
0025b9 ffe7      	sbrs r30,7
0025ba c005      	rjmp __w1_search8
                 __w1_search7:
0025bb 2fe4      	mov  r30,r20
0025bc 915f      	pop  r21
0025bd 914f      	pop  r20
0025be 9621      	adiw r28,1
0025bf 9508      	ret
                 __w1_search8:
0025c0 9468      	set
0025c1 d037      	rcall __set_bit
0025c2 cfef      	rjmp __w1_search4
                 __w1_search9:
0025c3 df93      	rcall __w1_read_bit
0025c4 ffe7      	sbrs r30,7
0025c5 c001      	rjmp __w1_search10
0025c6 c003      	rjmp __w1_search11
                 __w1_search10:
0025c7 1550      	cp   r21,r0
0025c8 f031      	breq __w1_search12
0025c9 2e15      	mov  r1,r21
                 __w1_search11:
0025ca 94e8      	clt
0025cb d02d      	rcall __set_bit
0025cc 2777      	clr  r23
0025cd df9a      	rcall __w1_write_bit
0025ce c004      	rjmp __w1_search13
                 __w1_search12:
0025cf 9468      	set
0025d0 d028      	rcall __set_bit
0025d1 e071      	ldi  r23,1
0025d2 df95      	rcall __w1_write_bit
                 __w1_search13:
0025d3 9553      	inc  r21
0025d4 3451      	cpi  r21,65
0025d5 f254      	brlt __w1_search1
0025d6 df80      	rcall __w1_read_bit
0025d7 1fee      	rol  r30
0025d8 1fee      	rol  r30
0025d9 70e1      	andi r30,1
0025da 9618      	adiw r26,8
0025db 93ec      	st   x,r30
0025dc 9718      	sbiw r26,8
0025dd 9543      	inc  r20
0025de 2011      	tst  r1
0025df f2d9      	breq __w1_search7
0025e0 e059      	ldi  r21,9
                 __w1_search14:
0025e1 91ec      	ld   r30,x
0025e2 9619      	adiw r26,9
0025e3 93ec      	st   x,r30
0025e4 9718      	sbiw r26,8
0025e5 955a      	dec  r21
0025e6 f7d1      	brne __w1_search14
0025e7 cfae      	rjmp __w1_search0
                 
                 __sel_bit:
0025e8 2fe5      	mov  r30,r21
0025e9 95ea      	dec  r30
0025ea 2f6e      	mov  r22,r30
0025eb 95e6      	lsr  r30
0025ec 95e6      	lsr  r30
0025ed 95e6      	lsr  r30
0025ee 27ff      	clr  r31
0025ef 0fea      	add  r30,r26
0025f0 1ffb      	adc  r31,r27
0025f1 8180      	ld   r24,z
0025f2 e091      	ldi  r25,1
0025f3 7067      	andi r22,7
                 __sel_bit0:
0025f4 f019      	breq __sel_bit1
0025f5 0f99      	lsl  r25
0025f6 956a      	dec  r22
0025f7 cffc      	rjmp __sel_bit0
                 __sel_bit1:
0025f8 9508      	ret
                 
                 __set_bit:
0025f9 dfee      	rcall __sel_bit
0025fa f01e      	brts __set_bit2
0025fb 9590      	com  r25
0025fc 2389      	and  r24,r25
0025fd c001      	rjmp __set_bit3
                 __set_bit2:
0025fe 2b89      	or   r24,r25
                 __set_bit3:
0025ff 8380      	st   z,r24
002600 9508      	ret
                 
                 _w1_dow_crc8:
002601 27ee      	clr  r30
002602 23aa      	tst  r26
002603 f089      	breq __w1_dow_crc83
002604 2f8a      	mov  r24,r26
002605 e168      	ldi  r22,0x18
002606 81a8      	ld   r26,y
002607 81b9      	ldd  r27,y+1
                 __w1_dow_crc80:
002608 e098      	ldi  r25,8
002609 91fd      	ld   r31,x+
                 __w1_dow_crc81:
00260a 2f7f      	mov  r23,r31
00260b 277e      	eor  r23,r30
00260c 9577      	ror  r23
00260d f408      	brcc __w1_dow_crc82
00260e 27e6      	eor  r30,r22
                 __w1_dow_crc82:
00260f 95e7      	ror  r30
002610 95f6      	lsr  r31
002611 959a      	dec  r25
002612 f7b9      	brne __w1_dow_crc81
002613 958a      	dec  r24
002614 f799      	brne __w1_dow_crc80
                 __w1_dow_crc83:
002615 9622      	adiw r28,2
002616 9508      	ret
                 
                 __ADDW2R15:
002617 2400      	CLR  R0
002618 0daf      	ADD  R26,R15
002619 1db0      	ADC  R27,R0
00261a 9508      	RET
                 
                 __ADDD12:
00261b 0fea      	ADD  R30,R26
00261c 1ffb      	ADC  R31,R27
00261d 1f68      	ADC  R22,R24
00261e 1f79      	ADC  R23,R25
00261f 9508      	RET
                 
                 __ANEGW1:
002620 95f1      	NEG  R31
002621 95e1      	NEG  R30
002622 40f0      	SBCI R31,0
002623 9508      	RET
                 
                 __ANEGD1:
002624 95f0      	COM  R31
002625 9560      	COM  R22
002626 9570      	COM  R23
002627 95e1      	NEG  R30
002628 4fff      	SBCI R31,-1
002629 4f6f      	SBCI R22,-1
00262a 4f7f      	SBCI R23,-1
00262b 9508      	RET
                 
                 __LSLD12:
00262c 23ee      	TST  R30
00262d 2e0e      	MOV  R0,R30
00262e 01fd      	MOVW R30,R26
00262f 01bc      	MOVW R22,R24
002630 f031      	BREQ __LSLD12R
                 __LSLD12L:
002631 0fee      	LSL  R30
002632 1fff      	ROL  R31
002633 1f66      	ROL  R22
002634 1f77      	ROL  R23
002635 940a      	DEC  R0
002636 f7d1      	BRNE __LSLD12L
                 __LSLD12R:
002637 9508      	RET
                 
                 __ASRW4:
002638 95f5      	ASR  R31
002639 95e7      	ROR  R30
                 __ASRW3:
00263a 95f5      	ASR  R31
00263b 95e7      	ROR  R30
                 __ASRW2:
00263c 95f5      	ASR  R31
00263d 95e7      	ROR  R30
00263e 95f5      	ASR  R31
00263f 95e7      	ROR  R30
002640 9508      	RET
                 
                 __LSRW2:
002641 95f6      	LSR  R31
002642 95e7      	ROR  R30
002643 95f6      	LSR  R31
002644 95e7      	ROR  R30
002645 9508      	RET
                 
                 __ASRW8:
002646 2fef      	MOV  R30,R31
002647 27ff      	CLR  R31
002648 fde7      	SBRC R30,7
002649 efff      	SER  R31
00264a 9508      	RET
                 
                 __CWD1:
00264b 2f6f      	MOV  R22,R31
00264c 0f66      	ADD  R22,R22
00264d 0b66      	SBC  R22,R22
00264e 2f76      	MOV  R23,R22
00264f 9508      	RET
                 
                 __MULW12U:
002650 9ffa      	MUL  R31,R26
002651 2df0      	MOV  R31,R0
002652 9feb      	MUL  R30,R27
002653 0df0      	ADD  R31,R0
002654 9fea      	MUL  R30,R26
002655 2de0      	MOV  R30,R0
002656 0df1      	ADD  R31,R1
002657 9508      	RET
                 
                 __MULD12U:
002658 9f7a      	MUL  R23,R26
002659 2d70      	MOV  R23,R0
00265a 9f6b      	MUL  R22,R27
00265b 0d70      	ADD  R23,R0
00265c 9ff8      	MUL  R31,R24
00265d 0d70      	ADD  R23,R0
00265e 9fe9      	MUL  R30,R25
00265f 0d70      	ADD  R23,R0
002660 9f6a      	MUL  R22,R26
002661 2d60      	MOV  R22,R0
002662 0d71      	ADD  R23,R1
002663 9ffb      	MUL  R31,R27
002664 0d60      	ADD  R22,R0
002665 1d71      	ADC  R23,R1
002666 9fe8      	MUL  R30,R24
002667 0d60      	ADD  R22,R0
002668 1d71      	ADC  R23,R1
002669 2788      	CLR  R24
00266a 9ffa      	MUL  R31,R26
00266b 2df0      	MOV  R31,R0
00266c 0d61      	ADD  R22,R1
00266d 1f78      	ADC  R23,R24
00266e 9feb      	MUL  R30,R27
00266f 0df0      	ADD  R31,R0
002670 1d61      	ADC  R22,R1
002671 1f78      	ADC  R23,R24
002672 9fea      	MUL  R30,R26
002673 2de0      	MOV  R30,R0
002674 0df1      	ADD  R31,R1
002675 1f68      	ADC  R22,R24
002676 1f78      	ADC  R23,R24
002677 9508      	RET
                 
                 __MULW12:
002678 d059      	RCALL __CHKSIGNW
002679 dfd6      	RCALL __MULW12U
00267a f40e      	BRTC __MULW121
00267b dfa4      	RCALL __ANEGW1
                 __MULW121:
00267c 9508      	RET
                 
                 __MULD12:
00267d d062      	RCALL __CHKSIGND
00267e dfd9      	RCALL __MULD12U
00267f f40e      	BRTC __MULD121
002680 dfa3      	RCALL __ANEGD1
                 __MULD121:
002681 9508      	RET
                 
                 __DIVW21U:
002682 2400      	CLR  R0
002683 2411      	CLR  R1
002684 e190      	LDI  R25,16
                 __DIVW21U1:
002685 0faa      	LSL  R26
002686 1fbb      	ROL  R27
002687 1c00      	ROL  R0
002688 1c11      	ROL  R1
002689 1a0e      	SUB  R0,R30
00268a 0a1f      	SBC  R1,R31
00268b f418      	BRCC __DIVW21U2
00268c 0e0e      	ADD  R0,R30
00268d 1e1f      	ADC  R1,R31
00268e c001      	RJMP __DIVW21U3
                 __DIVW21U2:
00268f 60a1      	SBR  R26,1
                 __DIVW21U3:
002690 959a      	DEC  R25
002691 f799      	BRNE __DIVW21U1
002692 01fd      	MOVW R30,R26
002693 01d0      	MOVW R26,R0
002694 9508      	RET
                 
                 __DIVW21:
002695 d03c      	RCALL __CHKSIGNW
002696 dfeb      	RCALL __DIVW21U
002697 f40e      	BRTC __DIVW211
002698 df87      	RCALL __ANEGW1
                 __DIVW211:
002699 9508      	RET
                 
                 __DIVD21U:
00269a 933f      	PUSH R19
00269b 934f      	PUSH R20
00269c 935f      	PUSH R21
00269d 2400      	CLR  R0
00269e 2411      	CLR  R1
00269f 2744      	CLR  R20
0026a0 2755      	CLR  R21
0026a1 e230      	LDI  R19,32
                 __DIVD21U1:
0026a2 0faa      	LSL  R26
0026a3 1fbb      	ROL  R27
0026a4 1f88      	ROL  R24
0026a5 1f99      	ROL  R25
0026a6 1c00      	ROL  R0
0026a7 1c11      	ROL  R1
0026a8 1f44      	ROL  R20
0026a9 1f55      	ROL  R21
0026aa 1a0e      	SUB  R0,R30
0026ab 0a1f      	SBC  R1,R31
0026ac 0b46      	SBC  R20,R22
0026ad 0b57      	SBC  R21,R23
0026ae f428      	BRCC __DIVD21U2
0026af 0e0e      	ADD  R0,R30
0026b0 1e1f      	ADC  R1,R31
0026b1 1f46      	ADC  R20,R22
0026b2 1f57      	ADC  R21,R23
0026b3 c001      	RJMP __DIVD21U3
                 __DIVD21U2:
0026b4 60a1      	SBR  R26,1
                 __DIVD21U3:
0026b5 953a      	DEC  R19
0026b6 f759      	BRNE __DIVD21U1
0026b7 01fd      	MOVW R30,R26
0026b8 01bc      	MOVW R22,R24
0026b9 01d0      	MOVW R26,R0
0026ba 01ca      	MOVW R24,R20
0026bb 915f      	POP  R21
0026bc 914f      	POP  R20
0026bd 913f      	POP  R19
0026be 9508      	RET
                 
                 __DIVD21:
0026bf d020      	RCALL __CHKSIGND
0026c0 dfd9      	RCALL __DIVD21U
0026c1 f40e      	BRTC __DIVD211
0026c2 df61      	RCALL __ANEGD1
                 __DIVD211:
0026c3 9508      	RET
                 
                 __MODW21:
0026c4 94e8      	CLT
0026c5 ffb7      	SBRS R27,7
0026c6 c004      	RJMP __MODW211
0026c7 95a0      	COM  R26
0026c8 95b0      	COM  R27
0026c9 9611      	ADIW R26,1
0026ca 9468      	SET
                 __MODW211:
0026cb fdf7      	SBRC R31,7
0026cc df53      	RCALL __ANEGW1
0026cd dfb4      	RCALL __DIVW21U
0026ce 01fd      	MOVW R30,R26
0026cf f40e      	BRTC __MODW212
0026d0 df4f      	RCALL __ANEGW1
                 __MODW212:
0026d1 9508      	RET
                 
                 __CHKSIGNW:
0026d2 94e8      	CLT
0026d3 fff7      	SBRS R31,7
0026d4 c002      	RJMP __CHKSW1
0026d5 df4a      	RCALL __ANEGW1
0026d6 9468      	SET
                 __CHKSW1:
0026d7 ffb7      	SBRS R27,7
0026d8 c006      	RJMP __CHKSW2
0026d9 95a0      	COM  R26
0026da 95b0      	COM  R27
0026db 9611      	ADIW R26,1
0026dc f800      	BLD  R0,0
0026dd 9403      	INC  R0
0026de fa00      	BST  R0,0
                 __CHKSW2:
0026df 9508      	RET
                 
                 __CHKSIGND:
0026e0 94e8      	CLT
0026e1 ff77      	SBRS R23,7
0026e2 c002      	RJMP __CHKSD1
0026e3 df40      	RCALL __ANEGD1
0026e4 9468      	SET
                 __CHKSD1:
0026e5 ff97      	SBRS R25,7
0026e6 c00b      	RJMP __CHKSD2
0026e7 2400      	CLR  R0
0026e8 95a0      	COM  R26
0026e9 95b0      	COM  R27
0026ea 9580      	COM  R24
0026eb 9590      	COM  R25
0026ec 9611      	ADIW R26,1
0026ed 1d80      	ADC  R24,R0
0026ee 1d90      	ADC  R25,R0
0026ef f800      	BLD  R0,0
0026f0 9403      	INC  R0
0026f1 fa00      	BST  R0,0
                 __CHKSD2:
0026f2 9508      	RET
                 
                 __GETW1P:
0026f3 91ed      	LD   R30,X+
0026f4 91fc      	LD   R31,X
0026f5 9711      	SBIW R26,1
0026f6 9508      	RET
                 
                 __GETW1PF:
0026f7 9005      	LPM  R0,Z+
0026f8 91f4      	LPM  R31,Z
0026f9 2de0      	MOV  R30,R0
0026fa 9508      	RET
                 
                 __GETD1S0:
0026fb 81e8      	LD   R30,Y
0026fc 81f9      	LDD  R31,Y+1
0026fd 816a      	LDD  R22,Y+2
0026fe 817b      	LDD  R23,Y+3
0026ff 9508      	RET
                 
                 __GETD2S0:
002700 81a8      	LD   R26,Y
002701 81b9      	LDD  R27,Y+1
002702 818a      	LDD  R24,Y+2
002703 819b      	LDD  R25,Y+3
002704 9508      	RET
                 
                 __PUTD1S0:
002705 83e8      	ST   Y,R30
002706 83f9      	STD  Y+1,R31
002707 836a      	STD  Y+2,R22
002708 837b      	STD  Y+3,R23
002709 9508      	RET
                 
                 __CLRD1S0:
00270a 83e8      	ST   Y,R30
00270b 83e9      	STD  Y+1,R30
00270c 83ea      	STD  Y+2,R30
00270d 83eb      	STD  Y+3,R30
00270e 9508      	RET
                 
                 __PUTPARD1:
00270f 937a      	ST   -Y,R23
002710 936a      	ST   -Y,R22
002711 93fa      	ST   -Y,R31
002712 93ea      	ST   -Y,R30
002713 9508      	RET
                 
                 __SWAPW12:
002714 2e1b      	MOV  R1,R27
002715 2fbf      	MOV  R27,R31
002716 2df1      	MOV  R31,R1
                 
                 __SWAPB12:
002717 2e1a      	MOV  R1,R26
002718 2fae      	MOV  R26,R30
002719 2de1      	MOV  R30,R1
00271a 9508      	RET
                 
                 __EEPROMRDW:
00271b 9611      	ADIW R26,1
00271c d002      	RCALL __EEPROMRDB
00271d 2ffe      	MOV  R31,R30
00271e 9711      	SBIW R26,1
                 
                 __EEPROMRDB:
00271f 99e1      	SBIC EECR,EEWE
002720 cffe      	RJMP __EEPROMRDB
002721 93ff      	PUSH R31
002722 b7ff      	IN   R31,SREG
002723 94f8      	CLI
002724 bbae      	OUT  EEARL,R26
002725 bbbf      	OUT  EEARH,R27
002726 9ae0      	SBI  EECR,EERE
002727 b3ed      	IN   R30,EEDR
002728 bfff      	OUT  SREG,R31
002729 91ff      	POP  R31
00272a 9508      	RET
                 
                 __EEPROMWRW:
00272b d007      	RCALL __EEPROMWRB
00272c 9611      	ADIW R26,1
00272d 93ef      	PUSH R30
00272e 2fef      	MOV  R30,R31
00272f d003      	RCALL __EEPROMWRB
002730 91ef      	POP  R30
002731 9711      	SBIW R26,1
002732 9508      	RET
                 
                 __EEPROMWRB:
002733 9be1      	SBIS EECR,EEWE
002734 c002      	RJMP __EEPROMWRB1
002735 95a8      	WDR
002736 cffc      	RJMP __EEPROMWRB
                 __EEPROMWRB1:
002737 b79f      	IN   R25,SREG
002738 94f8      	CLI
002739 bbae      	OUT  EEARL,R26
00273a bbbf      	OUT  EEARH,R27
00273b 9ae0      	SBI  EECR,EERE
00273c b38d      	IN   R24,EEDR
00273d 17e8      	CP   R30,R24
00273e f019      	BREQ __EEPROMWRB0
00273f bbed      	OUT  EEDR,R30
002740 9ae2      	SBI  EECR,EEMWE
002741 9ae1      	SBI  EECR,EEWE
                 __EEPROMWRB0:
002742 bf9f      	OUT  SREG,R25
002743 9508      	RET
                 
                 __CPW02:
002744 2400      	CLR  R0
002745 160a      	CP   R0,R26
002746 060b      	CPC  R0,R27
002747 9508      	RET
                 
                 __CPD21:
002748 17ae      	CP   R26,R30
002749 07bf      	CPC  R27,R31
00274a 0786      	CPC  R24,R22
00274b 0797      	CPC  R25,R23
00274c 9508      	RET
                 
                 __BSTB1:
00274d 94e8      	CLT
00274e 23ee      	TST  R30
00274f f009      	BREQ PC+2
002750 9468      	SET
002751 9508      	RET
                 
                 __SAVELOCR6:
002752 935a      	ST   -Y,R21
                 __SAVELOCR5:
002753 934a      	ST   -Y,R20
                 __SAVELOCR4:
002754 933a      	ST   -Y,R19
                 __SAVELOCR3:
002755 932a      	ST   -Y,R18
                 __SAVELOCR2:
002756 931a      	ST   -Y,R17
002757 930a      	ST   -Y,R16
002758 9508      	RET
                 
                 __LOADLOCR6:
002759 815d      	LDD  R21,Y+5
                 __LOADLOCR5:
00275a 814c      	LDD  R20,Y+4
                 __LOADLOCR4:
00275b 813b      	LDD  R19,Y+3
                 __LOADLOCR3:
00275c 812a      	LDD  R18,Y+2
                 __LOADLOCR2:
00275d 8119      	LDD  R17,Y+1
00275e 8108      	LD   R16,Y
00275f 9508      	RET
                 
                 ;END OF CODE MARKER
                 __END_OF_CODE:


RESOURCE USE INFORMATION
------------------------

Notice:
The register and instruction counts are symbol table hit counts,
and hence implicitly used resources are not counted, eg, the
'lpm' instruction without operands implicitly uses r0 and z,
none of which are counted.

x,y,z are separate entities in the symbol table and are
counted separately from r26..r31 here.

.dseg memory usage only counts static data declared with .byte

ATmega32 register use summary:
r0 :  85 r1 :  28 r2 :  19 r3 :  10 r4 :  21 r5 :   1 r6 :  21 r7 :   5 
r8 :  17 r9 :   7 r10:   1 r11:   3 r12:   5 r13:   2 r14:   0 r15:   6 
r16: 101 r17: 154 r18:  86 r19:  59 r20:  50 r21:  48 r22:  69 r23:  56 
r24:  77 r25:  35 r26: 737 r27: 285 r28:  47 r29:   1 r30:1628 r31: 738 
x  :  96 y  : 957 z  :  44 
Registers used: 34 out of 35 (97.1%)

ATmega32 instruction use summary:
.lds  :   0 .lds.l:   0 .sts  :   0 .sts.l:   0 adc   :  55 add   :  69 
adiw  :  74 and   :   3 andi  :  53 asr   :   4 bclr  :   0 bld   :  15 
brbc  :   0 brbs  :   0 brcc  :   3 brcs  :   0 break :   0 breq  :  96 
brge  :  22 brhc  :   0 brhs  :   0 brid  :   0 brie  :   0 brlo  :  25 
brlt  :  29 brmi  :   1 brne  : 174 brpl  :   8 brsh  :  49 brtc  :   6 
brts  :   1 brvc  :   0 brvs  :   0 bset  :   0 bst   :   2 call  : 767 
cbi   :  26 cbr   :   0 clc   :   1 clh   :   0 cli   :   4 cln   :   0 
clr   :  54 cls   :   0 clt   :  10 clv   :   0 clz   :   0 com   :  14 
cp    :  41 cpc   : 118 cpi   : 228 cpse  :   0 dec   :  20 des   :   0 
eor   :  14 fmul  :   0 fmuls :   0 fmulsu:   0 icall :   6 ijmp  :   0 
in    :  56 inc   :   5 jmp   :  40 ld    :  93 ldd   : 426 ldi   : 913 
lds   : 120 lpm   :  14 lsl   :  11 lsr   :   7 mov   : 126 movw  :  95 
mul   :  26 muls  :   2 mulsu :   0 neg   :   3 nop   :   2 or    :   4 
ori   :  28 out   :  77 pop   :  25 push  :  25 rcall :  99 ret   : 154 
reti  :   3 rjmp  : 378 rol   :  21 ror   :  11 sbc   :  18 sbci  :  41 
sbi   :  28 sbic  :   6 sbis  :   6 sbiw  :  93 sbr   :   2 sbrc  :  16 
sbrs  :  33 sec   :   1 seh   :   0 sei   :   2 sen   :   0 ser   :   7 
ses   :   0 set   :  12 sev   :   0 sez   :   0 sleep :   0 spm   :   0 
st    : 414 std   : 152 sts   :  55 sub   :  16 subi  :  94 swap  :   1 
tst   :  23 wdr   :   2 
Instructions used: 80 out of 116 (69.0%)

ATmega32 memory use summary [bytes]:
Segment   Begin    End      Code   Data   Used    Size   Use%
---------------------------------------------------------------
[.cseg] 0x000000 0x004ec0  13516   6644  20160   32768  61.5%
[.dseg] 0x000060 0x00046d      0    525    525    2048  25.6%
[.eseg] 0x000000 0x000028      0     40     40    1024   3.9%

Assembly complete, 0 errors, 14 warnings
