
;CodeVisionAVR C Compiler V3.12 Advanced
;(C) Copyright 1998-2014 Pavel Haiduc, HP InfoTech s.r.l.
;http://www.hpinfotech.com

;Build configuration    : Debug
;Chip type              : ATmega32
;Program type           : Application
;Clock frequency        : 16,000000 MHz
;Memory model           : Small
;Optimize for           : Size
;(s)printf features     : int, width
;(s)scanf features      : int, width
;External RAM size      : 0
;Data Stack size        : 512 byte(s)
;Heap size              : 0 byte(s)
;Promote 'char' to 'int': Yes
;'char' is unsigned     : Yes
;8 bit enums            : Yes
;Global 'const' stored in FLASH: Yes
;Enhanced function parameter passing: Yes
;Enhanced core instructions: On
;Automatic register allocation for global variables: On
;Smart register allocation: On

	#define _MODEL_SMALL_

	#pragma AVRPART ADMIN PART_NAME ATmega32
	#pragma AVRPART MEMORY PROG_FLASH 32768
	#pragma AVRPART MEMORY EEPROM 1024
	#pragma AVRPART MEMORY INT_SRAM SIZE 2048
	#pragma AVRPART MEMORY INT_SRAM START_ADDR 0x60

	#define CALL_SUPPORTED 1

	.LISTMAC
	.EQU UDRE=0x5
	.EQU RXC=0x7
	.EQU USR=0xB
	.EQU UDR=0xC
	.EQU SPSR=0xE
	.EQU SPDR=0xF
	.EQU EERE=0x0
	.EQU EEWE=0x1
	.EQU EEMWE=0x2
	.EQU EECR=0x1C
	.EQU EEDR=0x1D
	.EQU EEARL=0x1E
	.EQU EEARH=0x1F
	.EQU WDTCR=0x21
	.EQU MCUCR=0x35
	.EQU GICR=0x3B
	.EQU SPL=0x3D
	.EQU SPH=0x3E
	.EQU SREG=0x3F

	.DEF R0X0=R0
	.DEF R0X1=R1
	.DEF R0X2=R2
	.DEF R0X3=R3
	.DEF R0X4=R4
	.DEF R0X5=R5
	.DEF R0X6=R6
	.DEF R0X7=R7
	.DEF R0X8=R8
	.DEF R0X9=R9
	.DEF R0XA=R10
	.DEF R0XB=R11
	.DEF R0XC=R12
	.DEF R0XD=R13
	.DEF R0XE=R14
	.DEF R0XF=R15
	.DEF R0X10=R16
	.DEF R0X11=R17
	.DEF R0X12=R18
	.DEF R0X13=R19
	.DEF R0X14=R20
	.DEF R0X15=R21
	.DEF R0X16=R22
	.DEF R0X17=R23
	.DEF R0X18=R24
	.DEF R0X19=R25
	.DEF R0X1A=R26
	.DEF R0X1B=R27
	.DEF R0X1C=R28
	.DEF R0X1D=R29
	.DEF R0X1E=R30
	.DEF R0X1F=R31

	.EQU __SRAM_START=0x0060
	.EQU __SRAM_END=0x085F
	.EQU __DSTACK_SIZE=0x0200
	.EQU __HEAP_SIZE=0x0000
	.EQU __CLEAR_SRAM_SIZE=__SRAM_END-__SRAM_START+1

	.MACRO __CPD1N
	CPI  R30,LOW(@0)
	LDI  R26,HIGH(@0)
	CPC  R31,R26
	LDI  R26,BYTE3(@0)
	CPC  R22,R26
	LDI  R26,BYTE4(@0)
	CPC  R23,R26
	.ENDM

	.MACRO __CPD2N
	CPI  R26,LOW(@0)
	LDI  R30,HIGH(@0)
	CPC  R27,R30
	LDI  R30,BYTE3(@0)
	CPC  R24,R30
	LDI  R30,BYTE4(@0)
	CPC  R25,R30
	.ENDM

	.MACRO __CPWRR
	CP   R@0,R@2
	CPC  R@1,R@3
	.ENDM

	.MACRO __CPWRN
	CPI  R@0,LOW(@2)
	LDI  R30,HIGH(@2)
	CPC  R@1,R30
	.ENDM

	.MACRO __ADDB1MN
	SUBI R30,LOW(-@0-(@1))
	.ENDM

	.MACRO __ADDB2MN
	SUBI R26,LOW(-@0-(@1))
	.ENDM

	.MACRO __ADDW1MN
	SUBI R30,LOW(-@0-(@1))
	SBCI R31,HIGH(-@0-(@1))
	.ENDM

	.MACRO __ADDW2MN
	SUBI R26,LOW(-@0-(@1))
	SBCI R27,HIGH(-@0-(@1))
	.ENDM

	.MACRO __ADDW1FN
	SUBI R30,LOW(-2*@0-(@1))
	SBCI R31,HIGH(-2*@0-(@1))
	.ENDM

	.MACRO __ADDD1FN
	SUBI R30,LOW(-2*@0-(@1))
	SBCI R31,HIGH(-2*@0-(@1))
	SBCI R22,BYTE3(-2*@0-(@1))
	.ENDM

	.MACRO __ADDD1N
	SUBI R30,LOW(-@0)
	SBCI R31,HIGH(-@0)
	SBCI R22,BYTE3(-@0)
	SBCI R23,BYTE4(-@0)
	.ENDM

	.MACRO __ADDD2N
	SUBI R26,LOW(-@0)
	SBCI R27,HIGH(-@0)
	SBCI R24,BYTE3(-@0)
	SBCI R25,BYTE4(-@0)
	.ENDM

	.MACRO __SUBD1N
	SUBI R30,LOW(@0)
	SBCI R31,HIGH(@0)
	SBCI R22,BYTE3(@0)
	SBCI R23,BYTE4(@0)
	.ENDM

	.MACRO __SUBD2N
	SUBI R26,LOW(@0)
	SBCI R27,HIGH(@0)
	SBCI R24,BYTE3(@0)
	SBCI R25,BYTE4(@0)
	.ENDM

	.MACRO __ANDBMNN
	LDS  R30,@0+(@1)
	ANDI R30,LOW(@2)
	STS  @0+(@1),R30
	.ENDM

	.MACRO __ANDWMNN
	LDS  R30,@0+(@1)
	ANDI R30,LOW(@2)
	STS  @0+(@1),R30
	LDS  R30,@0+(@1)+1
	ANDI R30,HIGH(@2)
	STS  @0+(@1)+1,R30
	.ENDM

	.MACRO __ANDD1N
	ANDI R30,LOW(@0)
	ANDI R31,HIGH(@0)
	ANDI R22,BYTE3(@0)
	ANDI R23,BYTE4(@0)
	.ENDM

	.MACRO __ANDD2N
	ANDI R26,LOW(@0)
	ANDI R27,HIGH(@0)
	ANDI R24,BYTE3(@0)
	ANDI R25,BYTE4(@0)
	.ENDM

	.MACRO __ORBMNN
	LDS  R30,@0+(@1)
	ORI  R30,LOW(@2)
	STS  @0+(@1),R30
	.ENDM

	.MACRO __ORWMNN
	LDS  R30,@0+(@1)
	ORI  R30,LOW(@2)
	STS  @0+(@1),R30
	LDS  R30,@0+(@1)+1
	ORI  R30,HIGH(@2)
	STS  @0+(@1)+1,R30
	.ENDM

	.MACRO __ORD1N
	ORI  R30,LOW(@0)
	ORI  R31,HIGH(@0)
	ORI  R22,BYTE3(@0)
	ORI  R23,BYTE4(@0)
	.ENDM

	.MACRO __ORD2N
	ORI  R26,LOW(@0)
	ORI  R27,HIGH(@0)
	ORI  R24,BYTE3(@0)
	ORI  R25,BYTE4(@0)
	.ENDM

	.MACRO __DELAY_USB
	LDI  R24,LOW(@0)
__DELAY_USB_LOOP:
	DEC  R24
	BRNE __DELAY_USB_LOOP
	.ENDM

	.MACRO __DELAY_USW
	LDI  R24,LOW(@0)
	LDI  R25,HIGH(@0)
__DELAY_USW_LOOP:
	SBIW R24,1
	BRNE __DELAY_USW_LOOP
	.ENDM

	.MACRO __GETD1S
	LDD  R30,Y+@0
	LDD  R31,Y+@0+1
	LDD  R22,Y+@0+2
	LDD  R23,Y+@0+3
	.ENDM

	.MACRO __GETD2S
	LDD  R26,Y+@0
	LDD  R27,Y+@0+1
	LDD  R24,Y+@0+2
	LDD  R25,Y+@0+3
	.ENDM

	.MACRO __PUTD1S
	STD  Y+@0,R30
	STD  Y+@0+1,R31
	STD  Y+@0+2,R22
	STD  Y+@0+3,R23
	.ENDM

	.MACRO __PUTD2S
	STD  Y+@0,R26
	STD  Y+@0+1,R27
	STD  Y+@0+2,R24
	STD  Y+@0+3,R25
	.ENDM

	.MACRO __PUTDZ2
	STD  Z+@0,R26
	STD  Z+@0+1,R27
	STD  Z+@0+2,R24
	STD  Z+@0+3,R25
	.ENDM

	.MACRO __CLRD1S
	STD  Y+@0,R30
	STD  Y+@0+1,R30
	STD  Y+@0+2,R30
	STD  Y+@0+3,R30
	.ENDM

	.MACRO __POINTB1MN
	LDI  R30,LOW(@0+(@1))
	.ENDM

	.MACRO __POINTW1MN
	LDI  R30,LOW(@0+(@1))
	LDI  R31,HIGH(@0+(@1))
	.ENDM

	.MACRO __POINTD1M
	LDI  R30,LOW(@0)
	LDI  R31,HIGH(@0)
	LDI  R22,BYTE3(@0)
	LDI  R23,BYTE4(@0)
	.ENDM

	.MACRO __POINTW1FN
	LDI  R30,LOW(2*@0+(@1))
	LDI  R31,HIGH(2*@0+(@1))
	.ENDM

	.MACRO __POINTD1FN
	LDI  R30,LOW(2*@0+(@1))
	LDI  R31,HIGH(2*@0+(@1))
	LDI  R22,BYTE3(2*@0+(@1))
	LDI  R23,BYTE4(2*@0+(@1))
	.ENDM

	.MACRO __POINTB2MN
	LDI  R26,LOW(@0+(@1))
	.ENDM

	.MACRO __POINTW2MN
	LDI  R26,LOW(@0+(@1))
	LDI  R27,HIGH(@0+(@1))
	.ENDM

	.MACRO __POINTW2FN
	LDI  R26,LOW(2*@0+(@1))
	LDI  R27,HIGH(2*@0+(@1))
	.ENDM

	.MACRO __POINTD2FN
	LDI  R26,LOW(2*@0+(@1))
	LDI  R27,HIGH(2*@0+(@1))
	LDI  R24,BYTE3(2*@0+(@1))
	LDI  R25,BYTE4(2*@0+(@1))
	.ENDM

	.MACRO __POINTBRM
	LDI  R@0,LOW(@1)
	.ENDM

	.MACRO __POINTWRM
	LDI  R@0,LOW(@2)
	LDI  R@1,HIGH(@2)
	.ENDM

	.MACRO __POINTBRMN
	LDI  R@0,LOW(@1+(@2))
	.ENDM

	.MACRO __POINTWRMN
	LDI  R@0,LOW(@2+(@3))
	LDI  R@1,HIGH(@2+(@3))
	.ENDM

	.MACRO __POINTWRFN
	LDI  R@0,LOW(@2*2+(@3))
	LDI  R@1,HIGH(@2*2+(@3))
	.ENDM

	.MACRO __GETD1N
	LDI  R30,LOW(@0)
	LDI  R31,HIGH(@0)
	LDI  R22,BYTE3(@0)
	LDI  R23,BYTE4(@0)
	.ENDM

	.MACRO __GETD2N
	LDI  R26,LOW(@0)
	LDI  R27,HIGH(@0)
	LDI  R24,BYTE3(@0)
	LDI  R25,BYTE4(@0)
	.ENDM

	.MACRO __GETB1MN
	LDS  R30,@0+(@1)
	.ENDM

	.MACRO __GETB1HMN
	LDS  R31,@0+(@1)
	.ENDM

	.MACRO __GETW1MN
	LDS  R30,@0+(@1)
	LDS  R31,@0+(@1)+1
	.ENDM

	.MACRO __GETD1MN
	LDS  R30,@0+(@1)
	LDS  R31,@0+(@1)+1
	LDS  R22,@0+(@1)+2
	LDS  R23,@0+(@1)+3
	.ENDM

	.MACRO __GETBRMN
	LDS  R@0,@1+(@2)
	.ENDM

	.MACRO __GETWRMN
	LDS  R@0,@2+(@3)
	LDS  R@1,@2+(@3)+1
	.ENDM

	.MACRO __GETWRZ
	LDD  R@0,Z+@2
	LDD  R@1,Z+@2+1
	.ENDM

	.MACRO __GETD2Z
	LDD  R26,Z+@0
	LDD  R27,Z+@0+1
	LDD  R24,Z+@0+2
	LDD  R25,Z+@0+3
	.ENDM

	.MACRO __GETB2MN
	LDS  R26,@0+(@1)
	.ENDM

	.MACRO __GETW2MN
	LDS  R26,@0+(@1)
	LDS  R27,@0+(@1)+1
	.ENDM

	.MACRO __GETD2MN
	LDS  R26,@0+(@1)
	LDS  R27,@0+(@1)+1
	LDS  R24,@0+(@1)+2
	LDS  R25,@0+(@1)+3
	.ENDM

	.MACRO __PUTB1MN
	STS  @0+(@1),R30
	.ENDM

	.MACRO __PUTW1MN
	STS  @0+(@1),R30
	STS  @0+(@1)+1,R31
	.ENDM

	.MACRO __PUTD1MN
	STS  @0+(@1),R30
	STS  @0+(@1)+1,R31
	STS  @0+(@1)+2,R22
	STS  @0+(@1)+3,R23
	.ENDM

	.MACRO __PUTB1EN
	LDI  R26,LOW(@0+(@1))
	LDI  R27,HIGH(@0+(@1))
	CALL __EEPROMWRB
	.ENDM

	.MACRO __PUTW1EN
	LDI  R26,LOW(@0+(@1))
	LDI  R27,HIGH(@0+(@1))
	CALL __EEPROMWRW
	.ENDM

	.MACRO __PUTD1EN
	LDI  R26,LOW(@0+(@1))
	LDI  R27,HIGH(@0+(@1))
	CALL __EEPROMWRD
	.ENDM

	.MACRO __PUTBR0MN
	STS  @0+(@1),R0
	.ENDM

	.MACRO __PUTBMRN
	STS  @0+(@1),R@2
	.ENDM

	.MACRO __PUTWMRN
	STS  @0+(@1),R@2
	STS  @0+(@1)+1,R@3
	.ENDM

	.MACRO __PUTBZR
	STD  Z+@1,R@0
	.ENDM

	.MACRO __PUTWZR
	STD  Z+@2,R@0
	STD  Z+@2+1,R@1
	.ENDM

	.MACRO __GETW1R
	MOV  R30,R@0
	MOV  R31,R@1
	.ENDM

	.MACRO __GETW2R
	MOV  R26,R@0
	MOV  R27,R@1
	.ENDM

	.MACRO __GETWRN
	LDI  R@0,LOW(@2)
	LDI  R@1,HIGH(@2)
	.ENDM

	.MACRO __PUTW1R
	MOV  R@0,R30
	MOV  R@1,R31
	.ENDM

	.MACRO __PUTW2R
	MOV  R@0,R26
	MOV  R@1,R27
	.ENDM

	.MACRO __ADDWRN
	SUBI R@0,LOW(-@2)
	SBCI R@1,HIGH(-@2)
	.ENDM

	.MACRO __ADDWRR
	ADD  R@0,R@2
	ADC  R@1,R@3
	.ENDM

	.MACRO __SUBWRN
	SUBI R@0,LOW(@2)
	SBCI R@1,HIGH(@2)
	.ENDM

	.MACRO __SUBWRR
	SUB  R@0,R@2
	SBC  R@1,R@3
	.ENDM

	.MACRO __ANDWRN
	ANDI R@0,LOW(@2)
	ANDI R@1,HIGH(@2)
	.ENDM

	.MACRO __ANDWRR
	AND  R@0,R@2
	AND  R@1,R@3
	.ENDM

	.MACRO __ORWRN
	ORI  R@0,LOW(@2)
	ORI  R@1,HIGH(@2)
	.ENDM

	.MACRO __ORWRR
	OR   R@0,R@2
	OR   R@1,R@3
	.ENDM

	.MACRO __EORWRR
	EOR  R@0,R@2
	EOR  R@1,R@3
	.ENDM

	.MACRO __GETWRS
	LDD  R@0,Y+@2
	LDD  R@1,Y+@2+1
	.ENDM

	.MACRO __PUTBSR
	STD  Y+@1,R@0
	.ENDM

	.MACRO __PUTWSR
	STD  Y+@2,R@0
	STD  Y+@2+1,R@1
	.ENDM

	.MACRO __MOVEWRR
	MOV  R@0,R@2
	MOV  R@1,R@3
	.ENDM

	.MACRO __INWR
	IN   R@0,@2
	IN   R@1,@2+1
	.ENDM

	.MACRO __OUTWR
	OUT  @2+1,R@1
	OUT  @2,R@0
	.ENDM

	.MACRO __CALL1MN
	LDS  R30,@0+(@1)
	LDS  R31,@0+(@1)+1
	ICALL
	.ENDM

	.MACRO __CALL1FN
	LDI  R30,LOW(2*@0+(@1))
	LDI  R31,HIGH(2*@0+(@1))
	CALL __GETW1PF
	ICALL
	.ENDM

	.MACRO __CALL2EN
	PUSH R26
	PUSH R27
	LDI  R26,LOW(@0+(@1))
	LDI  R27,HIGH(@0+(@1))
	CALL __EEPROMRDW
	POP  R27
	POP  R26
	ICALL
	.ENDM

	.MACRO __CALL2EX
	SUBI R26,LOW(-@0)
	SBCI R27,HIGH(-@0)
	CALL __EEPROMRDD
	ICALL
	.ENDM

	.MACRO __GETW1STACK
	IN   R30,SPL
	IN   R31,SPH
	ADIW R30,@0+1
	LD   R0,Z+
	LD   R31,Z
	MOV  R30,R0
	.ENDM

	.MACRO __GETD1STACK
	IN   R30,SPL
	IN   R31,SPH
	ADIW R30,@0+1
	LD   R0,Z+
	LD   R1,Z+
	LD   R22,Z
	MOVW R30,R0
	.ENDM

	.MACRO __NBST
	BST  R@0,@1
	IN   R30,SREG
	LDI  R31,0x40
	EOR  R30,R31
	OUT  SREG,R30
	.ENDM


	.MACRO __PUTB1SN
	LDD  R26,Y+@0
	LDD  R27,Y+@0+1
	SUBI R26,LOW(-@1)
	SBCI R27,HIGH(-@1)
	ST   X,R30
	.ENDM

	.MACRO __PUTW1SN
	LDD  R26,Y+@0
	LDD  R27,Y+@0+1
	SUBI R26,LOW(-@1)
	SBCI R27,HIGH(-@1)
	ST   X+,R30
	ST   X,R31
	.ENDM

	.MACRO __PUTD1SN
	LDD  R26,Y+@0
	LDD  R27,Y+@0+1
	SUBI R26,LOW(-@1)
	SBCI R27,HIGH(-@1)
	CALL __PUTDP1
	.ENDM

	.MACRO __PUTB1SNS
	LDD  R26,Y+@0
	LDD  R27,Y+@0+1
	ADIW R26,@1
	ST   X,R30
	.ENDM

	.MACRO __PUTW1SNS
	LDD  R26,Y+@0
	LDD  R27,Y+@0+1
	ADIW R26,@1
	ST   X+,R30
	ST   X,R31
	.ENDM

	.MACRO __PUTD1SNS
	LDD  R26,Y+@0
	LDD  R27,Y+@0+1
	ADIW R26,@1
	CALL __PUTDP1
	.ENDM

	.MACRO __PUTB1PMN
	LDS  R26,@0
	LDS  R27,@0+1
	SUBI R26,LOW(-@1)
	SBCI R27,HIGH(-@1)
	ST   X,R30
	.ENDM

	.MACRO __PUTW1PMN
	LDS  R26,@0
	LDS  R27,@0+1
	SUBI R26,LOW(-@1)
	SBCI R27,HIGH(-@1)
	ST   X+,R30
	ST   X,R31
	.ENDM

	.MACRO __PUTD1PMN
	LDS  R26,@0
	LDS  R27,@0+1
	SUBI R26,LOW(-@1)
	SBCI R27,HIGH(-@1)
	CALL __PUTDP1
	.ENDM

	.MACRO __PUTB1PMNS
	LDS  R26,@0
	LDS  R27,@0+1
	ADIW R26,@1
	ST   X,R30
	.ENDM

	.MACRO __PUTW1PMNS
	LDS  R26,@0
	LDS  R27,@0+1
	ADIW R26,@1
	ST   X+,R30
	ST   X,R31
	.ENDM

	.MACRO __PUTD1PMNS
	LDS  R26,@0
	LDS  R27,@0+1
	ADIW R26,@1
	CALL __PUTDP1
	.ENDM

	.MACRO __PUTB1RN
	MOVW R26,R@0
	SUBI R26,LOW(-@1)
	SBCI R27,HIGH(-@1)
	ST   X,R30
	.ENDM

	.MACRO __PUTW1RN
	MOVW R26,R@0
	SUBI R26,LOW(-@1)
	SBCI R27,HIGH(-@1)
	ST   X+,R30
	ST   X,R31
	.ENDM

	.MACRO __PUTD1RN
	MOVW R26,R@0
	SUBI R26,LOW(-@1)
	SBCI R27,HIGH(-@1)
	CALL __PUTDP1
	.ENDM

	.MACRO __PUTB1RNS
	MOVW R26,R@0
	ADIW R26,@1
	ST   X,R30
	.ENDM

	.MACRO __PUTW1RNS
	MOVW R26,R@0
	ADIW R26,@1
	ST   X+,R30
	ST   X,R31
	.ENDM

	.MACRO __PUTD1RNS
	MOVW R26,R@0
	ADIW R26,@1
	CALL __PUTDP1
	.ENDM

	.MACRO __PUTB1RON
	MOV  R26,R@0
	MOV  R27,R@1
	SUBI R26,LOW(-@2)
	SBCI R27,HIGH(-@2)
	ST   X,R30
	.ENDM

	.MACRO __PUTW1RON
	MOV  R26,R@0
	MOV  R27,R@1
	SUBI R26,LOW(-@2)
	SBCI R27,HIGH(-@2)
	ST   X+,R30
	ST   X,R31
	.ENDM

	.MACRO __PUTD1RON
	MOV  R26,R@0
	MOV  R27,R@1
	SUBI R26,LOW(-@2)
	SBCI R27,HIGH(-@2)
	CALL __PUTDP1
	.ENDM

	.MACRO __PUTB1RONS
	MOV  R26,R@0
	MOV  R27,R@1
	ADIW R26,@2
	ST   X,R30
	.ENDM

	.MACRO __PUTW1RONS
	MOV  R26,R@0
	MOV  R27,R@1
	ADIW R26,@2
	ST   X+,R30
	ST   X,R31
	.ENDM

	.MACRO __PUTD1RONS
	MOV  R26,R@0
	MOV  R27,R@1
	ADIW R26,@2
	CALL __PUTDP1
	.ENDM


	.MACRO __GETB1SX
	MOVW R30,R28
	SUBI R30,LOW(-@0)
	SBCI R31,HIGH(-@0)
	LD   R30,Z
	.ENDM

	.MACRO __GETB1HSX
	MOVW R30,R28
	SUBI R30,LOW(-@0)
	SBCI R31,HIGH(-@0)
	LD   R31,Z
	.ENDM

	.MACRO __GETW1SX
	MOVW R30,R28
	SUBI R30,LOW(-@0)
	SBCI R31,HIGH(-@0)
	LD   R0,Z+
	LD   R31,Z
	MOV  R30,R0
	.ENDM

	.MACRO __GETD1SX
	MOVW R30,R28
	SUBI R30,LOW(-@0)
	SBCI R31,HIGH(-@0)
	LD   R0,Z+
	LD   R1,Z+
	LD   R22,Z+
	LD   R23,Z
	MOVW R30,R0
	.ENDM

	.MACRO __GETB2SX
	MOVW R26,R28
	SUBI R26,LOW(-@0)
	SBCI R27,HIGH(-@0)
	LD   R26,X
	.ENDM

	.MACRO __GETW2SX
	MOVW R26,R28
	SUBI R26,LOW(-@0)
	SBCI R27,HIGH(-@0)
	LD   R0,X+
	LD   R27,X
	MOV  R26,R0
	.ENDM

	.MACRO __GETD2SX
	MOVW R26,R28
	SUBI R26,LOW(-@0)
	SBCI R27,HIGH(-@0)
	LD   R0,X+
	LD   R1,X+
	LD   R24,X+
	LD   R25,X
	MOVW R26,R0
	.ENDM

	.MACRO __GETBRSX
	MOVW R30,R28
	SUBI R30,LOW(-@1)
	SBCI R31,HIGH(-@1)
	LD   R@0,Z
	.ENDM

	.MACRO __GETWRSX
	MOVW R30,R28
	SUBI R30,LOW(-@2)
	SBCI R31,HIGH(-@2)
	LD   R@0,Z+
	LD   R@1,Z
	.ENDM

	.MACRO __GETBRSX2
	MOVW R26,R28
	SUBI R26,LOW(-@1)
	SBCI R27,HIGH(-@1)
	LD   R@0,X
	.ENDM

	.MACRO __GETWRSX2
	MOVW R26,R28
	SUBI R26,LOW(-@2)
	SBCI R27,HIGH(-@2)
	LD   R@0,X+
	LD   R@1,X
	.ENDM

	.MACRO __LSLW8SX
	MOVW R30,R28
	SUBI R30,LOW(-@0)
	SBCI R31,HIGH(-@0)
	LD   R31,Z
	CLR  R30
	.ENDM

	.MACRO __PUTB1SX
	MOVW R26,R28
	SUBI R26,LOW(-@0)
	SBCI R27,HIGH(-@0)
	ST   X,R30
	.ENDM

	.MACRO __PUTW1SX
	MOVW R26,R28
	SUBI R26,LOW(-@0)
	SBCI R27,HIGH(-@0)
	ST   X+,R30
	ST   X,R31
	.ENDM

	.MACRO __PUTD1SX
	MOVW R26,R28
	SUBI R26,LOW(-@0)
	SBCI R27,HIGH(-@0)
	ST   X+,R30
	ST   X+,R31
	ST   X+,R22
	ST   X,R23
	.ENDM

	.MACRO __CLRW1SX
	MOVW R26,R28
	SUBI R26,LOW(-@0)
	SBCI R27,HIGH(-@0)
	ST   X+,R30
	ST   X,R30
	.ENDM

	.MACRO __CLRD1SX
	MOVW R26,R28
	SUBI R26,LOW(-@0)
	SBCI R27,HIGH(-@0)
	ST   X+,R30
	ST   X+,R30
	ST   X+,R30
	ST   X,R30
	.ENDM

	.MACRO __PUTB2SX
	MOVW R30,R28
	SUBI R30,LOW(-@0)
	SBCI R31,HIGH(-@0)
	ST   Z,R26
	.ENDM

	.MACRO __PUTW2SX
	MOVW R30,R28
	SUBI R30,LOW(-@0)
	SBCI R31,HIGH(-@0)
	ST   Z+,R26
	ST   Z,R27
	.ENDM

	.MACRO __PUTD2SX
	MOVW R30,R28
	SUBI R30,LOW(-@0)
	SBCI R31,HIGH(-@0)
	ST   Z+,R26
	ST   Z+,R27
	ST   Z+,R24
	ST   Z,R25
	.ENDM

	.MACRO __PUTBSRX
	MOVW R30,R28
	SUBI R30,LOW(-@1)
	SBCI R31,HIGH(-@1)
	ST   Z,R@0
	.ENDM

	.MACRO __PUTWSRX
	MOVW R30,R28
	SUBI R30,LOW(-@2)
	SBCI R31,HIGH(-@2)
	ST   Z+,R@0
	ST   Z,R@1
	.ENDM

	.MACRO __PUTB1SNX
	MOVW R26,R28
	SUBI R26,LOW(-@0)
	SBCI R27,HIGH(-@0)
	LD   R0,X+
	LD   R27,X
	MOV  R26,R0
	SUBI R26,LOW(-@1)
	SBCI R27,HIGH(-@1)
	ST   X,R30
	.ENDM

	.MACRO __PUTW1SNX
	MOVW R26,R28
	SUBI R26,LOW(-@0)
	SBCI R27,HIGH(-@0)
	LD   R0,X+
	LD   R27,X
	MOV  R26,R0
	SUBI R26,LOW(-@1)
	SBCI R27,HIGH(-@1)
	ST   X+,R30
	ST   X,R31
	.ENDM

	.MACRO __PUTD1SNX
	MOVW R26,R28
	SUBI R26,LOW(-@0)
	SBCI R27,HIGH(-@0)
	LD   R0,X+
	LD   R27,X
	MOV  R26,R0
	SUBI R26,LOW(-@1)
	SBCI R27,HIGH(-@1)
	ST   X+,R30
	ST   X+,R31
	ST   X+,R22
	ST   X,R23
	.ENDM

	.MACRO __MULBRR
	MULS R@0,R@1
	MOVW R30,R0
	.ENDM

	.MACRO __MULBRRU
	MUL  R@0,R@1
	MOVW R30,R0
	.ENDM

	.MACRO __MULBRR0
	MULS R@0,R@1
	.ENDM

	.MACRO __MULBRRU0
	MUL  R@0,R@1
	.ENDM

	.MACRO __MULBNWRU
	LDI  R26,@2
	MUL  R26,R@0
	MOVW R30,R0
	MUL  R26,R@1
	ADD  R31,R0
	.ENDM

;NAME DEFINITIONS FOR GLOBAL VARIABLES ALLOCATED TO REGISTERS
	.DEF _BeepT=R5
	.DEF _displ_num=R4
	.DEF _newSetButt=R7
	.DEF _ds18b20=R6
	.DEF _pointY=R9
	.DEF _DHTexist=R8
	.DEF _signchar=R11
	.DEF _intval=R10
	.DEF _frcval=R13
	.DEF _error=R12

	.CSEG
	.ORG 0x00

;START OF CODE MARKER
__START_OF_CODE:

;INTERRUPT VECTORS
	JMP  __RESET
	JMP  _ext_int0_isr
	JMP  0x00
	JMP  0x00
	JMP  0x00
	JMP  0x00
	JMP  0x00
	JMP  0x00
	JMP  0x00
	JMP  _timer_comp_isr
	JMP  0x00
	JMP  0x00
	JMP  0x00
	JMP  0x00
	JMP  0x00
	JMP  0x00
	JMP  0x00
	JMP  0x00
	JMP  0x00
	JMP  _twi_int_handler
	JMP  0x00

_Font11x18:
	.DB  0x0,0x0,0x0,0x0,0x0,0x0,0x0,0x0
	.DB  0x0,0x0,0x0,0x0,0x0,0x0,0x0,0x0
	.DB  0x0,0x0,0x0,0x0,0x0,0x0,0x0,0x0
	.DB  0x0,0x0,0x0,0x0,0x0,0x0,0x0,0x0
	.DB  0x0,0x0,0x0,0x0,0x0,0x0,0x0,0xC
	.DB  0x0,0xC,0x0,0xC,0x0,0xC,0x0,0xC
	.DB  0x0,0xC,0x0,0xC,0x0,0xC,0x0,0xC
	.DB  0x0,0xC,0x0,0xC,0x0,0x0,0x0,0xC
	.DB  0x0,0xC,0x0,0x0,0x0,0x0,0x0,0x0
	.DB  0x0,0x0,0x0,0x1B,0x0,0x1B,0x0,0x1B
	.DB  0x0,0x1B,0x0,0x1B,0x0,0x0,0x0,0x0
	.DB  0x0,0x0,0x0,0x0,0x0,0x0,0x0,0x0
	.DB  0x0,0x0,0x0,0x0,0x0,0x0,0x0,0x0
	.DB  0x0,0x0,0x0,0x0,0x0,0x0,0x80,0x19
	.DB  0x80,0x19,0x80,0x19,0x80,0x19,0xC0,0x7F
	.DB  0xC0,0x7F,0x80,0x19,0x0,0x33,0xC0,0x7F
	.DB  0xC0,0x7F,0x0,0x33,0x0,0x33,0x0,0x33
	.DB  0x0,0x33,0x0,0x0,0x0,0x0,0x0,0x0
	.DB  0x0,0x0,0x0,0x1E,0x0,0x3F,0x80,0x75
	.DB  0x80,0x65,0x0,0x74,0x0,0x3C,0x0,0x1E
	.DB  0x0,0x7,0x80,0x5,0x80,0x65,0x80,0x65
	.DB  0x80,0x75,0x0,0x3F,0x0,0x1E,0x0,0x4
	.DB  0x0,0x4,0x0,0x0,0x0,0x0,0x0,0x70
	.DB  0x0,0xD8,0x40,0xD8,0xC0,0xD8,0x80,0xD9
	.DB  0x0,0x73,0x0,0x6,0x0,0xC,0x80,0x1B
	.DB  0xC0,0x36,0xC0,0x66,0xC0,0x46,0xC0,0x6
	.DB  0x80,0x3,0x0,0x0,0x0,0x0,0x0,0x0
	.DB  0x0,0x0,0x0,0x1E,0x0,0x3F,0x0,0x33
	.DB  0x0,0x33,0x0,0x33,0x0,0x1E,0x0,0xC
	.DB  0xC0,0x3C,0xC0,0x66,0x80,0x63,0x80,0x61
	.DB  0x80,0x63,0xC0,0x3E,0x80,0x1C,0x0,0x0
	.DB  0x0,0x0,0x0,0x0,0x0,0x0,0x0,0xC
	.DB  0x0,0xC,0x0,0xC,0x0,0xC,0x0,0xC
	.DB  0x0,0x0,0x0,0x0,0x0,0x0,0x0,0x0
	.DB  0x0,0x0,0x0,0x0,0x0,0x0,0x0,0x0
	.DB  0x0,0x0,0x0,0x0,0x0,0x0,0x0,0x0
	.DB  0x80,0x0,0x0,0x1,0x0,0x3,0x0,0x6
	.DB  0x0,0x6,0x0,0x4,0x0,0xC,0x0,0xC
	.DB  0x0,0xC,0x0,0xC,0x0,0xC,0x0,0xC
	.DB  0x0,0x4,0x0,0x6,0x0,0x6,0x0,0x3
	.DB  0x0,0x1,0x80,0x0,0x0,0x20,0x0,0x10
	.DB  0x0,0x18,0x0,0xC,0x0,0xC,0x0,0x4
	.DB  0x0,0x6,0x0,0x6,0x0,0x6,0x0,0x6
	.DB  0x0,0x6,0x0,0x6,0x0,0x4,0x0,0xC
	.DB  0x0,0xC,0x0,0x18,0x0,0x10,0x0,0x20
	.DB  0x0,0x0,0x0,0xC,0x0,0x2D,0x0,0x3F
	.DB  0x0,0x1E,0x0,0x33,0x0,0x0,0x0,0x0
	.DB  0x0,0x0,0x0,0x0,0x0,0x0,0x0,0x0
	.DB  0x0,0x0,0x0,0x0,0x0,0x0,0x0,0x0
	.DB  0x0,0x0,0x0,0x0,0x0,0x0,0x0,0x0
	.DB  0x0,0x0,0x0,0xC,0x0,0xC,0x0,0xC
	.DB  0x0,0xC,0xC0,0xFF,0xC0,0xFF,0x0,0xC
	.DB  0x0,0xC,0x0,0xC,0x0,0xC,0x0,0x0
	.DB  0x0,0x0,0x0,0x0,0x0,0x0,0x0,0x0
	.DB  0x0,0x0,0x0,0x0,0x0,0x0,0x0,0x0
	.DB  0x0,0x0,0x0,0x0,0x0,0x0,0x0,0x0
	.DB  0x0,0x0,0x0,0x0,0x0,0x0,0x0,0x0
	.DB  0x0,0x0,0x0,0xC,0x0,0xC,0x0,0x4
	.DB  0x0,0x4,0x0,0x8,0x0,0x0,0x0,0x0
	.DB  0x0,0x0,0x0,0x0,0x0,0x0,0x0,0x0
	.DB  0x0,0x0,0x0,0x0,0x0,0x0,0x0,0x1E
	.DB  0x0,0x1E,0x0,0x0,0x0,0x0,0x0,0x0
	.DB  0x0,0x0,0x0,0x0,0x0,0x0,0x0,0x0
	.DB  0x0,0x0,0x0,0x0,0x0,0x0,0x0,0x0
	.DB  0x0,0x0,0x0,0x0,0x0,0x0,0x0,0x0
	.DB  0x0,0x0,0x0,0x0,0x0,0x0,0x0,0x0
	.DB  0x0,0x0,0x0,0xC,0x0,0xC,0x0,0x0
	.DB  0x0,0x0,0x0,0x0,0x0,0x0,0x0,0x3
	.DB  0x0,0x3,0x0,0x3,0x0,0x6,0x0,0x6
	.DB  0x0,0x6,0x0,0x6,0x0,0xC,0x0,0xC
	.DB  0x0,0xC,0x0,0xC,0x0,0x18,0x0,0x18
	.DB  0x0,0x18,0x0,0x0,0x0,0x0,0x0,0x0
	.DB  0x0,0x0,0x0,0x1E,0x0,0x3F,0x0,0x33
	.DB  0x80,0x61,0x80,0x61,0x80,0x61,0x80,0x6D
	.DB  0x80,0x6D,0x80,0x61,0x80,0x61,0x80,0x61
	.DB  0x0,0x33,0x0,0x3F,0x0,0x1E,0x0,0x0
	.DB  0x0,0x0,0x0,0x0,0x0,0x0,0x0,0x6
	.DB  0x0,0xE,0x0,0x1E,0x0,0x36,0x0,0x26
	.DB  0x0,0x6,0x0,0x6,0x0,0x6,0x0,0x6
	.DB  0x0,0x6,0x0,0x6,0x0,0x6,0x0,0x6
	.DB  0x0,0x6,0x0,0x0,0x0,0x0,0x0,0x0
	.DB  0x0,0x0,0x0,0x1E,0x0,0x3F,0x80,0x73
	.DB  0x80,0x61,0x80,0x61,0x80,0x1,0x0,0x3
	.DB  0x0,0x6,0x0,0xC,0x0,0x18,0x0,0x30
	.DB  0x0,0x60,0x80,0x7F,0x80,0x7F,0x0,0x0
	.DB  0x0,0x0,0x0,0x0,0x0,0x0,0x0,0x1C
	.DB  0x0,0x3E,0x0,0x63,0x0,0x63,0x0,0x3
	.DB  0x0,0xE,0x0,0xE,0x0,0x3,0x80,0x1
	.DB  0x80,0x1,0x80,0x61,0x80,0x73,0x0,0x3F
	.DB  0x0,0x1E,0x0,0x0,0x0,0x0,0x0,0x0
	.DB  0x0,0x0,0x0,0x6,0x0,0xE,0x0,0xE
	.DB  0x0,0x1E,0x0,0x1E,0x0,0x16,0x0,0x36
	.DB  0x0,0x36,0x0,0x66,0x80,0x7F,0x80,0x7F
	.DB  0x0,0x6,0x0,0x6,0x0,0x6,0x0,0x0
	.DB  0x0,0x0,0x0,0x0,0x0,0x0,0x0,0x7F
	.DB  0x0,0x7F,0x0,0x60,0x0,0x60,0x0,0x60
	.DB  0x0,0x6E,0x0,0x7F,0x80,0x63,0x80,0x1
	.DB  0x80,0x1,0x80,0x61,0x80,0x73,0x0,0x3F
	.DB  0x0,0x1E,0x0,0x0,0x0,0x0,0x0,0x0
	.DB  0x0,0x0,0x0,0x1E,0x0,0x3F,0x80,0x33
	.DB  0x80,0x61,0x0,0x60,0x0,0x6E,0x0,0x7F
	.DB  0x80,0x73,0x80,0x61,0x80,0x61,0x80,0x61
	.DB  0x80,0x33,0x0,0x3F,0x0,0x1E,0x0,0x0
	.DB  0x0,0x0,0x0,0x0,0x0,0x0,0x80,0x7F
	.DB  0x80,0x7F,0x80,0x1,0x0,0x3,0x0,0x3
	.DB  0x0,0x6,0x0,0x6,0x0,0xC,0x0,0xC
	.DB  0x0,0xC,0x0,0x8,0x0,0x18,0x0,0x18
	.DB  0x0,0x18,0x0,0x0,0x0,0x0,0x0,0x0
	.DB  0x0,0x0,0x0,0x1E,0x0,0x3F,0x80,0x63
	.DB  0x80,0x61,0x80,0x61,0x0,0x21,0x0,0x1E
	.DB  0x0,0x3F,0x80,0x61,0x80,0x61,0x80,0x61
	.DB  0x80,0x61,0x0,0x3F,0x0,0x1E,0x0,0x0
	.DB  0x0,0x0,0x0,0x0,0x0,0x0,0x0,0x1E
	.DB  0x0,0x3F,0x0,0x73,0x80,0x61,0x80,0x61
	.DB  0x80,0x61,0x80,0x73,0x80,0x3F,0x80,0x1D
	.DB  0x80,0x1,0x80,0x61,0x0,0x73,0x0,0x3F
	.DB  0x0,0x1E,0x0,0x0,0x0,0x0,0x0,0x0
	.DB  0x0,0x0,0x0,0x0,0x0,0x0,0x0,0x0
	.DB  0x0,0x0,0x0,0xC,0x0,0xC,0x0,0x0
	.DB  0x0,0x0,0x0,0x0,0x0,0x0,0x0,0x0
	.DB  0x0,0x0,0x0,0xC,0x0,0xC,0x0,0x0
	.DB  0x0,0x0,0x0,0x0,0x0,0x0,0x0,0x0
	.DB  0x0,0x0,0x0,0x0,0x0,0x0,0x0,0x0
	.DB  0x0,0xC,0x0,0xC,0x0,0x0,0x0,0x0
	.DB  0x0,0x0,0x0,0x0,0x0,0x0,0x0,0xC
	.DB  0x0,0xC,0x0,0x4,0x0,0x4,0x0,0x8
	.DB  0x0,0x0,0x0,0x0,0x0,0x0,0x0,0x0
	.DB  0x80,0x0,0x80,0x3,0x0,0xE,0x0,0x38
	.DB  0x0,0x60,0x0,0x38,0x0,0xE,0x80,0x3
	.DB  0x80,0x0,0x0,0x0,0x0,0x0,0x0,0x0
	.DB  0x0,0x0,0x0,0x0,0x0,0x0,0x0,0x0
	.DB  0x0,0x0,0x0,0x0,0x0,0x0,0x80,0x7F
	.DB  0x80,0x7F,0x0,0x0,0x0,0x0,0x80,0x7F
	.DB  0x80,0x7F,0x0,0x0,0x0,0x0,0x0,0x0
	.DB  0x0,0x0,0x0,0x0,0x0,0x0,0x0,0x0
	.DB  0x0,0x0,0x0,0x0,0x0,0x0,0x0,0x0
	.DB  0x0,0x40,0x0,0x70,0x0,0x1C,0x0,0x7
	.DB  0x80,0x1,0x0,0x7,0x0,0x1C,0x0,0x70
	.DB  0x0,0x40,0x0,0x0,0x0,0x0,0x0,0x0
	.DB  0x0,0x0,0x0,0x0,0x0,0x0,0x0,0x1F
	.DB  0x80,0x3F,0xC0,0x71,0xC0,0x60,0xC0,0x0
	.DB  0xC0,0x1,0x80,0x3,0x0,0x7,0x0,0xE
	.DB  0x0,0xC,0x0,0xC,0x0,0x0,0x0,0xC
	.DB  0x0,0xC,0x0,0x0,0x0,0x0,0x0,0x0
	.DB  0x0,0x0,0x0,0x1E,0x0,0x3F,0x80,0x31
	.DB  0x80,0x71,0x80,0x63,0x80,0x6F,0x80,0x6D
	.DB  0x80,0x6D,0x80,0x6F,0x80,0x67,0x0,0x60
	.DB  0x0,0x32,0x0,0x3E,0x0,0x1C,0x0,0x0
	.DB  0x0,0x0,0x0,0x0,0x0,0x0,0x0,0xE
	.DB  0x0,0xE,0x0,0x1B,0x0,0x1B,0x0,0x1B
	.DB  0x0,0x1B,0x80,0x31,0x80,0x31,0x80,0x3F
	.DB  0x80,0x3F,0x80,0x31,0xC0,0x60,0xC0,0x60
	.DB  0xC0,0x60,0x0,0x0,0x0,0x0,0x0,0x0
	.DB  0x0,0x0,0x0,0x7C,0x0,0x7E,0x0,0x63
	.DB  0x0,0x63,0x0,0x63,0x0,0x63,0x0,0x7E
	.DB  0x0,0x7E,0x0,0x63,0x80,0x61,0x80,0x61
	.DB  0x80,0x63,0x0,0x7F,0x0,0x7E,0x0,0x0
	.DB  0x0,0x0,0x0,0x0,0x0,0x0,0x0,0x1E
	.DB  0x0,0x3F,0x80,0x31,0x80,0x61,0x0,0x60
	.DB  0x0,0x60,0x0,0x60,0x0,0x60,0x0,0x60
	.DB  0x0,0x60,0x80,0x61,0x80,0x31,0x0,0x3F
	.DB  0x0,0x1E,0x0,0x0,0x0,0x0,0x0,0x0
	.DB  0x0,0x0,0x0,0x7C,0x0,0x7F,0x0,0x63
	.DB  0x80,0x63,0x80,0x61,0x80,0x61,0x80,0x61
	.DB  0x80,0x61,0x80,0x61,0x80,0x61,0x0,0x63
	.DB  0x0,0x63,0x0,0x7E,0x0,0x7C,0x0,0x0
	.DB  0x0,0x0,0x0,0x0,0x0,0x0,0x80,0x7F
	.DB  0x80,0x7F,0x0,0x60,0x0,0x60,0x0,0x60
	.DB  0x0,0x60,0x0,0x7F,0x0,0x7F,0x0,0x60
	.DB  0x0,0x60,0x0,0x60,0x0,0x60,0x80,0x7F
	.DB  0x80,0x7F,0x0,0x0,0x0,0x0,0x0,0x0
	.DB  0x0,0x0,0x80,0x7F,0x80,0x7F,0x0,0x60
	.DB  0x0,0x60,0x0,0x60,0x0,0x60,0x0,0x7F
	.DB  0x0,0x7F,0x0,0x60,0x0,0x60,0x0,0x60
	.DB  0x0,0x60,0x0,0x60,0x0,0x60,0x0,0x0
	.DB  0x0,0x0,0x0,0x0,0x0,0x0,0x0,0x1E
	.DB  0x0,0x3F,0x80,0x31,0x80,0x61,0x0,0x60
	.DB  0x0,0x60,0x0,0x60,0x80,0x63,0x80,0x63
	.DB  0x80,0x61,0x80,0x61,0x80,0x31,0x80,0x3F
	.DB  0x0,0x1E,0x0,0x0,0x0,0x0,0x0,0x0
	.DB  0x0,0x0,0x80,0x61,0x80,0x61,0x80,0x61
	.DB  0x80,0x61,0x80,0x61,0x80,0x61,0x80,0x7F
	.DB  0x80,0x7F,0x80,0x61,0x80,0x61,0x80,0x61
	.DB  0x80,0x61,0x80,0x61,0x80,0x61,0x0,0x0
	.DB  0x0,0x0,0x0,0x0,0x0,0x0,0x0,0x3F
	.DB  0x0,0x3F,0x0,0xC,0x0,0xC,0x0,0xC
	.DB  0x0,0xC,0x0,0xC,0x0,0xC,0x0,0xC
	.DB  0x0,0xC,0x0,0xC,0x0,0xC,0x0,0x3F
	.DB  0x0,0x3F,0x0,0x0,0x0,0x0,0x0,0x0
	.DB  0x0,0x0,0x80,0x1,0x80,0x1,0x80,0x1
	.DB  0x80,0x1,0x80,0x1,0x80,0x1,0x80,0x1
	.DB  0x80,0x1,0x80,0x1,0x80,0x61,0x80,0x61
	.DB  0x80,0x73,0x0,0x3F,0x0,0x1E,0x0,0x0
	.DB  0x0,0x0,0x0,0x0,0x0,0x0,0xC0,0x60
	.DB  0x80,0x61,0x0,0x63,0x0,0x66,0x0,0x66
	.DB  0x0,0x6C,0x0,0x78,0x0,0x7C,0x0,0x66
	.DB  0x0,0x66,0x0,0x63,0x80,0x61,0x80,0x61
	.DB  0xC0,0x60,0x0,0x0,0x0,0x0,0x0,0x0
	.DB  0x0,0x0,0x0,0x60,0x0,0x60,0x0,0x60
	.DB  0x0,0x60,0x0,0x60,0x0,0x60,0x0,0x60
	.DB  0x0,0x60,0x0,0x60,0x0,0x60,0x0,0x60
	.DB  0x0,0x60,0x80,0x7F,0x80,0x7F,0x0,0x0
	.DB  0x0,0x0,0x0,0x0,0x0,0x0,0xC0,0x71
	.DB  0xC0,0x71,0xC0,0x7B,0xC0,0x7A,0xC0,0x6A
	.DB  0xC0,0x6A,0xC0,0x6E,0xC0,0x64,0xC0,0x60
	.DB  0xC0,0x60,0xC0,0x60,0xC0,0x60,0xC0,0x60
	.DB  0xC0,0x60,0x0,0x0,0x0,0x0,0x0,0x0
	.DB  0x0,0x0,0x80,0x71,0x80,0x71,0x80,0x79
	.DB  0x80,0x79,0x80,0x79,0x80,0x6D,0x80,0x6D
	.DB  0x80,0x6D,0x80,0x65,0x80,0x67,0x80,0x67
	.DB  0x80,0x67,0x80,0x63,0x80,0x63,0x0,0x0
	.DB  0x0,0x0,0x0,0x0,0x0,0x0,0x0,0x1E
	.DB  0x0,0x3F,0x0,0x33,0x80,0x61,0x80,0x61
	.DB  0x80,0x61,0x80,0x61,0x80,0x61,0x80,0x61
	.DB  0x80,0x61,0x80,0x61,0x0,0x33,0x0,0x3F
	.DB  0x0,0x1E,0x0,0x0,0x0,0x0,0x0,0x0
	.DB  0x0,0x0,0x0,0x7E,0x0,0x7F,0x80,0x63
	.DB  0x80,0x61,0x80,0x61,0x80,0x61,0x80,0x63
	.DB  0x0,0x7F,0x0,0x7E,0x0,0x60,0x0,0x60
	.DB  0x0,0x60,0x0,0x60,0x0,0x60,0x0,0x0
	.DB  0x0,0x0,0x0,0x0,0x0,0x0,0x0,0x1E
	.DB  0x0,0x3F,0x0,0x33,0x80,0x61,0x80,0x61
	.DB  0x80,0x61,0x80,0x61,0x80,0x61,0x80,0x61
	.DB  0x80,0x65,0x80,0x67,0x0,0x33,0x80,0x3F
	.DB  0x40,0x1E,0x0,0x0,0x0,0x0,0x0,0x0
	.DB  0x0,0x0,0x0,0x7E,0x0,0x7F,0x80,0x63
	.DB  0x80,0x61,0x80,0x61,0x80,0x63,0x0,0x7F
	.DB  0x0,0x7E,0x0,0x66,0x0,0x63,0x0,0x63
	.DB  0x80,0x61,0x80,0x61,0xC0,0x60,0x0,0x0
	.DB  0x0,0x0,0x0,0x0,0x0,0x0,0x0,0xE
	.DB  0x0,0x1F,0x80,0x31,0x80,0x31,0x0,0x30
	.DB  0x0,0x38,0x0,0x1E,0x0,0x7,0x80,0x3
	.DB  0x80,0x61,0x80,0x61,0x80,0x31,0x0,0x3F
	.DB  0x0,0x1E,0x0,0x0,0x0,0x0,0x0,0x0
	.DB  0x0,0x0,0xC0,0xFF,0xC0,0xFF,0x0,0xC
	.DB  0x0,0xC,0x0,0xC,0x0,0xC,0x0,0xC
	.DB  0x0,0xC,0x0,0xC,0x0,0xC,0x0,0xC
	.DB  0x0,0xC,0x0,0xC,0x0,0xC,0x0,0x0
	.DB  0x0,0x0,0x0,0x0,0x0,0x0,0x80,0x61
	.DB  0x80,0x61,0x80,0x61,0x80,0x61,0x80,0x61
	.DB  0x80,0x61,0x80,0x61,0x80,0x61,0x80,0x61
	.DB  0x80,0x61,0x80,0x61,0x80,0x73,0x0,0x3F
	.DB  0x0,0x1E,0x0,0x0,0x0,0x0,0x0,0x0
	.DB  0x0,0x0,0xC0,0x60,0xC0,0x60,0xC0,0x60
	.DB  0x80,0x31,0x80,0x31,0x80,0x31,0x0,0x1B
	.DB  0x0,0x1B,0x0,0x1B,0x0,0x1B,0x0,0xE
	.DB  0x0,0xE,0x0,0xE,0x0,0x4,0x0,0x0
	.DB  0x0,0x0,0x0,0x0,0x0,0x0,0xC0,0xC0
	.DB  0xC0,0xC0,0xC0,0xC0,0xC0,0xC0,0xC0,0xC0
	.DB  0xC0,0xCC,0x80,0x4C,0x80,0x4C,0x80,0x5E
	.DB  0x80,0x52,0x80,0x52,0x80,0x73,0x80,0x61
	.DB  0x80,0x61,0x0,0x0,0x0,0x0,0x0,0x0
	.DB  0x0,0x0,0xC0,0xC0,0x80,0x60,0x80,0x61
	.DB  0x0,0x33,0x0,0x3B,0x0,0x1E,0x0,0xC
	.DB  0x0,0xC,0x0,0x1E,0x0,0x1F,0x0,0x3B
	.DB  0x80,0x71,0x80,0x61,0xC0,0xC0,0x0,0x0
	.DB  0x0,0x0,0x0,0x0,0x0,0x0,0xC0,0xC0
	.DB  0x80,0x61,0x80,0x61,0x0,0x33,0x0,0x33
	.DB  0x0,0x1E,0x0,0x1E,0x0,0xC,0x0,0xC
	.DB  0x0,0xC,0x0,0xC,0x0,0xC,0x0,0xC
	.DB  0x0,0xC,0x0,0x0,0x0,0x0,0x0,0x0
	.DB  0x0,0x0,0x80,0x3F,0x80,0x3F,0x80,0x1
	.DB  0x0,0x3,0x0,0x3,0x0,0x6,0x0,0xC
	.DB  0x0,0xC,0x0,0x18,0x0,0x18,0x0,0x30
	.DB  0x0,0x60,0x80,0x7F,0x80,0x7F,0x0,0x0
	.DB  0x0,0x0,0x0,0x0,0x0,0xF,0x0,0xF
	.DB  0x0,0xC,0x0,0xC,0x0,0xC,0x0,0xC
	.DB  0x0,0xC,0x0,0xC,0x0,0xC,0x0,0xC
	.DB  0x0,0xC,0x0,0xC,0x0,0xC,0x0,0xC
	.DB  0x0,0xC,0x0,0xC,0x0,0xF,0x0,0xF
	.DB  0x0,0x0,0x0,0x18,0x0,0x18,0x0,0x18
	.DB  0x0,0xC,0x0,0xC,0x0,0xC,0x0,0xC
	.DB  0x0,0x6,0x0,0x6,0x0,0x6,0x0,0x6
	.DB  0x0,0x3,0x0,0x3,0x0,0x3,0x0,0x0
	.DB  0x0,0x0,0x0,0x0,0x0,0x1E,0x0,0x1E
	.DB  0x0,0x6,0x0,0x6,0x0,0x6,0x0,0x6
	.DB  0x0,0x6,0x0,0x6,0x0,0x6,0x0,0x6
	.DB  0x0,0x6,0x0,0x6,0x0,0x6,0x0,0x6
	.DB  0x0,0x6,0x0,0x6,0x0,0x1E,0x0,0x1E
	.DB  0x0,0x0,0x0,0xC,0x0,0xC,0x0,0x1E
	.DB  0x0,0x12,0x0,0x33,0x0,0x33,0x80,0x61
	.DB  0x80,0x61,0x0,0x0,0x0,0x0,0x0,0x0
	.DB  0x0,0x0,0x0,0x0,0x0,0x0,0x0,0x0
	.DB  0x0,0x0,0x0,0x0,0x0,0x0,0x0,0x0
	.DB  0x0,0x0,0x0,0x0,0x0,0x0,0x0,0x0
	.DB  0x0,0x0,0x0,0x0,0x0,0x0,0x0,0x0
	.DB  0x0,0x0,0x0,0x0,0x0,0x0,0x0,0x0
	.DB  0x0,0x0,0x0,0x0,0xE0,0xFF,0x0,0x0
	.DB  0x0,0x0,0x0,0x38,0x0,0x18,0x0,0xC
	.DB  0x0,0x0,0x0,0x0,0x0,0x0,0x0,0x0
	.DB  0x0,0x0,0x0,0x0,0x0,0x0,0x0,0x0
	.DB  0x0,0x0,0x0,0x0,0x0,0x0,0x0,0x0
	.DB  0x0,0x0,0x0,0x0,0x0,0x0,0x0,0x0
	.DB  0x0,0x0,0x0,0x0,0x0,0x0,0x0,0x1F
	.DB  0x80,0x3F,0x80,0x61,0x80,0x1,0x80,0x1F
	.DB  0x80,0x3F,0x80,0x61,0x80,0x63,0x80,0x7F
	.DB  0xC0,0x38,0x0,0x0,0x0,0x0,0x0,0x0
	.DB  0x0,0x0,0x0,0x60,0x0,0x60,0x0,0x60
	.DB  0x0,0x60,0x0,0x6E,0x0,0x7F,0x80,0x73
	.DB  0x80,0x61,0x80,0x61,0x80,0x61,0x80,0x61
	.DB  0x80,0x73,0x0,0x7F,0x0,0x6E,0x0,0x0
	.DB  0x0,0x0,0x0,0x0,0x0,0x0,0x0,0x0
	.DB  0x0,0x0,0x0,0x0,0x0,0x0,0x0,0x1E
	.DB  0x0,0x3F,0x80,0x73,0x80,0x61,0x0,0x60
	.DB  0x0,0x60,0x80,0x61,0x80,0x73,0x0,0x3F
	.DB  0x0,0x1E,0x0,0x0,0x0,0x0,0x0,0x0
	.DB  0x0,0x0,0x80,0x1,0x80,0x1,0x80,0x1
	.DB  0x80,0x1,0x80,0x1D,0x80,0x3F,0x80,0x73
	.DB  0x80,0x61,0x80,0x61,0x80,0x61,0x80,0x61
	.DB  0x80,0x73,0x80,0x3F,0x80,0x1D,0x0,0x0
	.DB  0x0,0x0,0x0,0x0,0x0,0x0,0x0,0x0
	.DB  0x0,0x0,0x0,0x0,0x0,0x0,0x0,0x1E
	.DB  0x0,0x3F,0x0,0x73,0x80,0x61,0x80,0x7F
	.DB  0x80,0x7F,0x0,0x60,0x80,0x71,0x0,0x3F
	.DB  0x0,0x1E,0x0,0x0,0x0,0x0,0x0,0x0
	.DB  0x0,0x0,0xC0,0x7,0xC0,0xF,0x0,0xC
	.DB  0x0,0xC,0x80,0x7F,0x80,0x7F,0x0,0xC
	.DB  0x0,0xC,0x0,0xC,0x0,0xC,0x0,0xC
	.DB  0x0,0xC,0x0,0xC,0x0,0xC,0x0,0x0
	.DB  0x0,0x0,0x0,0x0,0x0,0x0,0x0,0x0
	.DB  0x0,0x0,0x0,0x0,0x80,0x1D,0x80,0x3F
	.DB  0x80,0x73,0x80,0x61,0x80,0x61,0x80,0x61
	.DB  0x80,0x61,0x80,0x73,0x80,0x3F,0x80,0x1D
	.DB  0x80,0x1,0x80,0x63,0x0,0x7F,0x0,0x3E
	.DB  0x0,0x0,0x0,0x60,0x0,0x60,0x0,0x60
	.DB  0x0,0x60,0x0,0x6F,0x80,0x7F,0x80,0x71
	.DB  0x80,0x61,0x80,0x61,0x80,0x61,0x80,0x61
	.DB  0x80,0x61,0x80,0x61,0x80,0x61,0x0,0x0
	.DB  0x0,0x0,0x0,0x0,0x0,0x0,0x0,0x6
	.DB  0x0,0x6,0x0,0x0,0x0,0x0,0x0,0x3E
	.DB  0x0,0x3E,0x0,0x6,0x0,0x6,0x0,0x6
	.DB  0x0,0x6,0x0,0x6,0x0,0x6,0x0,0x6
	.DB  0x0,0x6,0x0,0x0,0x0,0x0,0x0,0x0
	.DB  0x0,0x6,0x0,0x6,0x0,0x0,0x0,0x0
	.DB  0x0,0x3E,0x0,0x3E,0x0,0x6,0x0,0x6
	.DB  0x0,0x6,0x0,0x6,0x0,0x6,0x0,0x6
	.DB  0x0,0x6,0x0,0x6,0x0,0x6,0x0,0x46
	.DB  0x0,0x7E,0x0,0x3C,0x0,0x0,0x0,0x60
	.DB  0x0,0x60,0x0,0x60,0x0,0x60,0x80,0x61
	.DB  0x0,0x63,0x0,0x66,0x0,0x6C,0x0,0x7C
	.DB  0x0,0x76,0x0,0x63,0x0,0x63,0x80,0x61
	.DB  0xC0,0x60,0x0,0x0,0x0,0x0,0x0,0x0
	.DB  0x0,0x0,0x0,0x3E,0x0,0x3E,0x0,0x6
	.DB  0x0,0x6,0x0,0x6,0x0,0x6,0x0,0x6
	.DB  0x0,0x6,0x0,0x6,0x0,0x6,0x0,0x6
	.DB  0x0,0x6,0x0,0x6,0x0,0x6,0x0,0x0
	.DB  0x0,0x0,0x0,0x0,0x0,0x0,0x0,0x0
	.DB  0x0,0x0,0x0,0x0,0x0,0x0,0x80,0xDD
	.DB  0xC0,0xFF,0xC0,0xCE,0xC0,0xCC,0xC0,0xCC
	.DB  0xC0,0xCC,0xC0,0xCC,0xC0,0xCC,0xC0,0xCC
	.DB  0xC0,0xCC,0x0,0x0,0x0,0x0,0x0,0x0
	.DB  0x0,0x0,0x0,0x0,0x0,0x0,0x0,0x0
	.DB  0x0,0x0,0x0,0x6F,0x80,0x7F,0x80,0x71
	.DB  0x80,0x61,0x80,0x61,0x80,0x61,0x80,0x61
	.DB  0x80,0x61,0x80,0x61,0x80,0x61,0x0,0x0
	.DB  0x0,0x0,0x0,0x0,0x0,0x0,0x0,0x0
	.DB  0x0,0x0,0x0,0x0,0x0,0x0,0x0,0x1E
	.DB  0x0,0x3F,0x80,0x73,0x80,0x61,0x80,0x61
	.DB  0x80,0x61,0x80,0x61,0x80,0x73,0x0,0x3F
	.DB  0x0,0x1E,0x0,0x0,0x0,0x0,0x0,0x0
	.DB  0x0,0x0,0x0,0x0,0x0,0x0,0x0,0x0
	.DB  0x0,0x6E,0x0,0x7F,0x80,0x73,0x80,0x61
	.DB  0x80,0x61,0x80,0x61,0x80,0x61,0x80,0x73
	.DB  0x0,0x7F,0x0,0x6E,0x0,0x60,0x0,0x60
	.DB  0x0,0x60,0x0,0x60,0x0,0x0,0x0,0x0
	.DB  0x0,0x0,0x0,0x0,0x80,0x1D,0x80,0x3F
	.DB  0x80,0x73,0x80,0x61,0x80,0x61,0x80,0x61
	.DB  0x80,0x61,0x80,0x73,0x80,0x3F,0x80,0x1D
	.DB  0x80,0x1,0x80,0x1,0x80,0x1,0x80,0x1
	.DB  0x0,0x0,0x0,0x0,0x0,0x0,0x0,0x0
	.DB  0x0,0x0,0x0,0x67,0x80,0x3F,0x0,0x39
	.DB  0x0,0x30,0x0,0x30,0x0,0x30,0x0,0x30
	.DB  0x0,0x30,0x0,0x30,0x0,0x30,0x0,0x0
	.DB  0x0,0x0,0x0,0x0,0x0,0x0,0x0,0x0
	.DB  0x0,0x0,0x0,0x0,0x0,0x0,0x0,0x1E
	.DB  0x80,0x3F,0x80,0x61,0x0,0x60,0x0,0x7F
	.DB  0x80,0x3F,0x80,0x1,0x80,0x61,0x0,0x7F
	.DB  0x0,0x1E,0x0,0x0,0x0,0x0,0x0,0x0
	.DB  0x0,0x0,0x0,0x0,0x0,0x8,0x0,0x18
	.DB  0x0,0x18,0x0,0x7F,0x0,0x7F,0x0,0x18
	.DB  0x0,0x18,0x0,0x18,0x0,0x18,0x0,0x18
	.DB  0x0,0x18,0x80,0x1F,0x80,0xF,0x0,0x0
	.DB  0x0,0x0,0x0,0x0,0x0,0x0,0x0,0x0
	.DB  0x0,0x0,0x0,0x0,0x0,0x0,0x80,0x61
	.DB  0x80,0x61,0x80,0x61,0x80,0x61,0x80,0x61
	.DB  0x80,0x61,0x80,0x61,0x80,0x63,0x80,0x7F
	.DB  0x80,0x3D,0x0,0x0,0x0,0x0,0x0,0x0
	.DB  0x0,0x0,0x0,0x0,0x0,0x0,0x0,0x0
	.DB  0x0,0x0,0xC0,0x60,0x80,0x31,0x80,0x31
	.DB  0x80,0x31,0x0,0x1B,0x0,0x1B,0x0,0x1B
	.DB  0x0,0xE,0x0,0xE,0x0,0x6,0x0,0x0
	.DB  0x0,0x0,0x0,0x0,0x0,0x0,0x0,0x0
	.DB  0x0,0x0,0x0,0x0,0x0,0x0,0x80,0xDD
	.DB  0x80,0xDD,0x80,0xDD,0x0,0x55,0x0,0x55
	.DB  0x0,0x55,0x0,0x77,0x0,0x77,0x0,0x22
	.DB  0x0,0x22,0x0,0x0,0x0,0x0,0x0,0x0
	.DB  0x0,0x0,0x0,0x0,0x0,0x0,0x0,0x0
	.DB  0x0,0x0,0x80,0x61,0x0,0x33,0x0,0x33
	.DB  0x0,0x1E,0x0,0xC,0x0,0xC,0x0,0x1E
	.DB  0x0,0x33,0x0,0x33,0x80,0x61,0x0,0x0
	.DB  0x0,0x0,0x0,0x0,0x0,0x0,0x0,0x0
	.DB  0x0,0x0,0x0,0x0,0x80,0x61,0x80,0x61
	.DB  0x80,0x31,0x0,0x33,0x0,0x33,0x0,0x1B
	.DB  0x0,0x1B,0x0,0x1B,0x0,0xE,0x0,0xE
	.DB  0x0,0xE,0x0,0x1C,0x0,0x7C,0x0,0x70
	.DB  0x0,0x0,0x0,0x0,0x0,0x0,0x0,0x0
	.DB  0x0,0x0,0xC0,0x7F,0xC0,0x7F,0x80,0x1
	.DB  0x0,0x3,0x0,0x6,0x0,0xC,0x0,0x18
	.DB  0x0,0x30,0xC0,0x7F,0xC0,0x7F,0x0,0x0
	.DB  0x0,0x0,0x0,0x0,0x80,0x3,0x80,0x7
	.DB  0x0,0x6,0x0,0x6,0x0,0x6,0x0,0x6
	.DB  0x0,0x6,0x0,0xE,0x0,0x1C,0x0,0x1C
	.DB  0x0,0xE,0x0,0x6,0x0,0x6,0x0,0x6
	.DB  0x0,0x6,0x0,0x6,0x80,0x7,0x80,0x3
	.DB  0x0,0x6,0x0,0x6,0x0,0x6,0x0,0x6
	.DB  0x0,0x6,0x0,0x6,0x0,0x6,0x0,0x6
	.DB  0x0,0x6,0x0,0x6,0x0,0x6,0x0,0x6
	.DB  0x0,0x6,0x0,0x6,0x0,0x6,0x0,0x6
	.DB  0x0,0x6,0x0,0x6,0x0,0x38,0x0,0x3C
	.DB  0x0,0xC,0x0,0xC,0x0,0xC,0x0,0xC
	.DB  0x0,0xC,0x0,0xE,0x0,0x7,0x0,0x7
	.DB  0x0,0xE,0x0,0xC,0x0,0xC,0x0,0xC
	.DB  0x0,0xC,0x0,0xC,0x0,0x3C,0x0,0x38
	.DB  0x0,0x0,0x0,0x0,0x0,0x0,0x0,0x0
	.DB  0x0,0x0,0x0,0x0,0x0,0x0,0x80,0x38
	.DB  0x80,0x7F,0x0,0x47,0x0,0x0,0x0,0x0
	.DB  0x0,0x0,0x0,0x0,0x0,0x0,0x0,0x0
	.DB  0x0,0x0,0x0,0x0,0x0,0x0,0x0,0xE
	.DB  0x0,0xE,0x0,0x1B,0x0,0x1B,0x0,0x1B
	.DB  0x0,0x1B,0x80,0x31,0x80,0x31,0x80,0x3F
	.DB  0x80,0x3F,0x80,0x31,0xC0,0x60,0xC0,0x60
	.DB  0xC0,0x60,0x0,0x0,0x0,0x0,0x0,0x0
	.DB  0x0,0x0,0x0,0x7F,0x0,0x7F,0x0,0x60
	.DB  0x0,0x60,0x0,0x60,0x0,0x60,0x0,0x7E
	.DB  0x0,0x7E,0x0,0x63,0x80,0x61,0x80,0x61
	.DB  0x80,0x63,0x0,0x7F,0x0,0x7C,0x0,0x0
	.DB  0x0,0x0,0x0,0x0,0x0,0x0,0x0,0x7C
	.DB  0x0,0x7E,0x0,0x63,0x0,0x63,0x0,0x63
	.DB  0x0,0x63,0x0,0x7E,0x0,0x7E,0x0,0x63
	.DB  0x80,0x61,0x80,0x61,0x80,0x63,0x0,0x7F
	.DB  0x0,0x7E,0x0,0x0,0x0,0x0,0x0,0x0
	.DB  0x0,0x0,0x0,0x7F,0x0,0x7F,0x0,0x60
	.DB  0x0,0x60,0x0,0x60,0x0,0x60,0x0,0x60
	.DB  0x0,0x60,0x0,0x60,0x0,0x60,0x0,0x60
	.DB  0x0,0x60,0x0,0x60,0x0,0x60,0x0,0x0
	.DB  0x0,0x0,0x0,0x0,0x0,0x0,0x80,0x3F
	.DB  0x80,0x3F,0x80,0x31,0x80,0x31,0x80,0x31
	.DB  0x80,0x31,0x80,0x31,0x80,0x31,0x80,0x31
	.DB  0x80,0x31,0x80,0x31,0x80,0x31,0xE0,0xFF
	.DB  0xE0,0xFF,0x60,0xC0,0x0,0x0,0x0,0x0
	.DB  0x0,0x0,0x80,0x7F,0x80,0x7F,0x0,0x60
	.DB  0x0,0x60,0x0,0x60,0x0,0x60,0x0,0x7F
	.DB  0x0,0x7F,0x0,0x60,0x0,0x60,0x0,0x60
	.DB  0x0,0x60,0x80,0x7F,0x80,0x7F,0x0,0x0
	.DB  0x0,0x0,0x0,0x0,0x0,0x0,0x60,0xC4
	.DB  0xC0,0x64,0xC0,0x64,0x80,0x35,0x80,0x35
	.DB  0x0,0x1F,0x0,0x1F,0x0,0x1F,0x0,0x1F
	.DB  0x80,0x35,0x80,0x35,0xC0,0x64,0xC0,0x64
	.DB  0x60,0xC4,0x0,0x0,0x0,0x0,0x0,0x0
	.DB  0x0,0x0,0x0,0x3C,0x0,0x7E,0x0,0x3
	.DB  0x0,0x3,0x0,0x3,0x0,0x3,0x0,0x7E
	.DB  0x0,0x7E,0x0,0x3,0x80,0x1,0x80,0x1
	.DB  0x80,0x3,0x0,0x7F,0x0,0x3E,0x0,0x0
	.DB  0x0,0x0,0x0,0x0,0x0,0x0,0x80,0x61
	.DB  0x80,0x61,0x80,0x61,0x80,0x61,0x80,0x63
	.DB  0x80,0x67,0x80,0x6F,0x80,0x7D,0x80,0x79
	.DB  0x80,0x71,0x80,0x61,0x80,0x61,0x80,0x61
	.DB  0x80,0x61,0x0,0x0,0x0,0x0,0x0,0x0
	.DB  0x0,0xC,0x80,0x6D,0x80,0x61,0x80,0x61
	.DB  0x80,0x61,0x80,0x63,0x80,0x67,0x80,0x6F
	.DB  0x80,0x7D,0x80,0x79,0x80,0x71,0x80,0x61
	.DB  0x80,0x61,0x80,0x61,0x80,0x61,0x0,0x0
	.DB  0x0,0x0,0x0,0x0,0x0,0x0,0xC0,0x60
	.DB  0x80,0x61,0x0,0x63,0x0,0x66,0x0,0x66
	.DB  0x0,0x6C,0x0,0x78,0x0,0x7C,0x0,0x66
	.DB  0x0,0x66,0x0,0x63,0x80,0x61,0x80,0x61
	.DB  0xC0,0x60,0x0,0x0,0x0,0x0,0x0,0x0
	.DB  0x0,0x0,0xC0,0x3F,0xC0,0x3F,0xC0,0x30
	.DB  0xC0,0x30,0xC0,0x30,0xC0,0x30,0xC0,0x30
	.DB  0xC0,0x30,0xC0,0x30,0xC0,0x30,0xC0,0x30
	.DB  0xC0,0x30,0xC0,0xF0,0xC0,0xF0,0x0,0x0
	.DB  0x0,0x0,0x0,0x0,0x0,0x0,0xC0,0x71
	.DB  0xC0,0x71,0xC0,0x7B,0xC0,0x7A,0xC0,0x6A
	.DB  0xC0,0x6A,0xC0,0x6E,0xC0,0x64,0xC0,0x60
	.DB  0xC0,0x60,0xC0,0x60,0xC0,0x60,0xC0,0x60
	.DB  0xC0,0x60,0x0,0x0,0x0,0x0,0x0,0x0
	.DB  0x0,0x0,0x80,0x61,0x80,0x61,0x80,0x61
	.DB  0x80,0x61,0x80,0x61,0x80,0x61,0x80,0x7F
	.DB  0x80,0x7F,0x80,0x61,0x80,0x61,0x80,0x61
	.DB  0x80,0x61,0x80,0x61,0x80,0x61,0x0,0x0
	.DB  0x0,0x0,0x0,0x0,0x0,0x0,0x0,0x1E
	.DB  0x0,0x3F,0x0,0x33,0x80,0x61,0x80,0x61
	.DB  0x80,0x61,0x80,0x61,0x80,0x61,0x80,0x61
	.DB  0x80,0x61,0x80,0x61,0x0,0x33,0x0,0x3F
	.DB  0x0,0x1E,0x0,0x0,0x0,0x0,0x0,0x0
	.DB  0x0,0x0,0xC0,0x7F,0xC0,0x7F,0xC0,0x60
	.DB  0xC0,0x60,0xC0,0x60,0xC0,0x60,0xC0,0x60
	.DB  0xC0,0x60,0xC0,0x60,0xC0,0x60,0xC0,0x60
	.DB  0xC0,0x60,0xC0,0x60,0xC0,0x60,0x0,0x0
	.DB  0x0,0x0,0x0,0x0,0x0,0x0,0x0,0x7E
	.DB  0x0,0x7F,0x80,0x63,0x80,0x61,0x80,0x61
	.DB  0x80,0x61,0x80,0x63,0x0,0x7F,0x0,0x7E
	.DB  0x0,0x60,0x0,0x60,0x0,0x60,0x0,0x60
	.DB  0x0,0x60,0x0,0x0,0x0,0x0,0x0,0x0
	.DB  0x0,0x0,0x0,0x1E,0x0,0x3F,0x80,0x31
	.DB  0x80,0x61,0x0,0x60,0x0,0x60,0x0,0x60
	.DB  0x0,0x60,0x0,0x60,0x0,0x60,0x80,0x61
	.DB  0x80,0x31,0x0,0x3F,0x0,0x1E,0x0,0x0
	.DB  0x0,0x0,0x0,0x0,0x0,0x0,0xC0,0xFF
	.DB  0xC0,0xFF,0x0,0xC,0x0,0xC,0x0,0xC
	.DB  0x0,0xC,0x0,0xC,0x0,0xC,0x0,0xC
	.DB  0x0,0xC,0x0,0xC,0x0,0xC,0x0,0xC
	.DB  0x0,0xC,0x0,0x0,0x0,0x0,0x0,0x0
	.DB  0x0,0x0,0xC0,0xC0,0x80,0x61,0x80,0x61
	.DB  0x0,0x33,0x0,0x33,0x0,0x1F,0x0,0x1E
	.DB  0x0,0xE,0x0,0xE,0x0,0xC,0x0,0x1C
	.DB  0x0,0x38,0x0,0x70,0x0,0xE0,0x0,0x0
	.DB  0x0,0x0,0x0,0x0,0x0,0x0,0x0,0x4
	.DB  0x0,0x1F,0x80,0x35,0xC0,0x64,0xC0,0x64
	.DB  0x60,0xC4,0x60,0xC4,0xC0,0x64,0xC0,0x64
	.DB  0x80,0x35,0x0,0x1F,0x0,0x4,0x0,0x4
	.DB  0x0,0x4,0x0,0x0,0x0,0x0,0x0,0x0
	.DB  0x0,0x0,0xC0,0xC0,0x80,0x60,0x80,0x61
	.DB  0x0,0x33,0x0,0x3B,0x0,0x1E,0x0,0xC
	.DB  0x0,0xC,0x0,0x1E,0x0,0x1F,0x0,0x3B
	.DB  0x80,0x71,0x80,0x61,0xC0,0xC0,0x0,0x0
	.DB  0x0,0x0,0x0,0x0,0x0,0x0,0xC0,0x60
	.DB  0xC0,0x60,0xC0,0x60,0xC0,0x60,0xC0,0x60
	.DB  0xC0,0x60,0xC0,0x60,0xC0,0x60,0xC0,0x60
	.DB  0xC0,0x60,0xC0,0x60,0xC0,0x60,0xC0,0x7F
	.DB  0xC0,0x7F,0x60,0x0,0x60,0x0,0x0,0x0
	.DB  0x0,0x0,0x80,0x61,0x80,0x61,0x80,0x61
	.DB  0x80,0x61,0x80,0x61,0x80,0x61,0x80,0x7F
	.DB  0x80,0x3F,0x80,0x1,0x80,0x1,0x80,0x1
	.DB  0x80,0x1,0xC0,0x1,0xC0,0x1,0x0,0x0
	.DB  0x0,0x0,0x0,0x0,0x0,0x0,0xC0,0xCC
	.DB  0xC0,0xCC,0xC0,0xCC,0xC0,0xCC,0xC0,0xCC
	.DB  0xC0,0xCC,0xC0,0xCC,0xC0,0xCC,0xC0,0xCC
	.DB  0xC0,0xCC,0xC0,0xCC,0xC0,0xCC,0xC0,0xFF
	.DB  0xC0,0xFF,0x0,0x0,0x0,0x0,0x0,0x0
	.DB  0x0,0x0,0xC0,0xCC,0xC0,0xCC,0xC0,0xCC
	.DB  0xC0,0xCC,0xC0,0xCC,0xC0,0xCC,0xC0,0xCC
	.DB  0xC0,0xCC,0xC0,0xCC,0xC0,0xCC,0xC0,0xCC
	.DB  0xC0,0xCC,0xC0,0xFF,0xC0,0xFF,0x60,0x0
	.DB  0x60,0x0,0x0,0x0,0x0,0x0,0x0,0x3F
	.DB  0x0,0x3F,0x0,0xC,0x0,0xC,0x0,0xC
	.DB  0x0,0xC,0x0,0xC,0x0,0xC,0x0,0xC
	.DB  0x0,0xC,0x0,0xC,0x0,0xC,0x0,0x3F
	.DB  0x0,0x3F,0x0,0x0,0x0,0x0,0x0,0x0
	.DB  0x0,0x0,0x0,0x3F,0x0,0x3F,0x0,0xC
	.DB  0x0,0xC,0x0,0xC,0x0,0xC,0x0,0xC
	.DB  0x0,0xC,0x0,0xC,0x0,0xC,0x0,0xC
	.DB  0x0,0xC,0x0,0x3F,0x0,0x3F,0x0,0x0
	.DB  0x0,0x0,0x0,0x0,0x0,0x0,0x0,0x30
	.DB  0x0,0x30,0x0,0x30,0x0,0x30,0x0,0x3C
	.DB  0x0,0x3F,0x0,0x33,0x80,0x31,0xC0,0x30
	.DB  0xC0,0x30,0xC0,0x31,0x80,0x33,0x0,0x3F
	.DB  0x0,0x3E,0x0,0x0,0x0,0x0,0x0,0x0
	.DB  0x0,0x0,0x0,0x78,0x0,0x1E,0x0,0x7
	.DB  0x80,0x3,0x80,0x1,0x80,0x1,0x80,0x7F
	.DB  0x80,0x7F,0x80,0x1,0x80,0x1,0x80,0x3
	.DB  0x0,0x7,0x0,0x1E,0x0,0x78,0x0,0x0
	.DB  0x0,0x0,0x0,0x0,0x0,0x0,0x0,0xC7
	.DB  0x80,0xCD,0x80,0xCD,0xC0,0xD8,0xC0,0xD8
	.DB  0xC0,0xF0,0xC0,0xF0,0xC0,0xF0,0xC0,0xD8
	.DB  0xC0,0xD8,0xC0,0xCC,0x80,0xCD,0x80,0xCD
	.DB  0x0,0xC7,0x0,0x0,0x0,0x0,0x0,0x0
	.DB  0x0,0x0,0x80,0x1F,0x80,0x7F,0x80,0x61
	.DB  0x80,0xC1,0x80,0xC1,0x80,0xC1,0x80,0x61
	.DB  0x80,0x7F,0x80,0x1F,0x80,0xF,0x80,0x19
	.DB  0x80,0x31,0x80,0x61,0x80,0xC1,0x0,0x0
	.DB  0x0,0x0,0x0,0x0,0x0,0x0,0x0,0x0
	.DB  0x0,0x0,0x0,0x0,0x0,0x0,0x0,0x1F
	.DB  0x80,0x3F,0x80,0x61,0x80,0x1,0x80,0x1F
	.DB  0x80,0x3F,0x80,0x61,0x80,0x63,0x80,0x7F
	.DB  0xC0,0x38,0x0,0x0,0x0,0x0,0x0,0x0
	.DB  0x0,0x0,0x0,0x0,0x0,0x0,0x0,0x0
	.DB  0x0,0x1,0x0,0x3F,0x0,0x7F,0x0,0x60
	.DB  0x0,0x7E,0x0,0x7F,0x80,0x61,0x80,0x61
	.DB  0x80,0x61,0x0,0x7F,0x0,0x3E,0x0,0x0
	.DB  0x0,0x0,0x0,0x0,0x0,0x0,0x0,0x0
	.DB  0x0,0x0,0x0,0x0,0x0,0x0,0x0,0x3E
	.DB  0x0,0x7F,0x0,0x61,0x0,0x7E,0x0,0x7F
	.DB  0x80,0x61,0x80,0x61,0x80,0x61,0x0,0x7F
	.DB  0x0,0x3E,0x0,0x0,0x0,0x0,0x0,0x0
	.DB  0x0,0x0,0x0,0x0,0x0,0x0,0x0,0x0
	.DB  0x0,0x0,0x0,0x7F,0x0,0x7F,0x0,0x60
	.DB  0x0,0x60,0x0,0x60,0x0,0x60,0x0,0x60
	.DB  0x0,0x60,0x0,0x60,0x0,0x60,0x0,0x0
	.DB  0x0,0x0,0x0,0x0,0x0,0x0,0x0,0x0
	.DB  0x0,0x0,0x0,0x0,0x0,0x0,0x80,0x7F
	.DB  0x80,0x7F,0x80,0x61,0x80,0x61,0x80,0x61
	.DB  0x80,0x61,0x80,0x61,0x80,0x61,0x80,0x61
	.DB  0xC0,0xFF,0xC0,0xFF,0xC0,0xC0,0x0,0x0
	.DB  0x0,0x0,0x0,0x0,0x0,0x0,0x0,0x0
	.DB  0x0,0x0,0x0,0x1E,0x0,0x3F,0x0,0x73
	.DB  0x80,0x61,0x80,0x7F,0x80,0x7F,0x0,0x60
	.DB  0x80,0x71,0x0,0x3F,0x0,0x1E,0x0,0x0
	.DB  0x0,0x0,0x0,0x0,0x0,0x0,0x0,0x0
	.DB  0x0,0x0,0x0,0x0,0x0,0x0,0x60,0xC4
	.DB  0xC0,0x64,0x80,0x35,0x0,0x1F,0x0,0xE
	.DB  0x0,0x1F,0x80,0x35,0xC0,0x64,0x60,0xC4
	.DB  0x20,0x84,0x0,0x0,0x0,0x0,0x0,0x0
	.DB  0x0,0x0,0x0,0x0,0x0,0x0,0x0,0x0
	.DB  0x0,0x0,0x0,0x3E,0x0,0x3F,0x0,0x1
	.DB  0x0,0x3E,0x0,0x3F,0x80,0x1,0x80,0x1
	.DB  0x80,0x1,0x0,0x3F,0x0,0x3E,0x0,0x0
	.DB  0x0,0x0,0x0,0x0,0x0,0x0,0x0,0x0
	.DB  0x0,0x0,0x0,0x0,0x0,0x0,0x80,0x61
	.DB  0x80,0x61,0x80,0x61,0x80,0x63,0x80,0x67
	.DB  0x80,0x6D,0x80,0x79,0x80,0x71,0x80,0x61
	.DB  0x80,0x61,0x0,0x0,0x0,0x0,0x0,0x0
	.DB  0x0,0x0,0x0,0x0,0x0,0x0,0x0,0xC
	.DB  0x0,0xC,0x80,0x61,0x80,0x61,0x80,0x61
	.DB  0x80,0x63,0x80,0x67,0x80,0x6D,0x80,0x79
	.DB  0x80,0x71,0x80,0x61,0x80,0x61,0x0,0x0
	.DB  0x0,0x0,0x0,0x0,0x0,0x0,0x0,0x0
	.DB  0x0,0x0,0x0,0x0,0x0,0x0,0x80,0x61
	.DB  0x0,0x63,0x0,0x66,0x0,0x6C,0x0,0x7C
	.DB  0x0,0x76,0x0,0x63,0x0,0x63,0x80,0x61
	.DB  0xC0,0x60,0x0,0x0,0x0,0x0,0x0,0x0
	.DB  0x0,0x0,0x0,0x0,0x0,0x0,0x0,0x0
	.DB  0x0,0x0,0x80,0x3F,0x80,0x3F,0x80,0x31
	.DB  0x80,0x31,0x80,0x31,0x80,0x31,0x80,0x31
	.DB  0x80,0x31,0x80,0xF1,0x80,0xF1,0x0,0x0
	.DB  0x0,0x0,0x0,0x0,0x0,0x0,0x0,0x0
	.DB  0x0,0x0,0x0,0x0,0x0,0x0,0x60,0xC0
	.DB  0xE0,0xE0,0xE0,0xF1,0x60,0xDB,0x60,0xCE
	.DB  0x60,0xC4,0x60,0xC4,0x60,0xC0,0x60,0xC0
	.DB  0x60,0xC0,0x0,0x0,0x0,0x0,0x0,0x0
	.DB  0x0,0x0,0x0,0x0,0x0,0x0,0x0,0x0
	.DB  0x0,0x0,0x80,0x61,0x80,0x61,0x80,0x61
	.DB  0x80,0x61,0x80,0x7F,0x80,0x7F,0x80,0x61
	.DB  0x80,0x61,0x80,0x61,0x80,0x61,0x0,0x0
	.DB  0x0,0x0,0x0,0x0,0x0,0x0,0x0,0x0
	.DB  0x0,0x0,0x0,0x0,0x0,0x0,0x0,0x1E
	.DB  0x0,0x3F,0x80,0x73,0x80,0x61,0x80,0x61
	.DB  0x80,0x61,0x80,0x61,0x80,0x73,0x0,0x3F
	.DB  0x0,0x1E,0x0,0x0,0x0,0x0,0x0,0x0
	.DB  0x0,0x0,0x0,0x0,0x0,0x0,0x0,0x0
	.DB  0x0,0x0,0x80,0x7F,0x80,0x7F,0x80,0x61
	.DB  0x80,0x61,0x80,0x61,0x80,0x61,0x80,0x61
	.DB  0x80,0x61,0x80,0x61,0x80,0x61,0x0,0x0
	.DB  0x0,0x0,0x0,0x0,0x0,0x0,0x0,0x0
	.DB  0x0,0x0,0x0,0x0,0x0,0x6E,0x0,0x7F
	.DB  0x80,0x73,0x80,0x61,0x80,0x61,0x80,0x61
	.DB  0x80,0x61,0x80,0x73,0x0,0x7F,0x0,0x6E
	.DB  0x0,0x60,0x0,0x60,0x0,0x60,0x0,0x60
	.DB  0x0,0x0,0x0,0x0,0x0,0x0,0x0,0x0
	.DB  0x0,0x0,0x0,0x1E,0x0,0x3F,0x80,0x73
	.DB  0x80,0x61,0x0,0x60,0x0,0x60,0x80,0x61
	.DB  0x80,0x73,0x0,0x3F,0x0,0x1E,0x0,0x0
	.DB  0x0,0x0,0x0,0x0,0x0,0x0,0x0,0x0
	.DB  0x0,0x0,0x0,0x0,0x0,0x0,0x80,0x7F
	.DB  0x80,0x7F,0x0,0xC,0x0,0xC,0x0,0xC
	.DB  0x0,0xC,0x0,0xC,0x0,0xC,0x0,0xC
	.DB  0x0,0xC,0x0,0x0,0x0,0x0,0x0,0x0
	.DB  0x0,0x0,0x0,0x0,0x0,0x0,0x0,0x0
	.DB  0x0,0x0,0xC0,0x60,0xC0,0x60,0x80,0x31
	.DB  0x80,0x19,0x0,0xF,0x0,0x7,0x0,0x6
	.DB  0x0,0xE,0x0,0xC,0x0,0x38,0x0,0x0
	.DB  0x0,0x0,0x0,0x0,0x0,0x0,0x0,0x0
	.DB  0x0,0x0,0x0,0x0,0x0,0x0,0x0,0xC
	.DB  0x80,0x7F,0xC0,0xCC,0x40,0x8C,0x40,0x8C
	.DB  0xC0,0xCC,0x80,0x7F,0x0,0xC,0x0,0xC
	.DB  0x0,0xC,0x0,0x0,0x0,0x0,0x0,0x0
	.DB  0x0,0x0,0x0,0x0,0x0,0x0,0x0,0x0
	.DB  0x0,0x0,0x80,0x61,0x0,0x33,0x0,0x33
	.DB  0x0,0x1E,0x0,0xC,0x0,0xC,0x0,0x1E
	.DB  0x0,0x33,0x0,0x33,0x80,0x61,0x0,0x0
	.DB  0x0,0x0,0x0,0x0,0x0,0x0,0x0,0x0
	.DB  0x0,0x0,0x0,0x0,0x0,0x0,0x80,0x61
	.DB  0x80,0x61,0x80,0x61,0x80,0x61,0x80,0x61
	.DB  0x80,0x61,0x80,0x61,0x80,0x61,0x80,0x7F
	.DB  0x80,0x7F,0x80,0x1,0x0,0x0,0x0,0x0
	.DB  0x0,0x0,0x0,0x0,0x0,0x0,0x0,0x0
	.DB  0x0,0x0,0x80,0x61,0x80,0x61,0x80,0x61
	.DB  0x80,0x61,0x80,0x7F,0x80,0x7F,0x80,0x1
	.DB  0x80,0x1,0xC0,0x1,0xC0,0x1,0x0,0x0
	.DB  0x0,0x0,0x0,0x0,0x0,0x0,0x0,0x0
	.DB  0x0,0x0,0x0,0x0,0x0,0x0,0xC0,0xCC
	.DB  0xC0,0xCC,0xC0,0xCC,0xC0,0xCC,0xC0,0xCC
	.DB  0xC0,0xCC,0xC0,0xCC,0xC0,0xCC,0xC0,0xFF
	.DB  0xC0,0xFF,0x0,0x0,0x0,0x0,0x0,0x0
	.DB  0x0,0x0,0x0,0x0,0x0,0x0,0x0,0x0
	.DB  0x0,0x0,0xC0,0xCC,0xC0,0xCC,0xC0,0xCC
	.DB  0xC0,0xCC,0xC0,0xCC,0xC0,0xCC,0xC0,0xCC
	.DB  0xC0,0xCC,0xC0,0xFF,0xE0,0xFF,0x60,0x0
	.DB  0x0,0x0,0x0,0x0,0x0,0x0,0x0,0x6
	.DB  0x0,0x6,0x0,0x0,0x0,0x0,0x0,0x3E
	.DB  0x0,0x3E,0x0,0x6,0x0,0x6,0x0,0x6
	.DB  0x0,0x6,0x0,0x6,0x0,0x6,0x0,0x6
	.DB  0x0,0x6,0x0,0x0,0x0,0x0,0x0,0x0
	.DB  0x0,0x0,0x0,0x6,0x0,0x6,0x0,0x0
	.DB  0x0,0x0,0x0,0x3E,0x0,0x3E,0x0,0x6
	.DB  0x0,0x6,0x0,0x6,0x0,0x6,0x0,0x6
	.DB  0x0,0x6,0x0,0x6,0x0,0x6,0x0,0x0
	.DB  0x0,0x0,0x0,0x0,0x0,0x0,0x0,0x0
	.DB  0x0,0x0,0x0,0x0,0x0,0x0,0x0,0x60
	.DB  0x0,0x60,0x0,0x60,0x0,0x6E,0x0,0x7F
	.DB  0x80,0x63,0x80,0x61,0x80,0x63,0x0,0x7F
	.DB  0x0,0x6E,0x0,0x0,0x0,0x0,0x0,0x0
	.DB  0x0,0x0,0x0,0x0,0x0,0x0,0x0,0x0
	.DB  0x0,0x0,0x0,0x1E,0x0,0x3F,0x80,0x3
	.DB  0x80,0x1,0x80,0x3F,0x80,0x3F,0x80,0x1
	.DB  0x80,0x3,0x0,0x3F,0x0,0x1E,0x0,0x0
	.DB  0x0,0x0,0x0,0x0,0x0,0x0,0x0,0x0
	.DB  0x0,0x0,0x0,0x0,0x0,0x0,0x0,0xC3
	.DB  0x80,0xC7,0xC0,0xCC,0x60,0xD8,0x60,0xF8
	.DB  0x60,0xF8,0x60,0xD8,0xE0,0xCC,0x80,0xC7
	.DB  0x0,0xC3,0x0,0x0,0x0,0x0,0x0,0x0
	.DB  0x0,0x0,0x0,0x0,0x0,0x0,0x0,0x0
	.DB  0x0,0x0,0x80,0x1F,0x80,0x31,0x80,0x61
	.DB  0x80,0x61,0x80,0x61,0x80,0x31,0x80,0x1F
	.DB  0x80,0x7,0x80,0x19,0x80,0x61,0x0,0x0
	.DB  0x0,0x0,0x0,0x0
_tbl10_G100:
	.DB  0x10,0x27,0xE8,0x3,0x64,0x0,0xA,0x0
	.DB  0x1,0x0
_tbl16_G100:
	.DB  0x0,0x10,0x0,0x1,0x10,0x0,0x1,0x0

;REGISTER BIT VARIABLES INITIALIZATION
__REG_BIT_VARS:
	.DW  0x0000

_0x3:
	.DB  0x32
_0x4:
	.DB  0x2,0x2,0x2,0x2
_0x5:
	.DB  0xFF,0xFF
_0x6:
	.DB  0xC6,0x7
_0x7:
	.DB  0xC6,0x7
_0x8:
	.DB  LOW(_0x0*2),HIGH(_0x0*2),LOW(_0x0*2+12),HIGH(_0x0*2+12),LOW(_0x0*2+22),HIGH(_0x0*2+22),LOW(_0x0*2+29),HIGH(_0x0*2+29)
	.DB  LOW(_0x0*2+39),HIGH(_0x0*2+39)
_0x9:
	.DB  LOW(_0x0*2+52),HIGH(_0x0*2+52),LOW(_0x0*2+60),HIGH(_0x0*2+60),LOW(_0x0*2+68),HIGH(_0x0*2+68),LOW(_0x0*2+76),HIGH(_0x0*2+76)
_0xA:
	.DB  LOW(_0x0*2+82),HIGH(_0x0*2+82),LOW(_0x0*2+90),HIGH(_0x0*2+90),LOW(_0x0*2+99),HIGH(_0x0*2+99),LOW(_0x0*2+108),HIGH(_0x0*2+108)
_0xB:
	.DB  LOW(_0x0*2+112),HIGH(_0x0*2+112),LOW(_0x0*2+123),HIGH(_0x0*2+123),LOW(_0x0*2+135),HIGH(_0x0*2+135),LOW(_0x0*2+145),HIGH(_0x0*2+145)
_0xC:
	.DB  LOW(_0x0*2+152),HIGH(_0x0*2+152),LOW(_0x0*2+159),HIGH(_0x0*2+159),LOW(_0x0*2+164),HIGH(_0x0*2+164),LOW(_0x0*2+169),HIGH(_0x0*2+169)
	.DB  LOW(_0x0*2+175),HIGH(_0x0*2+175)
_0xD:
	.DB  0xFF,0x1E,0x5A,0xFF
_0xE:
	.DB  0x2,0x2,0x2,0x2
_0xF:
	.DB  0xB,0x12,LOW(_Font11x18*2),HIGH(_Font11x18*2)
_0x0:
	.DB  0xD2,0xE5,0xEC,0xEF,0xE5,0xF0,0xE0,0xF2
	.DB  0xF3,0xF0,0xE0,0x0,0xC2,0xEB,0xE0,0xE6
	.DB  0xED,0xEE,0xF1,0xF2,0xFC,0x0,0xD2,0xE0
	.DB  0xE9,0xEC,0xE5,0xF0,0x0,0xCD,0xE0,0xF1
	.DB  0xF2,0xF0,0xEE,0xE9,0xEA,0xE8,0x0,0xC2
	.DB  0xF0,0xE5,0xEC,0xFF,0x20,0xE8,0x20,0xC4
	.DB  0xE0,0xF2,0xE0,0x0,0xC7,0xE0,0xE4,0xE0
	.DB  0xED,0xE8,0xE5,0x0,0xCE,0xF2,0xEA,0xEB
	.DB  0xEE,0xED,0x2E,0x0,0xC3,0xE8,0xF1,0xF2
	.DB  0xE5,0xF0,0x2E,0x0,0xD0,0xE5,0xE6,0xE8
	.DB  0xEC,0x0,0xC2,0xEA,0xEB,0xFE,0xF7,0xE5
	.DB  0xED,0x0,0xC2,0xFB,0xEA,0xEB,0xFE,0xF7
	.DB  0xE5,0xED,0x0,0xD0,0xE0,0xE7,0xEC,0xE5
	.DB  0xF0,0xED,0x2E,0x0,0xD8,0xE0,0xE3,0x0
	.DB  0xCA,0xEE,0xF0,0xE5,0xEA,0xF6,0xE8,0xFF
	.DB  0x20,0xD2,0x0,0xCA,0xEE,0xF0,0xE5,0xEA
	.DB  0xF6,0xE8,0xFF,0x20,0xC2,0xEB,0x0,0xC4
	.DB  0xE0,0xF2,0xF7,0xE8,0xEA,0x20,0xC2,0xEB
	.DB  0x0,0xD0,0xE5,0xE7,0xE5,0xF0,0xE2,0x0
	.DB  0xEC,0xE8,0xED,0xF3,0xF2,0xFB,0x0,0xF7
	.DB  0xE0,0xF1,0xFB,0x0,0xE4,0xE5,0xED,0xFC
	.DB  0x0,0xEC,0xE5,0xF1,0xFF,0xF6,0x0,0xE3
	.DB  0xEE,0xE4,0x0,0x2D,0x0,0x2B,0x0,0xC2
	.DB  0xDB,0xCF,0xCE,0xCB,0xCD,0xDF,0xDE,0x20
	.DB  0x20,0xC7,0xC0,0xCF,0xC8,0xD1,0xDC,0x0
	.DB  0xCF,0xEE,0xE2,0xFB,0xF2,0xF0,0xFF,0x0
	.DB  0xC3,0xF0,0xF3,0xED,0xF2,0x0,0xD3,0xEF
	.DB  0xF0,0xE0,0xE2,0xEB,0x0,0xCD,0xE0,0xEB
	.DB  0xE0,0xF8,0xF2,0x0,0x25,0x30,0x32,0x78
	.DB  0x3A,0x25,0x30,0x32,0x78,0x20,0x20,0x20
	.DB  0x25,0x30,0x32,0x78,0x2E,0x25,0x30,0x32
	.DB  0x78,0x2E,0x32,0x30,0x25,0x30,0x32,0x78
	.DB  0x0,0xCF,0xEE,0xEC,0xE8,0xEB,0xEA,0xE0
	.DB  0x20,0xF7,0xE0,0xF1,0xFB,0xE2,0x21,0x0
	.DB  0x5B,0x25,0x32,0x75,0x2E,0x25,0x75,0x5D
	.DB  0x0,0xF2,0xE5,0xEC,0xEF,0xE5,0xF0,0xE0
	.DB  0xF2,0xF3,0xF0,0xE0,0x0,0x2A,0x2A,0x2E
	.DB  0x2A,0x0,0x25,0x32,0x75,0x2E,0x25,0x75
	.DB  0x0,0x5B,0x25,0x33,0x75,0x25,0x25,0x5D
	.DB  0x0,0xE2,0xEE,0xEB,0xEE,0xE3,0xFB,0xF1
	.DB  0xF2,0xFC,0x0,0x2A,0x2A,0x2A,0x25,0x25
	.DB  0x0,0x25,0x33,0x75,0x25,0x25,0x20,0x0
	.DB  0x43,0x4F,0x32,0x20,0xEF,0xEE,0xEC,0xE8
	.DB  0xEB,0xEA,0xE0,0x20,0xEC,0xEE,0xE4,0xF3
	.DB  0xEB,0xFF,0x21,0x0,0x43,0x4F,0x32,0x20
	.DB  0x20,0x20,0x25,0x34,0x75,0x0,0x70,0x70
	.DB  0x6D,0x0,0x43,0x4F,0x32,0x20,0xEC,0xEE
	.DB  0xE4,0xF3,0xEB,0xFC,0x20,0xE2,0xFB,0xE4
	.DB  0xF1,0xF3,0xF2,0xED,0xFB,0xE9,0x2E,0x0
	.DB  0xF0,0xCD,0x20,0xEF,0xEE,0xEC,0xE8,0xEB
	.DB  0xEA,0xE0,0x20,0xEC,0xEE,0xE4,0xF3,0xEB
	.DB  0xFF,0x21,0x0,0xF0,0xCD,0x20,0x20,0x20
	.DB  0x25,0x32,0x75,0x2E,0x25,0x75,0x0,0xEE
	.DB  0xE4,0xE8,0xED,0xE8,0xF6,0xFC,0x0,0xF0
	.DB  0xCD,0x20,0x20,0xEC,0xEE,0xE4,0xF3,0xEB
	.DB  0xFC,0x20,0xE2,0xFB,0xE4,0xF1,0xF3,0xF2
	.DB  0xED,0xFB,0xE9,0x2E,0x0,0xD1,0xD2,0xC0
	.DB  0xCD,0x20,0xC3,0xD0,0xD3,0xCD,0xD2,0xD3
	.DB  0x0,0xE4,0xE0,0xF2,0xF7,0xE8,0xEA,0x20
	.DB  0x25,0x75,0x0,0xD1,0xD2,0xC0,0xCD,0x20
	.DB  0xD3,0xCF,0xD0,0xC0,0xC2,0xCB,0xDB,0xCD
	.DB  0xCD,0xDF,0x0,0xD0,0xC5,0xCB,0xC5,0x20
	.DB  0x20,0x4E,0x25,0x75,0x3A,0x20,0x0,0xC0
	.DB  0xC2,0xD2,0x0,0x4F,0x4E,0x20,0x0,0x4F
	.DB  0x46,0x46,0x0,0x58,0x25,0x34,0x75,0x3B
	.DB  0x20,0x59,0x25,0x34,0x75,0x0,0x69,0x3D
	.DB  0x25,0x32,0x75,0x0,0x69,0x3D,0x25,0x32
	.DB  0x75,0x3B,0x20,0x78,0x3D,0x25,0x32,0x69
	.DB  0x0,0xC2,0xC8,0xD5,0xDB,0xC4,0x20,0x4E
	.DB  0x25,0x75,0x3A,0x20,0x0,0xD0,0xD3,0xD7
	.DB  0x0,0x20,0x25,0x33,0x75,0x25,0x25,0x20
	.DB  0x0,0xC7,0xC0,0xC4,0xC0,0xCD,0xC8,0xDF
	.DB  0x20,0xD4,0xC0,0xC7,0xDB,0x20,0x25,0x75
	.DB  0x0,0x77,0x77,0x77,0x2E,0x67,0x72,0x61
	.DB  0x76,0x69,0x74,0x6F,0x6E,0x2E,0x63,0x6F
	.DB  0x6D,0x2E,0x75,0x61,0x0,0xD0,0xEE,0xE7
	.DB  0xF3,0xEC,0xED,0xE0,0x0,0xF2,0xE5,0xEF
	.DB  0xEB,0xE8,0xF6,0xFF,0x0,0xC4,0xE0,0xF2
	.DB  0xF7,0xE8,0xEA,0xFB,0xE2,0x20,0xF2,0xE5
	.DB  0xEC,0xEF,0xE5,0xF0,0xE0,0xF2,0xF3,0xF0
	.DB  0xE8,0x20,0x25,0x75,0x0,0xC4,0xE0,0xF2
	.DB  0xF7,0xE8,0xEA,0x20,0xE2,0xEE,0xEB,0xEE
	.DB  0xE3,0xEE,0xF1,0xF2,0xFB,0x20,0x25,0x75
	.DB  0x0
_0x2020003:
	.DB  0x7
_0x2060060:
	.DB  0x1
_0x2060000:
	.DB  0x2D,0x4E,0x41,0x4E,0x0,0x49,0x4E,0x46
	.DB  0x0

__GLOBAL_INI_TBL:
	.DW  0x02
	.DW  0x02
	.DW  __REG_BIT_VARS*2

	.DW  0x01
	.DW  _dacU
	.DW  _0x3*2

	.DW  0x04
	.DW  _alarm
	.DW  _0x4*2

	.DW  0x02
	.DW  _fillScreen
	.DW  _0x5*2

	.DW  0x02
	.DW  _pvT
	.DW  _0x6*2

	.DW  0x02
	.DW  _pvRH
	.DW  _0x7*2

	.DW  0x04
	.DW  _analog
	.DW  _0xD*2

	.DW  0x04
	.DW  _relay
	.DW  _0xE*2

	.DW  0x04
	.DW  _Font_11x18
	.DW  _0xF*2

	.DW  0x02
	.DW  _0xB5
	.DW  _0x0*2+179

	.DW  0x02
	.DW  _0xB5+2
	.DW  _0x0*2+181

	.DW  0x11
	.DW  _0x1FA
	.DW  _0x0*2+183

	.DW  0x11
	.DW  _0x1FA+17
	.DW  _0x0*2+183

	.DW  0x11
	.DW  _0x1FA+34
	.DW  _0x0*2+183

	.DW  0x0C
	.DW  _0x247
	.DW  _0x0*2+281

	.DW  0x0A
	.DW  _0x247+12
	.DW  _0x0*2+313

	.DW  0x14
	.DW  _0x247+22
	.DW  _0x0*2+336

	.DW  0x04
	.DW  _0x247+42
	.DW  _0x0*2+366

	.DW  0x16
	.DW  _0x247+46
	.DW  _0x0*2+370

	.DW  0x13
	.DW  _0x247+68
	.DW  _0x0*2+392

	.DW  0x08
	.DW  _0x247+87
	.DW  _0x0*2+423

	.DW  0x16
	.DW  _0x247+95
	.DW  _0x0*2+431

	.DW  0x0C
	.DW  _0x264
	.DW  _0x0*2+453

	.DW  0x10
	.DW  _0x26F
	.DW  _0x0*2+475

	.DW  0x04
	.DW  _0x26F+16
	.DW  _0x0*2+503

	.DW  0x04
	.DW  _0x26F+20
	.DW  _0x0*2+507

	.DW  0x04
	.DW  _0x26F+24
	.DW  _0x0*2+511

	.DW  0x04
	.DW  _0x26F+28
	.DW  _0x0*2+503

	.DW  0x04
	.DW  _0x26F+32
	.DW  _0x0*2+557

	.DW  0x14
	.DW  _0x2AE
	.DW  _0x0*2+585

	.DW  0x08
	.DW  _0x2AE+20
	.DW  _0x0*2+605

	.DW  0x08
	.DW  _0x2AE+28
	.DW  _0x0*2+613

	.DW  0x01
	.DW  _twi_result
	.DW  _0x2020003*2

	.DW  0x01
	.DW  __seed_G103
	.DW  _0x2060060*2

_0xFFFFFFFF:
	.DW  0

#define __GLOBAL_INI_TBL_PRESENT 1

__RESET:
	CLI
	CLR  R30
	OUT  EECR,R30

;INTERRUPT VECTORS ARE PLACED
;AT THE START OF FLASH
	LDI  R31,1
	OUT  GICR,R31
	OUT  GICR,R30
	OUT  MCUCR,R30

;CLEAR R2-R14
	LDI  R24,(14-2)+1
	LDI  R26,2
	CLR  R27
__CLEAR_REG:
	ST   X+,R30
	DEC  R24
	BRNE __CLEAR_REG

;CLEAR SRAM
	LDI  R24,LOW(__CLEAR_SRAM_SIZE)
	LDI  R25,HIGH(__CLEAR_SRAM_SIZE)
	LDI  R26,__SRAM_START
__CLEAR_SRAM:
	ST   X+,R30
	SBIW R24,1
	BRNE __CLEAR_SRAM

;GLOBAL VARIABLES INITIALIZATION
	LDI  R30,LOW(__GLOBAL_INI_TBL*2)
	LDI  R31,HIGH(__GLOBAL_INI_TBL*2)
__GLOBAL_INI_NEXT:
	LPM  R24,Z+
	LPM  R25,Z+
	SBIW R24,0
	BREQ __GLOBAL_INI_END
	LPM  R26,Z+
	LPM  R27,Z+
	LPM  R0,Z+
	LPM  R1,Z+
	MOVW R22,R30
	MOVW R30,R0
__GLOBAL_INI_LOOP:
	LPM  R0,Z+
	ST   X+,R0
	SBIW R24,1
	BRNE __GLOBAL_INI_LOOP
	MOVW R30,R22
	RJMP __GLOBAL_INI_NEXT
__GLOBAL_INI_END:

;HARDWARE STACK POINTER INITIALIZATION
	LDI  R30,LOW(__SRAM_END-__HEAP_SIZE)
	OUT  SPL,R30
	LDI  R30,HIGH(__SRAM_END-__HEAP_SIZE)
	OUT  SPH,R30

;DATA STACK POINTER INITIALIZATION
	LDI  R28,LOW(__SRAM_START+__DSTACK_SIZE)
	LDI  R29,HIGH(__SRAM_START+__DSTACK_SIZE)

	JMP  _main

	.ESEG
	.ORG 0

	.DSEG
	.ORG 0x260

	.CSEG
;/*******************************************************
;Project : Greenhouse
;Version : 0.0
;Date    : 07.10.2022
;Chip type               : ATmega32
;Program type            : Application
;Clock frequency     : 16 MHz
;Programm size       : 11358 words (22716 bytes), 69,3% of FLASH 11.09.2022
;*******************************************************/
;
;#include <mega32.h>
	#ifndef __SLEEP_DEFINED__
	#define __SLEEP_DEFINED__
	.EQU __se_bit=0x80
	.EQU __sm_mask=0x70
	.EQU __sm_powerdown=0x20
	.EQU __sm_powersave=0x30
	.EQU __sm_standby=0x60
	.EQU __sm_ext_standby=0x70
	.EQU __sm_adc_noise_red=0x10
	.SET power_ctrl_reg=mcucr
	#endif
;#include <stdio.h>
;#include <twi.h>
;#include <delay.h>
;#include <stdio.h>
;#include <math.h>
;#include <stdlib.h>
;#include <string.h>
;#include <1wire.h>
;#include "fontsN.h"
;#include "tft.h"
;#include "9341.h"
;//*********************************
;#define CSDAC1		    PORTD.4
;#define CSDAC2		    PORTD.5
;#define CSDAC3		    PORTD.6
;#define CSDAC4	        PORTD.7
;#define CONECT          PINB.3    //  bluetooth    +3,3
;#define MAX_DEVICES     3
;#define MAX_MENU        5
;#define MAX_SET         4
;#define MAX_DATE        5
;
;#define ON              1
;#define OFF             0
;#define UNCHANGED       2
;#define MISTAKE         3
;#define ZERO	        50
;
;#define SBLK		    0x91      //   
;#define BSTR		    0x81      //   
;#define EBLK            0xF1      //   
;#define DS3231          0xD0      //  
;
;#define SPI_MOUD_FL	    0x51	  // SPI Type: Master, Clock Rate: 1000,000 kHz, Clock Phase: Cycle Half, Clock Polarity: L ...
;#define TWI_CLK_RATE    100000    // TWI clock rate [bps]
;#define EEPROM_TWI_BUS_ADDRESS (0xA0 >> 1)// 7 bit TWI bus slave address of the AT24C16B 2kbyte EEPROM
;#define ADC_VREF_TYPE   0x40
;
;// Declare your global variables here
;unsigned char BeepT, displ_num, newSetButt, ds18b20, pointY, DHTexist, signchar, intval, frcval, error;
;signed char numMenu, numSet/*, displCO2, timerCO2*/;
;unsigned char relOut[4]={0}, analogOut[4]={0}, dacU[4]={ZERO}, buff[40], familycode[MAX_DEVICES][9], clock_buffer[7], al ...

	.DSEG
;unsigned int  max_X, max_Y, fillScreen = BLACK;
;signed int pvT=1990, offsetT, pvRH=1990, offsetRH, pvCO2, pvPH, newval[MAX_DATE];
;unsigned char *ptr_char;
;const char* setMenu[MAX_MENU]={"","","","","  "};
;const char* setName0[MAX_SET]={"",".",".",""};
;const char* setName1[MAX_SET]={"","", ".",""};
;const char* setName2[MAX_SET]={" "," "," ",""};
;const char* setName3[MAX_DATE]={"","","","",""};
;//--------------- union declaration -----------------------------------------------
;union {signed int point[MAX_DEVICES]; unsigned char buff[];} t; //   
;union {unsigned char buffer[8]; unsigned int pvT;} ds;          //   DS18B20
;union {unsigned char buffer[4]; unsigned int val[2];} in;
;union {unsigned char buffer[4]; unsigned int val[2];} out;
;//---------------------------------------------------------------------------------
;signed char analog[4]={-1,30,90,-1};
;signed char relay[4]={2,2,2,2};
;float Told1[5], Told2[5];
;
;//-------------------------
;eeprom signed int set[5][4]={
;                     {270,10, 5, 0},  // Tset; dTalarm; hysteresis;  mode=0 ->  / mode=1 -> ;
;                     { 55, 5, 5, 0},  // RHset; dRHalarm; hysteresis;  mode=0 ->  / mode=1 -> ;
;                     {250, 8, 4, 0},  // Tset; dTalarm; hysteresis;  mode=0 ->  / mode=1 -> ;
;                     {  5,10, 1, 0},  // tmOn; tmOff; dimension=0 ->  / direction=1 -> ; dimension=0 ->  ...
;                     {  0, 0, 0, 0}}; //   T;   ;   = 0 -> DHT21; Other = 1 -> ...
;
;bit Sec;
;bit Clock_Ok;
;bit Dht;
;bit Soil;
;bit pHsensor;
;bit typeS;
;bit CO2module;          //   2
;bit CheckCO2;           //     2
;
;//- prototypes ------
;
;
;#include "fontsN.c"
;
;flash uint16_t Font11x18 [] = {
;0x0000, 0x0000, 0x0000, 0x0000, 0x0000, 0x0000, 0x0000, 0x0000, 0x0000, 0x0000, 0x0000, 0x0000, 0x0000, 0x0000, 0x0000,  ...
;0x0000, 0x0C00, 0x0C00, 0x0C00, 0x0C00, 0x0C00, 0x0C00, 0x0C00, 0x0C00, 0x0C00, 0x0C00, 0x0C00, 0x0000, 0x0C00, 0x0C00,  ...
;0x0000, 0x1B00, 0x1B00, 0x1B00, 0x1B00, 0x1B00, 0x0000, 0x0000, 0x0000, 0x0000, 0x0000, 0x0000, 0x0000, 0x0000, 0x0000,  ...
;0x0000, 0x1980, 0x1980, 0x1980, 0x1980, 0x7FC0, 0x7FC0, 0x1980, 0x3300, 0x7FC0, 0x7FC0, 0x3300, 0x3300, 0x3300, 0x3300,  ...
;0x0000, 0x1E00, 0x3F00, 0x7580, 0x6580, 0x7400, 0x3C00, 0x1E00, 0x0700, 0x0580, 0x6580, 0x6580, 0x7580, 0x3F00, 0x1E00,  ...
;0x0000, 0x7000, 0xD800, 0xD840, 0xD8C0, 0xD980, 0x7300, 0x0600, 0x0C00, 0x1B80, 0x36C0, 0x66C0, 0x46C0, 0x06C0, 0x0380,  ...
;0x0000, 0x1E00, 0x3F00, 0x3300, 0x3300, 0x3300, 0x1E00, 0x0C00, 0x3CC0, 0x66C0, 0x6380, 0x6180, 0x6380, 0x3EC0, 0x1C80,  ...
;0x0000, 0x0C00, 0x0C00, 0x0C00, 0x0C00, 0x0C00, 0x0000, 0x0000, 0x0000, 0x0000, 0x0000, 0x0000, 0x0000, 0x0000, 0x0000,  ...
;0x0080, 0x0100, 0x0300, 0x0600, 0x0600, 0x0400, 0x0C00, 0x0C00, 0x0C00, 0x0C00, 0x0C00, 0x0C00, 0x0400, 0x0600, 0x0600,  ...
;0x2000, 0x1000, 0x1800, 0x0C00, 0x0C00, 0x0400, 0x0600, 0x0600, 0x0600, 0x0600, 0x0600, 0x0600, 0x0400, 0x0C00, 0x0C00,  ...
;0x0000, 0x0C00, 0x2D00, 0x3F00, 0x1E00, 0x3300, 0x0000, 0x0000, 0x0000, 0x0000, 0x0000, 0x0000, 0x0000, 0x0000, 0x0000,  ...
;0x0000, 0x0000, 0x0000, 0x0C00, 0x0C00, 0x0C00, 0x0C00, 0xFFC0, 0xFFC0, 0x0C00, 0x0C00, 0x0C00, 0x0C00, 0x0000, 0x0000,  ...
;0x0000, 0x0000, 0x0000, 0x0000, 0x0000, 0x0000, 0x0000, 0x0000, 0x0000, 0x0000, 0x0000, 0x0000, 0x0000, 0x0C00, 0x0C00,  ...
;0x0000, 0x0000, 0x0000, 0x0000, 0x0000, 0x0000, 0x0000, 0x0000, 0x0000, 0x1E00, 0x1E00, 0x0000, 0x0000, 0x0000, 0x0000,  ...
;0x0000, 0x0000, 0x0000, 0x0000, 0x0000, 0x0000, 0x0000, 0x0000, 0x0000, 0x0000, 0x0000, 0x0000, 0x0000, 0x0C00, 0x0C00,  ...
;0x0000, 0x0300, 0x0300, 0x0300, 0x0600, 0x0600, 0x0600, 0x0600, 0x0C00, 0x0C00, 0x0C00, 0x0C00, 0x1800, 0x1800, 0x1800,  ...
;0x0000, 0x1E00, 0x3F00, 0x3300, 0x6180, 0x6180, 0x6180, 0x6D80, 0x6D80, 0x6180, 0x6180, 0x6180, 0x3300, 0x3F00, 0x1E00,  ...
;0x0000, 0x0600, 0x0E00, 0x1E00, 0x3600, 0x2600, 0x0600, 0x0600, 0x0600, 0x0600, 0x0600, 0x0600, 0x0600, 0x0600, 0x0600,  ...
;0x0000, 0x1E00, 0x3F00, 0x7380, 0x6180, 0x6180, 0x0180, 0x0300, 0x0600, 0x0C00, 0x1800, 0x3000, 0x6000, 0x7F80, 0x7F80,  ...
;0x0000, 0x1C00, 0x3E00, 0x6300, 0x6300, 0x0300, 0x0E00, 0x0E00, 0x0300, 0x0180, 0x0180, 0x6180, 0x7380, 0x3F00, 0x1E00,  ...
;0x0000, 0x0600, 0x0E00, 0x0E00, 0x1E00, 0x1E00, 0x1600, 0x3600, 0x3600, 0x6600, 0x7F80, 0x7F80, 0x0600, 0x0600, 0x0600,  ...
;0x0000, 0x7F00, 0x7F00, 0x6000, 0x6000, 0x6000, 0x6E00, 0x7F00, 0x6380, 0x0180, 0x0180, 0x6180, 0x7380, 0x3F00, 0x1E00,  ...
;0x0000, 0x1E00, 0x3F00, 0x3380, 0x6180, 0x6000, 0x6E00, 0x7F00, 0x7380, 0x6180, 0x6180, 0x6180, 0x3380, 0x3F00, 0x1E00,  ...
;0x0000, 0x7F80, 0x7F80, 0x0180, 0x0300, 0x0300, 0x0600, 0x0600, 0x0C00, 0x0C00, 0x0C00, 0x0800, 0x1800, 0x1800, 0x1800,  ...
;0x0000, 0x1E00, 0x3F00, 0x6380, 0x6180, 0x6180, 0x2100, 0x1E00, 0x3F00, 0x6180, 0x6180, 0x6180, 0x6180, 0x3F00, 0x1E00,  ...
;0x0000, 0x1E00, 0x3F00, 0x7300, 0x6180, 0x6180, 0x6180, 0x7380, 0x3F80, 0x1D80, 0x0180, 0x6180, 0x7300, 0x3F00, 0x1E00,  ...
;0x0000, 0x0000, 0x0000, 0x0000, 0x0000, 0x0C00, 0x0C00, 0x0000, 0x0000, 0x0000, 0x0000, 0x0000, 0x0000, 0x0C00, 0x0C00,  ...
;0x0000, 0x0000, 0x0000, 0x0000, 0x0000, 0x0000, 0x0C00, 0x0C00, 0x0000, 0x0000, 0x0000, 0x0000, 0x0000, 0x0C00, 0x0C00,  ...
;0x0000, 0x0000, 0x0000, 0x0000, 0x0080, 0x0380, 0x0E00, 0x3800, 0x6000, 0x3800, 0x0E00, 0x0380, 0x0080, 0x0000, 0x0000,  ...
;0x0000, 0x0000, 0x0000, 0x0000, 0x0000, 0x7F80, 0x7F80, 0x0000, 0x0000, 0x7F80, 0x7F80, 0x0000, 0x0000, 0x0000, 0x0000,  ...
;0x0000, 0x0000, 0x0000, 0x0000, 0x4000, 0x7000, 0x1C00, 0x0700, 0x0180, 0x0700, 0x1C00, 0x7000, 0x4000, 0x0000, 0x0000,  ...
;0x0000, 0x1F00, 0x3F80, 0x71C0, 0x60C0, 0x00C0, 0x01C0, 0x0380, 0x0700, 0x0E00, 0x0C00, 0x0C00, 0x0000, 0x0C00, 0x0C00,  ...
;0x0000, 0x1E00, 0x3F00, 0x3180, 0x7180, 0x6380, 0x6F80, 0x6D80, 0x6D80, 0x6F80, 0x6780, 0x6000, 0x3200, 0x3E00, 0x1C00,  ...
;0x0000, 0x0E00, 0x0E00, 0x1B00, 0x1B00, 0x1B00, 0x1B00, 0x3180, 0x3180, 0x3F80, 0x3F80, 0x3180, 0x60C0, 0x60C0, 0x60C0,  ...
;0x0000, 0x7C00, 0x7E00, 0x6300, 0x6300, 0x6300, 0x6300, 0x7E00, 0x7E00, 0x6300, 0x6180, 0x6180, 0x6380, 0x7F00, 0x7E00,  ...
;0x0000, 0x1E00, 0x3F00, 0x3180, 0x6180, 0x6000, 0x6000, 0x6000, 0x6000, 0x6000, 0x6000, 0x6180, 0x3180, 0x3F00, 0x1E00,  ...
;0x0000, 0x7C00, 0x7F00, 0x6300, 0x6380, 0x6180, 0x6180, 0x6180, 0x6180, 0x6180, 0x6180, 0x6300, 0x6300, 0x7E00, 0x7C00,  ...
;0x0000, 0x7F80, 0x7F80, 0x6000, 0x6000, 0x6000, 0x6000, 0x7F00, 0x7F00, 0x6000, 0x6000, 0x6000, 0x6000, 0x7F80, 0x7F80,  ...
;0x0000, 0x7F80, 0x7F80, 0x6000, 0x6000, 0x6000, 0x6000, 0x7F00, 0x7F00, 0x6000, 0x6000, 0x6000, 0x6000, 0x6000, 0x6000,  ...
;0x0000, 0x1E00, 0x3F00, 0x3180, 0x6180, 0x6000, 0x6000, 0x6000, 0x6380, 0x6380, 0x6180, 0x6180, 0x3180, 0x3F80, 0x1E00,  ...
;0x0000, 0x6180, 0x6180, 0x6180, 0x6180, 0x6180, 0x6180, 0x7F80, 0x7F80, 0x6180, 0x6180, 0x6180, 0x6180, 0x6180, 0x6180,  ...
;0x0000, 0x3F00, 0x3F00, 0x0C00, 0x0C00, 0x0C00, 0x0C00, 0x0C00, 0x0C00, 0x0C00, 0x0C00, 0x0C00, 0x0C00, 0x3F00, 0x3F00,  ...
;0x0000, 0x0180, 0x0180, 0x0180, 0x0180, 0x0180, 0x0180, 0x0180, 0x0180, 0x0180, 0x6180, 0x6180, 0x7380, 0x3F00, 0x1E00,  ...
;0x0000, 0x60C0, 0x6180, 0x6300, 0x6600, 0x6600, 0x6C00, 0x7800, 0x7C00, 0x6600, 0x6600, 0x6300, 0x6180, 0x6180, 0x60C0,  ...
;0x0000, 0x6000, 0x6000, 0x6000, 0x6000, 0x6000, 0x6000, 0x6000, 0x6000, 0x6000, 0x6000, 0x6000, 0x6000, 0x7F80, 0x7F80,  ...
;0x0000, 0x71C0, 0x71C0, 0x7BC0, 0x7AC0, 0x6AC0, 0x6AC0, 0x6EC0, 0x64C0, 0x60C0, 0x60C0, 0x60C0, 0x60C0, 0x60C0, 0x60C0,  ...
;0x0000, 0x7180, 0x7180, 0x7980, 0x7980, 0x7980, 0x6D80, 0x6D80, 0x6D80, 0x6580, 0x6780, 0x6780, 0x6780, 0x6380, 0x6380,  ...
;0x0000, 0x1E00, 0x3F00, 0x3300, 0x6180, 0x6180, 0x6180, 0x6180, 0x6180, 0x6180, 0x6180, 0x6180, 0x3300, 0x3F00, 0x1E00,  ...
;0x0000, 0x7E00, 0x7F00, 0x6380, 0x6180, 0x6180, 0x6180, 0x6380, 0x7F00, 0x7E00, 0x6000, 0x6000, 0x6000, 0x6000, 0x6000,  ...
;0x0000, 0x1E00, 0x3F00, 0x3300, 0x6180, 0x6180, 0x6180, 0x6180, 0x6180, 0x6180, 0x6580, 0x6780, 0x3300, 0x3F80, 0x1E40,  ...
;0x0000, 0x7E00, 0x7F00, 0x6380, 0x6180, 0x6180, 0x6380, 0x7F00, 0x7E00, 0x6600, 0x6300, 0x6300, 0x6180, 0x6180, 0x60C0,  ...
;0x0000, 0x0E00, 0x1F00, 0x3180, 0x3180, 0x3000, 0x3800, 0x1E00, 0x0700, 0x0380, 0x6180, 0x6180, 0x3180, 0x3F00, 0x1E00,  ...
;0x0000, 0xFFC0, 0xFFC0, 0x0C00, 0x0C00, 0x0C00, 0x0C00, 0x0C00, 0x0C00, 0x0C00, 0x0C00, 0x0C00, 0x0C00, 0x0C00, 0x0C00,  ...
;0x0000, 0x6180, 0x6180, 0x6180, 0x6180, 0x6180, 0x6180, 0x6180, 0x6180, 0x6180, 0x6180, 0x6180, 0x7380, 0x3F00, 0x1E00,  ...
;0x0000, 0x60C0, 0x60C0, 0x60C0, 0x3180, 0x3180, 0x3180, 0x1B00, 0x1B00, 0x1B00, 0x1B00, 0x0E00, 0x0E00, 0x0E00, 0x0400,  ...
;0x0000, 0xC0C0, 0xC0C0, 0xC0C0, 0xC0C0, 0xC0C0, 0xCCC0, 0x4C80, 0x4C80, 0x5E80, 0x5280, 0x5280, 0x7380, 0x6180, 0x6180,  ...
;0x0000, 0xC0C0, 0x6080, 0x6180, 0x3300, 0x3B00, 0x1E00, 0x0C00, 0x0C00, 0x1E00, 0x1F00, 0x3B00, 0x7180, 0x6180, 0xC0C0,  ...
;0x0000, 0xC0C0, 0x6180, 0x6180, 0x3300, 0x3300, 0x1E00, 0x1E00, 0x0C00, 0x0C00, 0x0C00, 0x0C00, 0x0C00, 0x0C00, 0x0C00,  ...
;0x0000, 0x3F80, 0x3F80, 0x0180, 0x0300, 0x0300, 0x0600, 0x0C00, 0x0C00, 0x1800, 0x1800, 0x3000, 0x6000, 0x7F80, 0x7F80,  ...
;0x0F00, 0x0F00, 0x0C00, 0x0C00, 0x0C00, 0x0C00, 0x0C00, 0x0C00, 0x0C00, 0x0C00, 0x0C00, 0x0C00, 0x0C00, 0x0C00, 0x0C00,  ...
;0x0000, 0x1800, 0x1800, 0x1800, 0x0C00, 0x0C00, 0x0C00, 0x0C00, 0x0600, 0x0600, 0x0600, 0x0600, 0x0300, 0x0300, 0x0300,  ...
;0x1E00, 0x1E00, 0x0600, 0x0600, 0x0600, 0x0600, 0x0600, 0x0600, 0x0600, 0x0600, 0x0600, 0x0600, 0x0600, 0x0600, 0x0600,  ...
;0x0000, 0x0C00, 0x0C00, 0x1E00, 0x1200, 0x3300, 0x3300, 0x6180, 0x6180, 0x0000, 0x0000, 0x0000, 0x0000, 0x0000, 0x0000,  ...
;0x0000, 0x0000, 0x0000, 0x0000, 0x0000, 0x0000, 0x0000, 0x0000, 0x0000, 0x0000, 0x0000, 0x0000, 0x0000, 0x0000, 0x0000,  ...
;0x0000, 0x3800, 0x1800, 0x0C00, 0x0000, 0x0000, 0x0000, 0x0000, 0x0000, 0x0000, 0x0000, 0x0000, 0x0000, 0x0000, 0x0000,  ...
;0x0000, 0x0000, 0x0000, 0x0000, 0x0000, 0x1F00, 0x3F80, 0x6180, 0x0180, 0x1F80, 0x3F80, 0x6180, 0x6380, 0x7F80, 0x38C0,  ...
;0x0000, 0x6000, 0x6000, 0x6000, 0x6000, 0x6E00, 0x7F00, 0x7380, 0x6180, 0x6180, 0x6180, 0x6180, 0x7380, 0x7F00, 0x6E00,  ...
;0x0000, 0x0000, 0x0000, 0x0000, 0x0000, 0x1E00, 0x3F00, 0x7380, 0x6180, 0x6000, 0x6000, 0x6180, 0x7380, 0x3F00, 0x1E00,  ...
;0x0000, 0x0180, 0x0180, 0x0180, 0x0180, 0x1D80, 0x3F80, 0x7380, 0x6180, 0x6180, 0x6180, 0x6180, 0x7380, 0x3F80, 0x1D80,  ...
;0x0000, 0x0000, 0x0000, 0x0000, 0x0000, 0x1E00, 0x3F00, 0x7300, 0x6180, 0x7F80, 0x7F80, 0x6000, 0x7180, 0x3F00, 0x1E00,  ...
;0x0000, 0x07C0, 0x0FC0, 0x0C00, 0x0C00, 0x7F80, 0x7F80, 0x0C00, 0x0C00, 0x0C00, 0x0C00, 0x0C00, 0x0C00, 0x0C00, 0x0C00,  ...
;0x0000, 0x0000, 0x0000, 0x0000, 0x1D80, 0x3F80, 0x7380, 0x6180, 0x6180, 0x6180, 0x6180, 0x7380, 0x3F80, 0x1D80, 0x0180,  ...
;0x0000, 0x6000, 0x6000, 0x6000, 0x6000, 0x6F00, 0x7F80, 0x7180, 0x6180, 0x6180, 0x6180, 0x6180, 0x6180, 0x6180, 0x6180,  ...
;0x0000, 0x0600, 0x0600, 0x0000, 0x0000, 0x3E00, 0x3E00, 0x0600, 0x0600, 0x0600, 0x0600, 0x0600, 0x0600, 0x0600, 0x0600,  ...
;0x0600, 0x0600, 0x0000, 0x0000, 0x3E00, 0x3E00, 0x0600, 0x0600, 0x0600, 0x0600, 0x0600, 0x0600, 0x0600, 0x0600, 0x0600,  ...
;0x0000, 0x6000, 0x6000, 0x6000, 0x6000, 0x6180, 0x6300, 0x6600, 0x6C00, 0x7C00, 0x7600, 0x6300, 0x6300, 0x6180, 0x60C0,  ...
;0x0000, 0x3E00, 0x3E00, 0x0600, 0x0600, 0x0600, 0x0600, 0x0600, 0x0600, 0x0600, 0x0600, 0x0600, 0x0600, 0x0600, 0x0600,  ...
;0x0000, 0x0000, 0x0000, 0x0000, 0x0000, 0xDD80, 0xFFC0, 0xCEC0, 0xCCC0, 0xCCC0, 0xCCC0, 0xCCC0, 0xCCC0, 0xCCC0, 0xCCC0,  ...
;0x0000, 0x0000, 0x0000, 0x0000, 0x0000, 0x6F00, 0x7F80, 0x7180, 0x6180, 0x6180, 0x6180, 0x6180, 0x6180, 0x6180, 0x6180,  ...
;0x0000, 0x0000, 0x0000, 0x0000, 0x0000, 0x1E00, 0x3F00, 0x7380, 0x6180, 0x6180, 0x6180, 0x6180, 0x7380, 0x3F00, 0x1E00,  ...
;0x0000, 0x0000, 0x0000, 0x0000, 0x6E00, 0x7F00, 0x7380, 0x6180, 0x6180, 0x6180, 0x6180, 0x7380, 0x7F00, 0x6E00, 0x6000,  ...
;0x0000, 0x0000, 0x0000, 0x0000, 0x1D80, 0x3F80, 0x7380, 0x6180, 0x6180, 0x6180, 0x6180, 0x7380, 0x3F80, 0x1D80, 0x0180,  ...
;0x0000, 0x0000, 0x0000, 0x0000, 0x0000, 0x6700, 0x3F80, 0x3900, 0x3000, 0x3000, 0x3000, 0x3000, 0x3000, 0x3000, 0x3000,  ...
;0x0000, 0x0000, 0x0000, 0x0000, 0x0000, 0x1E00, 0x3F80, 0x6180, 0x6000, 0x7F00, 0x3F80, 0x0180, 0x6180, 0x7F00, 0x1E00,  ...
;0x0000, 0x0000, 0x0800, 0x1800, 0x1800, 0x7F00, 0x7F00, 0x1800, 0x1800, 0x1800, 0x1800, 0x1800, 0x1800, 0x1F80, 0x0F80,  ...
;0x0000, 0x0000, 0x0000, 0x0000, 0x0000, 0x6180, 0x6180, 0x6180, 0x6180, 0x6180, 0x6180, 0x6180, 0x6380, 0x7F80, 0x3D80,  ...
;0x0000, 0x0000, 0x0000, 0x0000, 0x0000, 0x60C0, 0x3180, 0x3180, 0x3180, 0x1B00, 0x1B00, 0x1B00, 0x0E00, 0x0E00, 0x0600,  ...
;0x0000, 0x0000, 0x0000, 0x0000, 0x0000, 0xDD80, 0xDD80, 0xDD80, 0x5500, 0x5500, 0x5500, 0x7700, 0x7700, 0x2200, 0x2200,  ...
;0x0000, 0x0000, 0x0000, 0x0000, 0x0000, 0x6180, 0x3300, 0x3300, 0x1E00, 0x0C00, 0x0C00, 0x1E00, 0x3300, 0x3300, 0x6180,  ...
;0x0000, 0x0000, 0x0000, 0x0000, 0x6180, 0x6180, 0x3180, 0x3300, 0x3300, 0x1B00, 0x1B00, 0x1B00, 0x0E00, 0x0E00, 0x0E00,  ...
;0x0000, 0x0000, 0x0000, 0x0000, 0x0000, 0x7FC0, 0x7FC0, 0x0180, 0x0300, 0x0600, 0x0C00, 0x1800, 0x3000, 0x7FC0, 0x7FC0,  ...
;0x0380, 0x0780, 0x0600, 0x0600, 0x0600, 0x0600, 0x0600, 0x0E00, 0x1C00, 0x1C00, 0x0E00, 0x0600, 0x0600, 0x0600, 0x0600,  ...
;0x0600, 0x0600, 0x0600, 0x0600, 0x0600, 0x0600, 0x0600, 0x0600, 0x0600, 0x0600, 0x0600, 0x0600, 0x0600, 0x0600, 0x0600,  ...
;0x3800, 0x3C00, 0x0C00, 0x0C00, 0x0C00, 0x0C00, 0x0C00, 0x0E00, 0x0700, 0x0700, 0x0E00, 0x0C00, 0x0C00, 0x0C00, 0x0C00,  ...
;0x0000, 0x0000, 0x0000, 0x0000, 0x0000, 0x0000, 0x0000, 0x3880, 0x7F80, 0x4700, 0x0000, 0x0000, 0x0000, 0x0000, 0x0000,  ...
;0x0000, 0x0E00, 0x0E00, 0x1B00, 0x1B00, 0x1B00, 0x1B00, 0x3180, 0x3180, 0x3F80, 0x3F80, 0x3180, 0x60C0, 0x60C0, 0x60C0,  ...
;0x0000, 0x7F00, 0x7F00, 0x6000, 0x6000, 0x6000, 0x6000, 0x7E00, 0x7E00, 0x6300, 0x6180, 0x6180, 0x6380, 0x7F00, 0x7C00,  ...
;0x0000, 0x7C00, 0x7E00, 0x6300, 0x6300, 0x6300, 0x6300, 0x7E00, 0x7E00, 0x6300, 0x6180, 0x6180, 0x6380, 0x7F00, 0x7E00,  ...
;0x0000, 0x7F00, 0x7F00, 0x6000, 0x6000, 0x6000, 0x6000, 0x6000, 0x6000, 0x6000, 0x6000, 0x6000, 0x6000, 0x6000, 0x6000,  ...
;0x0000, 0x3F80, 0x3F80, 0x3180, 0x3180, 0x3180, 0x3180, 0x3180, 0x3180, 0x3180, 0x3180, 0x3180, 0x3180, 0xFFE0, 0xFFE0,  ...
;0x0000, 0x7F80, 0x7F80, 0x6000, 0x6000, 0x6000, 0x6000, 0x7F00, 0x7F00, 0x6000, 0x6000, 0x6000, 0x6000, 0x7F80, 0x7F80,  ...
;0x0000, 0xC460, 0x64C0, 0x64C0, 0x3580, 0x3580, 0x1F00, 0x1F00, 0x1F00, 0x1F00, 0x3580, 0x3580, 0x64C0, 0x64C0, 0xC460,  ...
;0x0000, 0x3C00, 0x7E00, 0x0300, 0x0300, 0x0300, 0x0300, 0x7E00, 0x7E00, 0x0300, 0x0180, 0x0180, 0x0380, 0x7F00, 0x3E00,  ...
;0x0000, 0x6180, 0x6180, 0x6180, 0x6180, 0x6380, 0x6780, 0x6F80, 0x7D80, 0x7980, 0x7180, 0x6180, 0x6180, 0x6180, 0x6180,  ...
;0x0C00, 0x6D80, 0x6180, 0x6180, 0x6180, 0x6380, 0x6780, 0x6F80, 0x7D80, 0x7980, 0x7180, 0x6180, 0x6180, 0x6180, 0x6180,  ...
;0x0000, 0x60C0, 0x6180, 0x6300, 0x6600, 0x6600, 0x6C00, 0x7800, 0x7C00, 0x6600, 0x6600, 0x6300, 0x6180, 0x6180, 0x60C0,  ...
;0x0000, 0x3FC0, 0x3FC0, 0x30C0, 0x30C0, 0x30C0, 0x30C0, 0x30C0, 0x30C0, 0x30C0, 0x30C0, 0x30C0, 0x30C0, 0xF0C0, 0xF0C0,  ...
;0x0000, 0x71C0, 0x71C0, 0x7BC0, 0x7AC0, 0x6AC0, 0x6AC0, 0x6EC0, 0x64C0, 0x60C0, 0x60C0, 0x60C0, 0x60C0, 0x60C0, 0x60C0,  ...
;0x0000, 0x6180, 0x6180, 0x6180, 0x6180, 0x6180, 0x6180, 0x7F80, 0x7F80, 0x6180, 0x6180, 0x6180, 0x6180, 0x6180, 0x6180,  ...
;0x0000, 0x1E00, 0x3F00, 0x3300, 0x6180, 0x6180, 0x6180, 0x6180, 0x6180, 0x6180, 0x6180, 0x6180, 0x3300, 0x3F00, 0x1E00,  ...
;0x0000, 0x7FC0, 0x7FC0, 0x60C0, 0x60C0, 0x60C0, 0x60C0, 0x60C0, 0x60C0, 0x60C0, 0x60C0, 0x60C0, 0x60C0, 0x60C0, 0x60C0,  ...
;0x0000, 0x7E00, 0x7F00, 0x6380, 0x6180, 0x6180, 0x6180, 0x6380, 0x7F00, 0x7E00, 0x6000, 0x6000, 0x6000, 0x6000, 0x6000,  ...
;0x0000, 0x1E00, 0x3F00, 0x3180, 0x6180, 0x6000, 0x6000, 0x6000, 0x6000, 0x6000, 0x6000, 0x6180, 0x3180, 0x3F00, 0x1E00,  ...
;0x0000, 0xFFC0, 0xFFC0, 0x0C00, 0x0C00, 0x0C00, 0x0C00, 0x0C00, 0x0C00, 0x0C00, 0x0C00, 0x0C00, 0x0C00, 0x0C00, 0x0C00,  ...
;0x0000, 0xC0C0, 0x6180, 0x6180, 0x3300, 0x3300, 0x1F00, 0x1E00, 0x0E00, 0x0E00, 0x0C00, 0x1C00, 0x3800, 0x7000, 0xE000,  ...
;0x0000, 0x0400, 0x1F00, 0x3580, 0x64C0, 0x64C0, 0xC460, 0xC460, 0x64C0, 0x64C0, 0x3580, 0x1F00, 0x0400, 0x0400, 0x0400,  ...
;0x0000, 0xC0C0, 0x6080, 0x6180, 0x3300, 0x3B00, 0x1E00, 0x0C00, 0x0C00, 0x1E00, 0x1F00, 0x3B00, 0x7180, 0x6180, 0xC0C0,  ...
;0x0000, 0x60C0, 0x60C0, 0x60C0, 0x60C0, 0x60C0, 0x60C0, 0x60C0, 0x60C0, 0x60C0, 0x60C0, 0x60C0, 0x60C0, 0x7FC0, 0x7FC0,  ...
;0x0000, 0x6180, 0x6180, 0x6180, 0x6180, 0x6180, 0x6180, 0x7F80, 0x3F80, 0x0180, 0x0180, 0x0180, 0x0180, 0x01C0, 0x01C0,  ...
;0x0000, 0xCCC0, 0xCCC0, 0xCCC0, 0xCCC0, 0xCCC0, 0xCCC0, 0xCCC0, 0xCCC0, 0xCCC0, 0xCCC0, 0xCCC0, 0xCCC0, 0xFFC0, 0xFFC0,  ...
;0x0000, 0xCCC0, 0xCCC0, 0xCCC0, 0xCCC0, 0xCCC0, 0xCCC0, 0xCCC0, 0xCCC0, 0xCCC0, 0xCCC0, 0xCCC0, 0xCCC0, 0xFFC0, 0xFFC0,  ...
;0x0000, 0x3F00, 0x3F00, 0x0C00, 0x0C00, 0x0C00, 0x0C00, 0x0C00, 0x0C00, 0x0C00, 0x0C00, 0x0C00, 0x0C00, 0x3F00, 0x3F00,  ...
;0x0000, 0x3F00, 0x3F00, 0x0C00, 0x0C00, 0x0C00, 0x0C00, 0x0C00, 0x0C00, 0x0C00, 0x0C00, 0x0C00, 0x0C00, 0x3F00, 0x3F00,  ...
;0x0000, 0x3000, 0x3000, 0x3000, 0x3000, 0x3C00, 0x3F00, 0x3300, 0x3180, 0x30C0, 0x30C0, 0x31C0, 0x3380, 0x3F00, 0x3E00,  ...
;0x0000, 0x7800, 0x1E00, 0x0700, 0x0380, 0x0180, 0x0180, 0x7F80, 0x7F80, 0x0180, 0x0180, 0x0380, 0x0700, 0x1E00, 0x7800,  ...
;0x0000, 0xC700, 0xCD80, 0xCD80, 0xD8C0, 0xD8C0, 0xF0C0, 0xF0C0, 0xF0C0, 0xD8C0, 0xD8C0, 0xCCC0, 0xCD80, 0xCD80, 0xC700,  ...
;0x0000, 0x1F80, 0x7F80, 0x6180, 0xC180, 0xC180, 0xC180, 0x6180, 0x7F80, 0x1F80, 0x0F80, 0x1980, 0x3180, 0x6180, 0xC180,  ...
;0x0000, 0x0000, 0x0000, 0x0000, 0x0000, 0x1F00, 0x3F80, 0x6180, 0x0180, 0x1F80, 0x3F80, 0x6180, 0x6380, 0x7F80, 0x38C0,  ...
;0x0000, 0x0000, 0x0000, 0x0000, 0x0100, 0x3F00, 0x7F00, 0x6000, 0x7E00, 0x7F00, 0x6180, 0x6180, 0x6180, 0x7F00, 0x3E00,  ...
;0x0000, 0x0000, 0x0000, 0x0000, 0x0000, 0x3E00, 0x7F00, 0x6100, 0x7E00, 0x7F00, 0x6180, 0x6180, 0x6180, 0x7F00, 0x3E00,  ...
;0x0000, 0x0000, 0x0000, 0x0000, 0x0000, 0x7F00, 0x7F00, 0x6000, 0x6000, 0x6000, 0x6000, 0x6000, 0x6000, 0x6000, 0x6000,  ...
;0x0000, 0x0000, 0x0000, 0x0000, 0x0000, 0x7F80, 0x7F80, 0x6180, 0x6180, 0x6180, 0x6180, 0x6180, 0x6180, 0x6180, 0xFFC0,  ...
;0x0000, 0x0000, 0x0000, 0x0000, 0x0000, 0x1E00, 0x3F00, 0x7300, 0x6180, 0x7F80, 0x7F80, 0x6000, 0x7180, 0x3F00, 0x1E00,  ...
;0x0000, 0x0000, 0x0000, 0x0000, 0x0000, 0xC460, 0x64C0, 0x3580, 0x1F00, 0x0E00, 0x1F00, 0x3580, 0x64C0, 0xC460, 0x8420,  ...
;0x0000, 0x0000, 0x0000, 0x0000, 0x0000, 0x3E00, 0x3F00, 0x0100, 0x3E00, 0x3F00, 0x0180, 0x0180, 0x0180, 0x3F00, 0x3E00,  ...
;0x0000, 0x0000, 0x0000, 0x0000, 0x0000, 0x6180, 0x6180, 0x6180, 0x6380, 0x6780, 0x6D80, 0x7980, 0x7180, 0x6180, 0x6180,  ...
;0x0000, 0x0000, 0x0000, 0x0C00, 0x0C00, 0x6180, 0x6180, 0x6180, 0x6380, 0x6780, 0x6D80, 0x7980, 0x7180, 0x6180, 0x6180,  ...
;0x0000, 0x0000, 0x0000, 0x0000, 0x0000, 0x6180, 0x6300, 0x6600, 0x6C00, 0x7C00, 0x7600, 0x6300, 0x6300, 0x6180, 0x60C0,  ...
;0x0000, 0x0000, 0x0000, 0x0000, 0x0000, 0x3F80, 0x3F80, 0x3180, 0x3180, 0x3180, 0x3180, 0x3180, 0x3180, 0xF180, 0xF180,  ...
;0x0000, 0x0000, 0x0000, 0x0000, 0x0000, 0xC060, 0xE0E0, 0xF1E0, 0xDB60, 0xCE60, 0xC460, 0xC460, 0xC060, 0xC060, 0xC060,  ...
;0x0000, 0x0000, 0x0000, 0x0000, 0x0000, 0x6180, 0x6180, 0x6180, 0x6180, 0x7F80, 0x7F80, 0x6180, 0x6180, 0x6180, 0x6180,  ...
;0x0000, 0x0000, 0x0000, 0x0000, 0x0000, 0x1E00, 0x3F00, 0x7380, 0x6180, 0x6180, 0x6180, 0x6180, 0x7380, 0x3F00, 0x1E00,  ...
;0x0000, 0x0000, 0x0000, 0x0000, 0x0000, 0x7F80, 0x7F80, 0x6180, 0x6180, 0x6180, 0x6180, 0x6180, 0x6180, 0x6180, 0x6180,  ...
;0x0000, 0x0000, 0x0000, 0x0000, 0x6E00, 0x7F00, 0x7380, 0x6180, 0x6180, 0x6180, 0x6180, 0x7380, 0x7F00, 0x6E00, 0x6000,  ...
;0x0000, 0x0000, 0x0000, 0x0000, 0x0000, 0x1E00, 0x3F00, 0x7380, 0x6180, 0x6000, 0x6000, 0x6180, 0x7380, 0x3F00, 0x1E00,  ...
;0x0000, 0x0000, 0x0000, 0x0000, 0x0000, 0x7F80, 0x7F80, 0x0C00, 0x0C00, 0x0C00, 0x0C00, 0x0C00, 0x0C00, 0x0C00, 0x0C00,  ...
;0x0000, 0x0000, 0x0000, 0x0000, 0x0000, 0x60C0, 0x60C0, 0x3180, 0x1980, 0x0F00, 0x0700, 0x0600, 0x0E00, 0x0C00, 0x3800,  ...
;0x0000, 0x0000, 0x0000, 0x0000, 0x0000, 0x0C00, 0x7F80, 0xCCC0, 0x8C40, 0x8C40, 0xCCC0, 0x7F80, 0x0C00, 0x0C00, 0x0C00,  ...
;0x0000, 0x0000, 0x0000, 0x0000, 0x0000, 0x6180, 0x3300, 0x3300, 0x1E00, 0x0C00, 0x0C00, 0x1E00, 0x3300, 0x3300, 0x6180,  ...
;0x0000, 0x0000, 0x0000, 0x0000, 0x0000, 0x6180, 0x6180, 0x6180, 0x6180, 0x6180, 0x6180, 0x6180, 0x6180, 0x7F80, 0x7F80,  ...
;0x0000, 0x0000, 0x0000, 0x0000, 0x0000, 0x6180, 0x6180, 0x6180, 0x6180, 0x7F80, 0x7F80, 0x0180, 0x0180, 0x01C0, 0x01C0,  ...
;0x0000, 0x0000, 0x0000, 0x0000, 0x0000, 0xCCC0, 0xCCC0, 0xCCC0, 0xCCC0, 0xCCC0, 0xCCC0, 0xCCC0, 0xCCC0, 0xFFC0, 0xFFC0,  ...
;0x0000, 0x0000, 0x0000, 0x0000, 0x0000, 0xCCC0, 0xCCC0, 0xCCC0, 0xCCC0, 0xCCC0, 0xCCC0, 0xCCC0, 0xCCC0, 0xFFC0, 0xFFE0,  ...
;0x0000, 0x0600, 0x0600, 0x0000, 0x0000, 0x3E00, 0x3E00, 0x0600, 0x0600, 0x0600, 0x0600, 0x0600, 0x0600, 0x0600, 0x0600,  ...
;0x0000, 0x0600, 0x0600, 0x0000, 0x0000, 0x3E00, 0x3E00, 0x0600, 0x0600, 0x0600, 0x0600, 0x0600, 0x0600, 0x0600, 0x0600,  ...
;0x0000, 0x0000, 0x0000, 0x0000, 0x0000, 0x6000, 0x6000, 0x6000, 0x6E00, 0x7F00, 0x6380, 0x6180, 0x6380, 0x7F00, 0x6E00,  ...
;0x0000, 0x0000, 0x0000, 0x0000, 0x0000, 0x1E00, 0x3F00, 0x0380, 0x0180, 0x3F80, 0x3F80, 0x0180, 0x0380, 0x3F00, 0x1E00,  ...
;0x0000, 0x0000, 0x0000, 0x0000, 0x0000, 0xC300, 0xC780, 0xCCC0, 0xD860, 0xF860, 0xF860, 0xD860, 0xCCE0, 0xC780, 0xC300,  ...
;0x0000, 0x0000, 0x0000, 0x0000, 0x0000, 0x1F80, 0x3180, 0x6180, 0x6180, 0x6180, 0x3180, 0x1F80, 0x0780, 0x1980, 0x6180,  ...
;};
;
;FontDef Font_11x18 = {11,18,Font11x18};
;#include "ili9341.c"
;/* vim: set ai et ts=4 sw=4: */
;//#include "stm32f1xx_hal.h"
;#include "ili9341.h"
;
;void ILI9341_WriteCommand(unsigned char cmd) {
; 0000 005D void ILI9341_WriteCommand(unsigned char cmd) {

	.CSEG
_ILI9341_WriteCommand:
; .FSTART _ILI9341_WriteCommand
;// 8080 MCU 8-bit bus interface I (page 27)
;  TFT_CTRL_PORT = ((TFT_CTRL_PORT & 0b11111100) | (cmd & 0b00000011));// DATA[0..1]
	CALL SUBOPT_0x0
;	cmd -> Y+0
;  TFT_DATA_PORT = ((TFT_DATA_PORT & 0b00000011) | (cmd & 0b11111100));// DATA[2..7]
;  TFT_CSX_LO;  // enable ILI9341 chip
	CBI  0x1B,4
;  TFT_DCX_LO;  // commands
	CBI  0x1B,5
;  TFT_RDX_HIGH;
	SBI  0x1B,7
;  TFT_WRX_LO;
	CBI  0x1B,6
;  #asm("nop");
	nop
	RJMP _0x20C000E
;  TFT_WRX_HIGH;// parallel data write strobe
;}
; .FEND
;
;void ILI9341_WriteByte(unsigned char data) {
_ILI9341_WriteByte:
; .FSTART _ILI9341_WriteByte
;// 8080 MCU 8-bit bus interface I
;  TFT_CTRL_PORT = ((TFT_CTRL_PORT & 0b11111100) | (data & 0b00000011));// DATA[0..1]
	CALL SUBOPT_0x0
;	data -> Y+0
;  TFT_DATA_PORT = ((TFT_DATA_PORT & 0b00000011) | (data & 0b11111100));// DATA[2..7]
;  TFT_DCX_HIGH;// display RAM data or commands parameters
	SBI  0x1B,5
;  TFT_WRX_LO;
	CBI  0x1B,6
;  #asm("nop");
	nop
_0x20C000E:
;  TFT_WRX_HIGH;// parallel data write strobe
	SBI  0x1B,6
;}
	ADIW R28,1
	RET
; .FEND
;
;void ILI9341_SetCol(unsigned int startCol,unsigned int endCol){
_ILI9341_SetCol:
; .FSTART _ILI9341_SetCol
; ILI9341_WriteCommand(0x2A);// Column Command address
	ST   -Y,R27
	ST   -Y,R26
;	startCol -> Y+2
;	endCol -> Y+0
	LDI  R26,LOW(42)
	RJMP _0x20C000D
; ILI9341_WriteByte(startCol>>8); ILI9341_WriteByte(startCol&0xFF);
; ILI9341_WriteByte(endCol>>8); ILI9341_WriteByte(endCol&0xFF);
; TFT_CSX_HIGH;// disable ILI9341 chip
;}
; .FEND
;
;void ILI9341_SetRow(unsigned int startRow,unsigned int endRow){
_ILI9341_SetRow:
; .FSTART _ILI9341_SetRow
; ILI9341_WriteCommand(0x2B);// Page Command address
	ST   -Y,R27
	ST   -Y,R26
;	startRow -> Y+2
;	endRow -> Y+0
	LDI  R26,LOW(43)
_0x20C000D:
	RCALL _ILI9341_WriteCommand
; ILI9341_WriteByte(startRow>>8); ILI9341_WriteByte(startRow&0xFF);
	CALL SUBOPT_0x1
; ILI9341_WriteByte(endRow>>8); ILI9341_WriteByte(endRow&0xFF);
	CALL SUBOPT_0x2
; TFT_CSX_HIGH;// disable ILI9341 chip
	SBI  0x1B,4
;}
	ADIW R28,4
	RET
; .FEND
;
;static void ILI9341_SetAddressWindow(unsigned int startCol, unsigned int startRow, unsigned int endCol, unsigned int end ...
_ILI9341_SetAddressWindow_G000:
; .FSTART _ILI9341_SetAddressWindow_G000
;    ILI9341_SetCol(startCol,endCol);     // column address set
	ST   -Y,R27
	ST   -Y,R26
;	startCol -> Y+6
;	startRow -> Y+4
;	endCol -> Y+2
;	endRow -> Y+0
	CALL SUBOPT_0x3
	LDD  R26,Y+4
	LDD  R27,Y+4+1
	RCALL _ILI9341_SetCol
;    ILI9341_SetRow(startRow,endRow);     // row address set
	LDD  R30,Y+4
	LDD  R31,Y+4+1
	ST   -Y,R31
	ST   -Y,R30
	LDD  R26,Y+2
	LDD  R27,Y+2+1
	CALL SUBOPT_0x4
;    ILI9341_WriteCommand(0x2C); // write to RAM
;}
	ADIW R28,8
	RET
; .FEND
;
;void ILI9341_FillRectangle(uint16_t x, uint16_t y, uint16_t w, uint16_t h, uint16_t color){
_ILI9341_FillRectangle:
; .FSTART _ILI9341_FillRectangle
;    //   ILI9341_WIDTH = 320, ILI9341_HEIGHT = 240
;    if((x >= ILI9341_WIDTH) || (y >= ILI9341_HEIGHT)) return;
	ST   -Y,R27
	ST   -Y,R26
;	x -> Y+8
;	y -> Y+6
;	w -> Y+4
;	h -> Y+2
;	color -> Y+0
	LDD  R26,Y+8
	LDD  R27,Y+8+1
	CPI  R26,LOW(0x140)
	LDI  R30,HIGH(0x140)
	CPC  R27,R30
	BRSH _0x11
	LDD  R26,Y+6
	LDD  R27,Y+6+1
	CPI  R26,LOW(0xF0)
	LDI  R30,HIGH(0xF0)
	CPC  R27,R30
	BRLO _0x10
_0x11:
	RJMP _0x20C000C
;    if((x + w - 1) >= ILI9341_WIDTH) w = ILI9341_WIDTH - x;
_0x10:
	CALL SUBOPT_0x5
	ADD  R26,R30
	ADC  R27,R31
	SBIW R26,1
	CPI  R26,LOW(0x140)
	LDI  R30,HIGH(0x140)
	CPC  R27,R30
	BRLO _0x13
	LDD  R26,Y+8
	LDD  R27,Y+8+1
	LDI  R30,LOW(320)
	LDI  R31,HIGH(320)
	SUB  R30,R26
	SBC  R31,R27
	STD  Y+4,R30
	STD  Y+4+1,R31
;    if((y + h - 1) >= ILI9341_HEIGHT) h = ILI9341_HEIGHT - y;
_0x13:
	LDD  R30,Y+2
	LDD  R31,Y+2+1
	LDD  R26,Y+6
	LDD  R27,Y+6+1
	ADD  R26,R30
	ADC  R27,R31
	SBIW R26,1
	CPI  R26,LOW(0xF0)
	LDI  R30,HIGH(0xF0)
	CPC  R27,R30
	BRLO _0x14
	LDD  R26,Y+6
	LDD  R27,Y+6+1
	LDI  R30,LOW(240)
	LDI  R31,HIGH(240)
	SUB  R30,R26
	SBC  R31,R27
	STD  Y+2,R30
	STD  Y+2+1,R31
;    ILI9341_SetAddressWindow(x, y, x+w-1, y+h-1);  //0,0,319,239
_0x14:
	CALL SUBOPT_0x6
	CALL SUBOPT_0x6
	CALL SUBOPT_0x7
	ST   -Y,R27
	ST   -Y,R26
	CALL SUBOPT_0x7
	RCALL _ILI9341_SetAddressWindow_G000
;    for(y = h; y > 0; y--) {
	LDD  R30,Y+2
	LDD  R31,Y+2+1
	STD  Y+6,R30
	STD  Y+6+1,R31
_0x16:
	LDD  R26,Y+6
	LDD  R27,Y+6+1
	CALL __CPW02
	BRSH _0x17
;        for(x = w; x > 0; x--) {
	LDD  R30,Y+4
	LDD  R31,Y+4+1
	STD  Y+8,R30
	STD  Y+8+1,R31
_0x19:
	LDD  R26,Y+8
	LDD  R27,Y+8+1
	CALL __CPW02
	BRSH _0x1A
;           ILI9341_WriteByte(color>>8); ILI9341_WriteByte(color&0xFF);
	CALL SUBOPT_0x2
;        }
	LDD  R30,Y+8
	LDD  R31,Y+8+1
	SBIW R30,1
	STD  Y+8,R30
	STD  Y+8+1,R31
	RJMP _0x19
_0x1A:
;    }
	LDD  R30,Y+6
	LDD  R31,Y+6+1
	SBIW R30,1
	STD  Y+6,R30
	STD  Y+6+1,R31
	RJMP _0x16
_0x17:
;}
	RJMP _0x20C000C
; .FEND
;
;void  ILI9341_DrawHorizontalLine( unsigned int poX, unsigned int poY, unsigned int length,unsigned int color) {
_ILI9341_DrawHorizontalLine:
; .FSTART _ILI9341_DrawHorizontalLine
;unsigned int i;
; ILI9341_SetCol(poX,poX + length);
	CALL SUBOPT_0x8
;	poX -> Y+8
;	poY -> Y+6
;	length -> Y+4
;	color -> Y+2
;	i -> R16,R17
	LDD  R30,Y+6
	LDD  R31,Y+6+1
	LDD  R26,Y+10
	LDD  R27,Y+10+1
	ADD  R26,R30
	ADC  R27,R31
	RCALL _ILI9341_SetCol
; ILI9341_SetRow(poY,poY);
	CALL SUBOPT_0x3
	LDD  R26,Y+8
	LDD  R27,Y+8+1
	CALL SUBOPT_0x4
; ILI9341_WriteCommand(0x2c);
; for(i=0; i<length; i++){ILI9341_WriteByte(color>>8); ILI9341_WriteByte(color&0xFF);}
	__GETWRN 16,17,0
_0x1C:
	LDD  R30,Y+4
	LDD  R31,Y+4+1
	CP   R16,R30
	CPC  R17,R31
	BRSH _0x1D
	CALL SUBOPT_0x1
	__ADDWRN 16,17,1
	RJMP _0x1C
_0x1D:
; TFT_CSX_HIGH; // disable ILI9341 chip
	SBI  0x1B,4
;}
	LDD  R17,Y+1
	LDD  R16,Y+0
	RJMP _0x20C000C
; .FEND
;
;void ILI9341_DrawVerticalLine( unsigned int poX, unsigned int poY, unsigned int length, unsigned int color) {
_ILI9341_DrawVerticalLine:
; .FSTART _ILI9341_DrawVerticalLine
;unsigned int i;
; ILI9341_SetCol(poX,poX);
	CALL SUBOPT_0x8
;	poX -> Y+8
;	poY -> Y+6
;	length -> Y+4
;	color -> Y+2
;	i -> R16,R17
	LDD  R26,Y+10
	LDD  R27,Y+10+1
	RCALL _ILI9341_SetCol
; ILI9341_SetRow(poY,poY+length);
	CALL SUBOPT_0x3
	LDD  R30,Y+6
	LDD  R31,Y+6+1
	LDD  R26,Y+8
	LDD  R27,Y+8+1
	ADD  R26,R30
	ADC  R27,R31
	CALL SUBOPT_0x4
; ILI9341_WriteCommand(0x2c);
; for(i=0; i<length; i++){ILI9341_WriteByte(color>>8); ILI9341_WriteByte(color&0xFF);}
	__GETWRN 16,17,0
_0x1F:
	LDD  R30,Y+4
	LDD  R31,Y+4+1
	CP   R16,R30
	CPC  R17,R31
	BRSH _0x20
	CALL SUBOPT_0x1
	__ADDWRN 16,17,1
	RJMP _0x1F
_0x20:
; TFT_CSX_HIGH; // disable ILI9341 chip
	SBI  0x1B,4
;}
	LDD  R17,Y+1
	LDD  R16,Y+0
	RJMP _0x20C000C
; .FEND
;
;void ILI9341_DrawRectangle(unsigned int poX, unsigned int poY, unsigned int length, unsigned int width,unsigned int colo ...
_ILI9341_DrawRectangle:
; .FSTART _ILI9341_DrawRectangle
; ILI9341_DrawHorizontalLine(poX, poY, length, color);
	ST   -Y,R27
	ST   -Y,R26
;	poX -> Y+8
;	poY -> Y+6
;	length -> Y+4
;	width -> Y+2
;	color -> Y+0
	CALL SUBOPT_0x6
	CALL SUBOPT_0x6
	CALL SUBOPT_0x6
	CALL SUBOPT_0x9
; ILI9341_DrawHorizontalLine(poX, poY+width, length, color);
	CALL SUBOPT_0x5
	CALL SUBOPT_0xA
	CALL SUBOPT_0x9
; ILI9341_DrawVerticalLine(poX, poY, width,color);
	CALL SUBOPT_0x6
	CALL SUBOPT_0x3
	LDD  R26,Y+6
	LDD  R27,Y+6+1
	RCALL _ILI9341_DrawVerticalLine
; ILI9341_DrawVerticalLine(poX + length, poY, width,color);
	CALL SUBOPT_0x5
	CALL SUBOPT_0xA
	CALL SUBOPT_0x3
	LDD  R26,Y+6
	LDD  R27,Y+6+1
	RCALL _ILI9341_DrawVerticalLine
;}
_0x20C000C:
	ADIW R28,10
	RET
; .FEND
;
;static void ILI9341_WriteChar(uint16_t x, uint16_t y, char ch, FontDef font, uint16_t color, uint16_t bgcolor, uint8_t s ...
_ILI9341_WriteChar_G000:
; .FSTART _ILI9341_WriteChar_G000
;    uint32_t i, b, j;
;    for(i = 0; i < font.height; i++) {
	ST   -Y,R26
	SBIW R28,12
;	x -> Y+24
;	y -> Y+22
;	ch -> Y+21
;	font -> Y+17
;	color -> Y+15
;	bgcolor -> Y+13
;	size -> Y+12
;	i -> Y+8
;	b -> Y+4
;	j -> Y+0
	LDI  R30,LOW(0)
	__CLRD1S 8
_0x22:
	LDD  R30,Y+18
	__GETD2S 8
	CLR  R31
	CLR  R22
	CLR  R23
	CALL __CPD21
	BRLO PC+2
	RJMP _0x23
;      if (ch>=32 && ch<127) b = font.data[(ch - 32) * font.height + i];// 
	LDD  R26,Y+21
	CPI  R26,LOW(0x20)
	BRLO _0x25
	CPI  R26,LOW(0x7F)
	BRLO _0x26
_0x25:
	RJMP _0x24
_0x26:
	LDD  R30,Y+21
	LDI  R31,0
	SBIW R30,32
	RJMP _0x2C3
;      else b = font.data[(ch - 97) * font.height + i];  //  192 - 96 = 96
_0x24:
	LDD  R30,Y+21
	LDI  R31,0
	SUBI R30,LOW(97)
	SBCI R31,HIGH(97)
_0x2C3:
	MOVW R26,R30
	LDD  R30,Y+18
	LDI  R31,0
	CALL __MULW12
	LDD  R26,Y+8
	LDD  R27,Y+8+1
	ADD  R30,R26
	ADC  R31,R27
	LDD  R26,Y+19
	LDD  R27,Y+19+1
	CALL SUBOPT_0xB
	CALL __GETW1PF
	CALL SUBOPT_0xC
;        for(j = 0; j < font.width; j++) {
	LDI  R30,LOW(0)
	CALL __CLRD1S0
_0x29:
	LDD  R30,Y+17
	CALL SUBOPT_0xD
	CLR  R31
	CLR  R22
	CLR  R23
	CALL __CPD21
	BRSH _0x2A
;            if((b << j) & 0x8000)  {
	LD   R30,Y
	__GETD2S 4
	CALL __LSLD12
	ANDI R31,HIGH(0x8000)
	BREQ _0x2B
;              ILI9341_FillRectangle(x+j*size,y+i*size,size,size,color);
	CALL SUBOPT_0xE
	LDD  R26,Y+23
	LDD  R27,Y+23+1
	RJMP _0x2C4
;            }
;            else {
_0x2B:
;              ILI9341_FillRectangle(x+j*size,y+i*size,size,size,bgcolor);
	CALL SUBOPT_0xE
	LDD  R26,Y+21
	LDD  R27,Y+21+1
_0x2C4:
	RCALL _ILI9341_FillRectangle
;            }
;        }
	CALL SUBOPT_0xF
	RJMP _0x29
_0x2A:
;    }
	__GETD1S 8
	__SUBD1N -1
	__PUTD1S 8
	RJMP _0x22
_0x23:
;}
	ADIW R28,26
	RET
; .FEND
;
;void ILI9341_WriteString(uint16_t x, uint16_t y, const char* str, FontDef font, uint16_t color, uint16_t bgcolor, uint8_ ...
_ILI9341_WriteString:
; .FSTART _ILI9341_WriteString
;    if(size==0) size=1;
	ST   -Y,R26
;	x -> Y+13
;	y -> Y+11
;	*str -> Y+9
;	font -> Y+5
;	color -> Y+3
;	bgcolor -> Y+1
;	size -> Y+0
	LD   R30,Y
	CPI  R30,0
	BRNE _0x2D
	LDI  R30,LOW(1)
	ST   Y,R30
;    while(*str){
_0x2D:
_0x2E:
	LDD  R26,Y+9
	LDD  R27,Y+9+1
	LD   R30,X
	CPI  R30,0
	BRNE PC+2
	RJMP _0x30
;        if(x + font.width >= ILI9341_WIDTH){
	LDD  R30,Y+5
	LDI  R31,0
	LDD  R26,Y+13
	LDD  R27,Y+13+1
	ADD  R26,R30
	ADC  R27,R31
	CPI  R26,LOW(0x140)
	LDI  R30,HIGH(0x140)
	CPC  R27,R30
	BRLO _0x31
;            x = 0;
	LDI  R30,LOW(0)
	STD  Y+13,R30
	STD  Y+13+1,R30
;            y += font.height*size;
	LDD  R26,Y+6
	CLR  R27
	LD   R30,Y
	LDI  R31,0
	CALL __MULW12
	LDD  R26,Y+11
	LDD  R27,Y+11+1
	ADD  R30,R26
	ADC  R31,R27
	STD  Y+11,R30
	STD  Y+11+1,R31
;            if(y + font.height >= ILI9341_HEIGHT) break;
	LDD  R30,Y+6
	LDI  R31,0
	LDD  R26,Y+11
	LDD  R27,Y+11+1
	ADD  R26,R30
	ADC  R27,R31
	CPI  R26,LOW(0xF0)
	LDI  R30,HIGH(0xF0)
	CPC  R27,R30
	BRSH _0x30
;            if(*str == ' ') {
	LDD  R26,Y+9
	LDD  R27,Y+9+1
	LD   R26,X
	CPI  R26,LOW(0x20)
	BRNE _0x33
;                // skip spaces in the beginning of the new line
;                str++;
	LDD  R30,Y+9
	LDD  R31,Y+9+1
	ADIW R30,1
	STD  Y+9,R30
	STD  Y+9+1,R31
;                continue;
	RJMP _0x2E
;            }
;        }
_0x33:
;        ILI9341_WriteChar(x, y, *str, font, color, bgcolor, size);
_0x31:
	LDD  R30,Y+13
	LDD  R31,Y+13+1
	ST   -Y,R31
	ST   -Y,R30
	LDD  R30,Y+13
	LDD  R31,Y+13+1
	ST   -Y,R31
	ST   -Y,R30
	LDD  R26,Y+13
	LDD  R27,Y+13+1
	LD   R30,X
	ST   -Y,R30
	__GETD1S 10
	CALL __PUTPARD1
	CALL SUBOPT_0x10
	CALL SUBOPT_0x10
	LDD  R26,Y+13
	RCALL _ILI9341_WriteChar_G000
;        x += font.width*size;
	LDD  R26,Y+5
	CLR  R27
	LD   R30,Y
	LDI  R31,0
	CALL __MULW12
	LDD  R26,Y+13
	LDD  R27,Y+13+1
	ADD  R30,R26
	ADC  R31,R27
	STD  Y+13,R30
	STD  Y+13+1,R31
;        str++;
	LDD  R30,Y+9
	LDD  R31,Y+9+1
	ADIW R30,1
	STD  Y+9,R30
	STD  Y+9+1,R31
;    }
	RJMP _0x2E
_0x30:
;}
	ADIW R28,15
	RET
; .FEND
;
;void InitInterface(void){
_InitInterface:
; .FSTART _InitInterface
;  TFT_CTRL_DIR |= (1 << TFT_RDX) | (1 << TFT_WRX) | (1 << TFT_DCX) | (1 << TFT_CSX) | (1 << TFT_RST);
	IN   R30,0x1A
	ORI  R30,LOW(0xF4)
	OUT  0x1A,R30
;  TFT_CTRL_DIR |= 0x03;// DATA[0..1]
	IN   R30,0x1A
	ORI  R30,LOW(0x3)
	OUT  0x1A,R30
;  TFT_CTRL_PORT |= (1 << TFT_RDX) | (1 << TFT_WRX) | (1 << TFT_DCX) | (1 << TFT_CSX) & (~(1 << TFT_RST));
	IN   R30,0x1B
	ORI  R30,LOW(0xF0)
	OUT  0x1B,R30
;  TFT_DATA_DIR |= 0xFC;// DATA[2..7]
	IN   R30,0x14
	ORI  R30,LOW(0xFC)
	OUT  0x14,R30
;  TFT_DATA_PORT &= 0x03;// DATA[2..7]
	IN   R30,0x15
	ANDI R30,LOW(0x3)
	OUT  0x15,R30
;}
	RET
; .FEND
;
;unsigned int constrain(unsigned int a, unsigned int b, unsigned int c)
;{
_constrain:
; .FSTART _constrain
;  if (a < b) return b;
	ST   -Y,R27
	ST   -Y,R26
;	a -> Y+4
;	b -> Y+2
;	c -> Y+0
	LDD  R30,Y+2
	LDD  R31,Y+2+1
	LDD  R26,Y+4
	LDD  R27,Y+4+1
	CP   R26,R30
	CPC  R27,R31
	BRSH _0x34
	RJMP _0x20C000B
;  if (c < a) return c;
_0x34:
	LDD  R30,Y+4
	LDD  R31,Y+4+1
	LD   R26,Y
	LDD  R27,Y+1
	CP   R26,R30
	CPC  R27,R31
	BRSH _0x35
	LD   R30,Y
	LDD  R31,Y+1
	RJMP _0x20C000B
;  else return a;
_0x35:
	LDD  R30,Y+4
	LDD  R31,Y+4+1
;}
_0x20C000B:
	ADIW R28,6
	RET
; .FEND
;
;void ILI9341_FillScreen(unsigned int XL, unsigned int XR, unsigned int YU, unsigned int YD, unsigned int color)
;{
_ILI9341_FillScreen:
; .FSTART _ILI9341_FillScreen
;unsigned long XY=0;
;unsigned long i=0;
; if(XL > XR){XL = XL^XR; XR = XL^XR; XL = XL^XR;}
	ST   -Y,R27
	ST   -Y,R26
	SBIW R28,8
	LDI  R30,LOW(0)
	ST   Y,R30
	STD  Y+1,R30
	STD  Y+2,R30
	STD  Y+3,R30
	STD  Y+4,R30
	STD  Y+5,R30
	STD  Y+6,R30
	STD  Y+7,R30
;	XL -> Y+16
;	XR -> Y+14
;	YU -> Y+12
;	YD -> Y+10
;	color -> Y+8
;	XY -> Y+4
;	i -> Y+0
	CALL SUBOPT_0x11
	CP   R30,R26
	CPC  R31,R27
	BRSH _0x37
	CALL SUBOPT_0x11
	EOR  R30,R26
	EOR  R31,R27
	STD  Y+16,R30
	STD  Y+16+1,R31
	CALL SUBOPT_0x11
	EOR  R30,R26
	EOR  R31,R27
	STD  Y+14,R30
	STD  Y+14+1,R31
	CALL SUBOPT_0x11
	EOR  R30,R26
	EOR  R31,R27
	STD  Y+16,R30
	STD  Y+16+1,R31
; if(YU > YD){YU = YU^YD; YD = YU^YD; YU = YU^YD;}
_0x37:
	CALL SUBOPT_0x12
	CP   R30,R26
	CPC  R31,R27
	BRSH _0x38
	CALL SUBOPT_0x12
	EOR  R30,R26
	EOR  R31,R27
	STD  Y+12,R30
	STD  Y+12+1,R31
	CALL SUBOPT_0x12
	EOR  R30,R26
	EOR  R31,R27
	STD  Y+10,R30
	STD  Y+10+1,R31
	CALL SUBOPT_0x12
	EOR  R30,R26
	EOR  R31,R27
	STD  Y+12,R30
	STD  Y+12+1,R31
; XL = constrain(XL, 0, max_X);
_0x38:
	LDD  R30,Y+16
	LDD  R31,Y+16+1
	CALL SUBOPT_0x13
	STD  Y+16,R30
	STD  Y+16+1,R31
; XR = constrain(XR, 0, max_X);
	LDD  R30,Y+14
	LDD  R31,Y+14+1
	CALL SUBOPT_0x13
	STD  Y+14,R30
	STD  Y+14+1,R31
; YU = constrain(YU, 0, max_Y);
	CALL SUBOPT_0x10
	CALL SUBOPT_0x14
	STD  Y+12,R30
	STD  Y+12+1,R31
; YD = constrain(YD, 0, max_Y);
	LDD  R30,Y+10
	LDD  R31,Y+10+1
	ST   -Y,R31
	ST   -Y,R30
	CALL SUBOPT_0x14
	STD  Y+10,R30
	STD  Y+10+1,R31
;#pragma warn-
; XY = (XR-XL+1);
	LDD  R26,Y+16
	LDD  R27,Y+16+1
	LDD  R30,Y+14
	LDD  R31,Y+14+1
	SUB  R30,R26
	SBC  R31,R27
	ADIW R30,1
	CALL SUBOPT_0xC
; XY = XY*(YD-YU+1);
	LDD  R26,Y+12
	LDD  R27,Y+12+1
	LDD  R30,Y+10
	LDD  R31,Y+10+1
	SUB  R30,R26
	SBC  R31,R27
	ADIW R30,1
	__GETD2S 4
	CLR  R22
	CLR  R23
	CALL __MULD12U
	__PUTD1S 4
;#pragma warn+
; ILI9341_SetCol(XL,XR);
	LDD  R30,Y+16
	LDD  R31,Y+16+1
	ST   -Y,R31
	ST   -Y,R30
	LDD  R26,Y+16
	LDD  R27,Y+16+1
	RCALL _ILI9341_SetCol
; ILI9341_SetRow(YU, YD);
	CALL SUBOPT_0x10
	LDD  R26,Y+12
	LDD  R27,Y+12+1
	CALL SUBOPT_0x4
; ILI9341_WriteCommand(0x2C); // start to write to display ram
; for(i=0; i < XY; i++){ILI9341_WriteByte(color>>8); ILI9341_WriteByte(color&0xFF);}
	LDI  R30,LOW(0)
	CALL __CLRD1S0
_0x3A:
	__GETD1S 4
	CALL SUBOPT_0xD
	CALL __CPD21
	BRSH _0x3B
	LDD  R26,Y+9
	RCALL _ILI9341_WriteByte
	LDD  R30,Y+8
	MOV  R26,R30
	RCALL _ILI9341_WriteByte
	CALL SUBOPT_0xF
	RJMP _0x3A
_0x3B:
; TFT_CSX_HIGH; // disable ILI9341 chip
	SBI  0x1B,4
;}
	ADIW R28,18
	RET
; .FEND
;
;void ILI9341_Init(void) {
_ILI9341_Init:
; .FSTART _ILI9341_Init
;//unsigned char orient
;  TFT_RST_HIGH;
	SBI  0x1B,2
;  delay_ms(1);
	LDI  R26,LOW(1)
	LDI  R27,0
	CALL _delay_ms
;  ILI9341_WriteCommand(0x01);
	LDI  R26,LOW(1)
	CALL SUBOPT_0x15
;  ILI9341_WriteByte(0x00);
;  delay_ms(50);
	LDI  R26,LOW(50)
	LDI  R27,0
	CALL _delay_ms
;//DISPLAYOFF
;  ILI9341_WriteCommand(0x28);
	LDI  R26,LOW(40)
	CALL SUBOPT_0x15
;  ILI9341_WriteByte(0x00);
;//Power Control 1
;  ILI9341_WriteCommand(0xC0);
	LDI  R26,LOW(192)
	RCALL _ILI9341_WriteCommand
;  ILI9341_WriteByte(0x23);
	LDI  R26,LOW(35)
	RCALL _ILI9341_WriteByte
;//Power Control 2
;  ILI9341_WriteCommand(0xC1);
	LDI  R26,LOW(193)
	RCALL _ILI9341_WriteCommand
;  ILI9341_WriteByte(0x10);
	LDI  R26,LOW(16)
	RCALL _ILI9341_WriteByte
;//VCOM Control 1
;  ILI9341_WriteCommand(0xC5);
	LDI  R26,LOW(197)
	RCALL _ILI9341_WriteCommand
;  ILI9341_WriteByte(0x2B);
	LDI  R26,LOW(43)
	RCALL _ILI9341_WriteByte
;  ILI9341_WriteByte(0x2B);
	LDI  R26,LOW(43)
	RCALL _ILI9341_WriteByte
;//VCOM Control 2
;  ILI9341_WriteCommand(0xC7);
	LDI  R26,LOW(199)
	RCALL _ILI9341_WriteCommand
;  ILI9341_WriteByte(0xC0);
	LDI  R26,LOW(192)
	RCALL _ILI9341_WriteByte
;//-MEMCONTROL-----------------
;  ILI9341_WriteCommand(ILI9341_MADCTL);
	LDI  R26,LOW(54)
	RCALL _ILI9341_WriteCommand
;  ILI9341_WriteByte(ILI9341_MADCTL_MV | ILI9341_MADCTL_BGR);
	LDI  R26,LOW(40)
	RCALL _ILI9341_WriteByte
;  max_X=TFTWIDTH-1; max_Y=TFTHEIGHT-1;
	LDI  R30,LOW(319)
	LDI  R31,HIGH(319)
	STS  _max_X,R30
	STS  _max_X+1,R31
	LDI  R30,LOW(239)
	LDI  R31,HIGH(239)
	STS  _max_Y,R30
	STS  _max_Y+1,R31
;  ILI9341_SetCol(0,max_X); ILI9341_SetRow(0,max_Y);
	CALL SUBOPT_0x16
	CALL SUBOPT_0x17
	RCALL _ILI9341_SetCol
	CALL SUBOPT_0x16
	CALL SUBOPT_0x18
	RCALL _ILI9341_SetRow
;//----------------------------
;//COLMOD: Pixel Format Set
;  ILI9341_WriteCommand(0x3A);
	LDI  R26,LOW(58)
	RCALL _ILI9341_WriteCommand
;  ILI9341_WriteByte(0x55);
	LDI  R26,LOW(85)
	RCALL _ILI9341_WriteByte
;//Frame Rate Control (In Normal Mode/Full Colors)
;  ILI9341_WriteCommand(0xB1);
	LDI  R26,LOW(177)
	CALL SUBOPT_0x15
;  ILI9341_WriteByte(0x00);
;  ILI9341_WriteByte(0x1B);
	LDI  R26,LOW(27)
	RCALL _ILI9341_WriteByte
;//ENTRYMODE
;  ILI9341_WriteCommand(0xB7);
	LDI  R26,LOW(183)
	RCALL _ILI9341_WriteCommand
;  ILI9341_WriteByte(0x07);
	LDI  R26,LOW(7)
	RCALL _ILI9341_WriteByte
;  ILI9341_WriteCommand(ILI9341_SLEEPOUT);
	LDI  R26,LOW(17)
	CALL SUBOPT_0x15
;  ILI9341_WriteByte(0x00);
;  delay_ms(150);
	LDI  R26,LOW(150)
	LDI  R27,0
	CALL _delay_ms
;//Display On
;  ILI9341_WriteCommand(ILI9341_DISPLAYON);
	LDI  R26,LOW(41)
	CALL SUBOPT_0x15
;  ILI9341_WriteByte(0x00);
;  delay_ms(500);
	LDI  R26,LOW(500)
	LDI  R27,HIGH(500)
	CALL _delay_ms
;}
	RET
; .FEND
;#include "twi.c"
;#include "twi.h"
;#define BITRATE      100     //Bit Rate: 66,000 kHz -> TWBR=0x14;/Bit Rate: 102,000 kH -> TWBR=0x0A;/Bit Rate: 115,000 k ...
;
;unsigned char wait_int(void)    //Wait for TWINT flag set.
; 0000 005E {
_wait_int:
; .FSTART _wait_int
; unsigned char count=0, val=0;
;  while (!(TWCR & 0x80)){if(++count>200) {TWBR=0; TWCR=0; val=1; TWBR=BITRATE; break;}};
	ST   -Y,R17
	ST   -Y,R16
;	count -> R17
;	val -> R16
	LDI  R17,0
	LDI  R16,0
_0x3C:
	IN   R30,0x36
	ANDI R30,LOW(0x80)
	BRNE _0x3E
	SUBI R17,-LOW(1)
	CPI  R17,201
	BRLO _0x3F
	LDI  R30,LOW(0)
	OUT  0x0,R30
	OUT  0x36,R30
	LDI  R16,LOW(1)
	LDI  R30,LOW(100)
	OUT  0x0,R30
	RJMP _0x3E
_0x3F:
	RJMP _0x3C
_0x3E:
;  return val;
	MOV  R30,R16
	LD   R16,Y+
	LD   R17,Y+
	RET
;}
; .FEND
;
;unsigned char read_TWI(char devaddr, int address, char *data, int byte)
;{
_read_TWI:
; .FSTART _read_TWI
; unsigned char ok=1;
; int tmpint;
;  TWCR = 0xA4;//(1<<TWINT)|(1<<TWSTA)|(TWEN) - Send START condition
	ST   -Y,R27
	ST   -Y,R26
	CALL __SAVELOCR4
;	devaddr -> Y+10
;	address -> Y+8
;	*data -> Y+6
;	byte -> Y+4
;	ok -> R17
;	tmpint -> R18,R19
	LDI  R17,1
	LDI  R30,LOW(164)
	CALL SUBOPT_0x19
;  if(wait_int()){ok=0; goto EXIT_read_clock;};
	BREQ _0x40
	LDI  R17,LOW(0)
	RJMP _0x41
_0x40:
;  if((TWSR & 0xF8) != START_OK){ok=0; goto EXIT_read_clock;};// This indicates that the START condition has been transmi ...
	IN   R30,0x1
	ANDI R30,LOW(0xF8)
	CPI  R30,LOW(0x8)
	BREQ _0x42
	LDI  R17,LOW(0)
	RJMP _0x41
_0x42:
;  TWDR = devaddr+0;//Load SLA_W into TWDR register. Clear TWINT bit in TWCR to start transmission of address
	LDD  R30,Y+10
	CALL SUBOPT_0x1A
;  TWCR = 0x84;//(1<<TWINT) | (1<<TWEN)
;  if (wait_int()){ok=0; goto EXIT_read_clock;};
	BREQ _0x43
	LDI  R17,LOW(0)
	RJMP _0x41
_0x43:
;  if ((TWSR & 0xF8) != MT_SLA_ACK){ok=0; goto EXIT_read_clock;};// This indicates that the ACKNOWLEDGE  has been riceive ...
	IN   R30,0x1
	ANDI R30,LOW(0xF8)
	CPI  R30,LOW(0x18)
	BREQ _0x44
	LDI  R17,LOW(0)
	RJMP _0x41
_0x44:
;  if ((devaddr&0xF0)==0xA0)//  Serial EEPROM   FIRST WORD ADDRESS  "0"
	LDD  R30,Y+10
	ANDI R30,LOW(0xF0)
	CPI  R30,LOW(0xA0)
	BRNE _0x45
;   {
;    ok = address>>8;
	LDD  R30,Y+8
	LDD  R31,Y+8+1
	CALL __ASRW8
	MOV  R17,R30
;    TWDR = ok;//Load DATA into TWDR register. Clear TWINT bit in TWCR to start transmission of address
	OUT  0x3,R17
;    ok = 1;
	LDI  R17,LOW(1)
;    TWCR = 0x84;//(1<<TWINT) | (1<<TWEN)
	LDI  R30,LOW(132)
	CALL SUBOPT_0x19
;    if (wait_int()){ok=0; goto EXIT_read_clock;};
	BREQ _0x46
	LDI  R17,LOW(0)
	RJMP _0x41
_0x46:
;    if ((TWSR & 0xF8) != MT_DATA_ACK){ok=0; goto EXIT_read_clock;};
	IN   R30,0x1
	ANDI R30,LOW(0xF8)
	CPI  R30,LOW(0x28)
	BREQ _0x47
	LDI  R17,LOW(0)
	RJMP _0x41
_0x47:
;   }
;  TWDR = address;//Load DATA into TWDR register. Clear TWINT bit in TWCR to start transmission of address
_0x45:
	LDD  R30,Y+8
	CALL SUBOPT_0x1A
;  TWCR = 0x84;//(1<<TWINT) | (1<<TWEN)
;  if (wait_int()){ok=0; goto EXIT_read_clock;};
	BREQ _0x48
	LDI  R17,LOW(0)
	RJMP _0x41
_0x48:
;  if ((TWSR & 0xF8) != MT_DATA_ACK){ok=0; goto EXIT_read_clock;};
	IN   R30,0x1
	ANDI R30,LOW(0xF8)
	CPI  R30,LOW(0x28)
	BREQ _0x49
	LDI  R17,LOW(0)
	RJMP _0x41
_0x49:
;  TWCR = 0xA4;//(1<<TWINT)|(1<<TWSTA)|(TWEN) - Send REPEATED START condition
	LDI  R30,LOW(164)
	CALL SUBOPT_0x19
;  if (wait_int()){ok=0; goto EXIT_read_clock;};
	BREQ _0x4A
	LDI  R17,LOW(0)
	RJMP _0x41
_0x4A:
;  if ((TWSR & 0xF8) != REPIT_START_OK){ok=0; goto EXIT_read_clock;};
	IN   R30,0x1
	ANDI R30,LOW(0xF8)
	CPI  R30,LOW(0x10)
	BREQ _0x4B
	LDI  R17,LOW(0)
	RJMP _0x41
_0x4B:
;  TWDR = devaddr+1;//Load SLA_R into TWDR register. Clear TWINT bit in TWCR to start transmission of address
	LDD  R30,Y+10
	SUBI R30,-LOW(1)
	CALL SUBOPT_0x1A
;  TWCR = 0x84;//(1<<TWINT) | (1<<TWEN)
;  if (wait_int()){ok=0; goto EXIT_read_clock;};
	BREQ _0x4C
	LDI  R17,LOW(0)
	RJMP _0x41
_0x4C:
;  if ((TWSR & 0xF8) != MR_SLA_ACK){ok=0; goto EXIT_read_clock;};
	IN   R30,0x1
	ANDI R30,LOW(0xF8)
	CPI  R30,LOW(0x40)
	BREQ _0x4D
	LDI  R17,LOW(0)
	RJMP _0x41
_0x4D:
;  if(byte>1)
	LDD  R26,Y+4
	LDD  R27,Y+4+1
	SBIW R26,2
	BRLT _0x4E
;   {
;    for (tmpint=0; tmpint<byte-1; tmpint++)
	__GETWRN 18,19,0
_0x50:
	LDD  R30,Y+4
	LDD  R31,Y+4+1
	SBIW R30,1
	CP   R18,R30
	CPC  R19,R31
	BRGE _0x51
;     {
;      TWCR = 0xC4;//(1<<TWINT) | (1<<TWEN) | (1<<TWEA) *!*!*!       TWINT   ...
	LDI  R30,LOW(196)
	CALL SUBOPT_0x19
;      if (wait_int()){ok=0; goto EXIT_read_clock;};
	BREQ _0x52
	LDI  R17,LOW(0)
	RJMP _0x41
_0x52:
;      if ((TWSR & 0xF8) != MR_DATA_ACK){ok=0; goto EXIT_read_clock;};
	IN   R30,0x1
	ANDI R30,LOW(0xF8)
	CPI  R30,LOW(0x50)
	BREQ _0x53
	LDI  R17,LOW(0)
	RJMP _0x41
_0x53:
;      *data++ = TWDR;//Read DATA into TWDR register.
	LDD  R26,Y+6
	LDD  R27,Y+6+1
	ADIW R26,1
	STD  Y+6,R26
	STD  Y+6+1,R27
	SBIW R26,1
	IN   R30,0x3
	ST   X,R30
;     };
	__ADDWRN 18,19,1
	RJMP _0x50
_0x51:
;   };
_0x4E:
;  TWCR = 0x84;//(1<<TWINT) | (1<<TWEN)
	LDI  R30,LOW(132)
	CALL SUBOPT_0x19
;  if (wait_int()){ok=0; goto EXIT_read_clock;};
	BREQ _0x54
	LDI  R17,LOW(0)
	RJMP _0x41
_0x54:
;  if ((TWSR & 0xF8) != MR_DATA_NOT_ACK){ok=0; goto EXIT_read_clock;};
	IN   R30,0x1
	ANDI R30,LOW(0xF8)
	CPI  R30,LOW(0x58)
	BREQ _0x55
	LDI  R17,LOW(0)
	RJMP _0x41
_0x55:
;  *data = TWDR;//Read DATA into TWDR register.
	IN   R30,0x3
	LDD  R26,Y+6
	LDD  R27,Y+6+1
	ST   X,R30
;EXIT_read_clock:
_0x41:
;  TWCR = 0x94;//(1<<TWINT)|(1<<TWEN)|(1<<TWSTO) - Transmit STOP condition
	LDI  R30,LOW(148)
	OUT  0x36,R30
;  return ok;
	MOV  R30,R17
	CALL __LOADLOCR4
	RJMP _0x20C000A
;}
; .FEND
;
;unsigned char write_TWI(char devaddr, int address, char *data, char byte)
;{
_write_TWI:
; .FSTART _write_TWI
; unsigned char i, ok=1;
;  TWCR = 0xA4;//(1<<TWINT)|(1<<TWSTA)|(TWEN) - Send START condition
	ST   -Y,R26
	ST   -Y,R17
	ST   -Y,R16
;	devaddr -> Y+7
;	address -> Y+5
;	*data -> Y+3
;	byte -> Y+2
;	i -> R17
;	ok -> R16
	LDI  R16,1
	LDI  R30,LOW(164)
	OUT  0x36,R30
;  while (!(TWCR & 0x80));//Wait for TWINT flag set. This indicates that the START condition has been transmitted
_0x56:
	IN   R30,0x36
	ANDI R30,LOW(0x80)
	BREQ _0x56
;  if ((TWSR & 0xF8) != START_OK){ok=0; goto EXIT_write_clock;};
	IN   R30,0x1
	ANDI R30,LOW(0xF8)
	CPI  R30,LOW(0x8)
	BREQ _0x59
	LDI  R16,LOW(0)
	RJMP _0x5A
_0x59:
;  TWDR = devaddr+0;//Load SLA_W into TWDR register. Clear TWINT bit in TWCR to start transmission of address
	LDD  R30,Y+7
	OUT  0x3,R30
;  TWCR = 0x84;//(1<<TWINT) | (1<<TWEN)
	LDI  R30,LOW(132)
	OUT  0x36,R30
;  while (!(TWCR & 0x80));//Wait for TWINT flag set. This indicates that the START condition has been transmitted
_0x5B:
	IN   R30,0x36
	ANDI R30,LOW(0x80)
	BREQ _0x5B
;  if ((TWSR & 0xF8) != MT_SLA_ACK){ok=0; goto EXIT_write_clock;};
	IN   R30,0x1
	ANDI R30,LOW(0xF8)
	CPI  R30,LOW(0x18)
	BREQ _0x5E
	LDI  R16,LOW(0)
	RJMP _0x5A
_0x5E:
;  if ((devaddr&0xF0)==0xA0)//  Serial EEPROM   FIRST WORD ADDRESS  "0"
	LDD  R30,Y+7
	ANDI R30,LOW(0xF0)
	CPI  R30,LOW(0xA0)
	BRNE _0x5F
;   {
;    ok = address>>8;
	LDD  R30,Y+5
	LDD  R31,Y+5+1
	CALL __ASRW8
	MOV  R16,R30
;    TWDR = ok;//Load DATA into TWDR register. Clear TWINT bit in TWCR to start transmission of address
	OUT  0x3,R16
;    ok = 1;
	LDI  R16,LOW(1)
;    TWCR = 0x84;//(1<<TWINT) | (1<<TWEN)
	LDI  R30,LOW(132)
	OUT  0x36,R30
;    while (!(TWCR & 0x80));//Wait for TWINT flag set. This indicates that the START condition has been transmitted
_0x60:
	IN   R30,0x36
	ANDI R30,LOW(0x80)
	BREQ _0x60
;    if ((TWSR & 0xF8) != MT_DATA_ACK){ok=0; goto EXIT_write_clock;};
	IN   R30,0x1
	ANDI R30,LOW(0xF8)
	CPI  R30,LOW(0x28)
	BREQ _0x63
	LDI  R16,LOW(0)
	RJMP _0x5A
_0x63:
;   }
;  TWDR = address;//Load DATA into TWDR register. Clear TWINT bit in TWCR to start transmission of address
_0x5F:
	LDD  R30,Y+5
	OUT  0x3,R30
;  TWCR = 0x84;//(1<<TWINT) | (1<<TWEN)
	LDI  R30,LOW(132)
	OUT  0x36,R30
;  while (!(TWCR & 0x80));//Wait for TWINT flag set. This indicates that the START condition has been transmitted
_0x64:
	IN   R30,0x36
	ANDI R30,LOW(0x80)
	BREQ _0x64
;  if ((TWSR & 0xF8) != MT_DATA_ACK){ok=0; goto EXIT_write_clock;};
	IN   R30,0x1
	ANDI R30,LOW(0xF8)
	CPI  R30,LOW(0x28)
	BREQ _0x67
	LDI  R16,LOW(0)
	RJMP _0x5A
_0x67:
;  for (i=0; i<byte; i++)
	LDI  R17,LOW(0)
_0x69:
	LDD  R30,Y+2
	CP   R17,R30
	BRSH _0x6A
;  {
;    TWDR = *data++;//Load DATA into TWDR register.
	LDD  R26,Y+3
	LDD  R27,Y+3+1
	LD   R30,X+
	STD  Y+3,R26
	STD  Y+3+1,R27
	OUT  0x3,R30
;    TWCR = 0x84;//(1<<TWINT) | (1<<TWEN)
	LDI  R30,LOW(132)
	OUT  0x36,R30
;    //if (wait_int()) goto EXIT_write_clock;
;    while (!(TWCR & 0x80));//Wait for TWINT flag set. This indicates that the START condition has been transmitted
_0x6B:
	IN   R30,0x36
	ANDI R30,LOW(0x80)
	BREQ _0x6B
;    if ((TWSR & 0xF8) != MT_DATA_ACK){ok=0; goto EXIT_write_clock;};
	IN   R30,0x1
	ANDI R30,LOW(0xF8)
	CPI  R30,LOW(0x28)
	BREQ _0x6E
	LDI  R16,LOW(0)
	RJMP _0x5A
_0x6E:
;  }
	SUBI R17,-1
	RJMP _0x69
_0x6A:
;EXIT_write_clock:
_0x5A:
;  TWCR = 0x94;//(1<<TWINT)|(1<<TWEN)|(1<<TWSTO) - Transmit STOP condition
	LDI  R30,LOW(148)
	OUT  0x36,R30
;  return ok;
	MOV  R30,R16
	LDD  R17,Y+1
	LDD  R16,Y+0
	RJMP _0x20C0006
;}
; .FEND
;/*
;void wait_clock(unsigned char m)    //Wait for TWINT flag set. This indicates that the START condition has been transmit ...
;{
; unsigned char count=0, err=0;
; do
;   {
;     if (m) err = write_clock(clock_buffer);
;     else err = read_clock();
;     count++;
;   } while (sec==1 && count<5);
;}
;*/
;#include "dht.c"
;#define dhtport PORTB.0
;#define dhtddr DDRB.0
;#define dhtpin PINB.0
;
;unsigned char startDHT(void){
; 0000 005F unsigned char startDHT(void){
_startDHT:
; .FSTART _startDHT
;   unsigned char flag=0;
;   dhtport = 0;
	ST   -Y,R17
;	flag -> R17
	LDI  R17,0
	CBI  0x18,0
;   dhtddr = 1;   // MCU pull down
	SBI  0x17,0
;   if(typeS) delay_ms(30); // MCU Sends out Start Signal to DHT and pull down voltage for at least 18ms to let DHT11 det ...
	SBRS R2,5
	RJMP _0x73
	LDI  R26,LOW(30)
	RJMP _0x2C5
;   else delay_ms(10); // MCU Sends out Start Signal to DHT and pull down voltage for at least 18ms to let DHT21 detect t ...
_0x73:
	LDI  R26,LOW(10)
_0x2C5:
	LDI  R27,0
	CALL _delay_ms
;   dhtddr = 0;   // MCU pull up
	CBI  0x17,0
;   delay_us(60); // wait for DHT respond 20-40uS
	__DELAY_USW 240
;   if(!dhtpin){
	SBIC 0x16,0
	RJMP _0x77
;      while(!dhtpin) {flag++;} // low-voltage-level response signal & keeps it for 80us (flag=32 Response to low time fi ...
_0x78:
	SBIC 0x16,0
	RJMP _0x7A
	SUBI R17,-1
	RJMP _0x78
_0x7A:
;      if(flag<10) return 0;
	CPI  R17,10
	BRSH _0x7B
	LDI  R30,LOW(0)
	RJMP _0x20C0003
;      else {flag=0; while(dhtpin) {flag++;}}  // hi-voltage-level response signal & keeps it for 80us (flag=55 Response  ...
_0x7B:
	LDI  R17,LOW(0)
_0x7D:
	SBIS 0x16,0
	RJMP _0x7F
	SUBI R17,-1
	RJMP _0x7D
_0x7F:
;      if(flag<10) return 0;
	CPI  R17,10
	BRSH _0x80
	LDI  R30,LOW(0)
	RJMP _0x20C0003
;      else return 1;
_0x80:
	LDI  R30,LOW(1)
	RJMP _0x20C0003
;   }
;   else return 0;
_0x77:
	LDI  R30,LOW(0)
	RJMP _0x20C0003
;}
; .FEND
;
;unsigned char readDHT(void){
_readDHT:
; .FSTART _readDHT
; unsigned char i, j, flag=0, tem[5];
; unsigned int tempRH;
; static unsigned char err;
; if(startDHT()){
	SBIW R28,5
	CALL __SAVELOCR6
;	i -> R17
;	j -> R16
;	flag -> R19
;	tem -> Y+6
;	tempRH -> R20,R21
	LDI  R19,0
	RCALL _startDHT
	CPI  R30,0
	BRNE PC+2
	RJMP _0x83
;    for(i=0; i<5; i++){
	LDI  R17,LOW(0)
_0x85:
	CPI  R17,5
	BRSH _0x86
;       tem[i]=0;
	CALL SUBOPT_0x1B
	LDI  R30,LOW(0)
	ST   X,R30
;       for(j=0; j<8; j++){
	LDI  R16,LOW(0)
_0x88:
	CPI  R16,8
	BRSH _0x89
;          tem[i]<<= 1;
	CALL SUBOPT_0x1B
	LD   R30,X
	LSL  R30
	ST   X,R30
;          #asm("cli")     // Global enable interrupts
	cli
;//        delay_us(30);   // When DHT is sending data to MCU, every bit of data begins with the 50us low-voltage-level
;                          // and the length of the following high-voltage-level signal determines whether data bit is "0 ...
;          while(!dhtpin) {flag++;}//   
_0x8A:
	SBIC 0x16,0
	RJMP _0x8C
	SUBI R19,-1
	RJMP _0x8A
_0x8C:
;          delay_us(32);   //26-28u voltage-length means data "0" / 70u voltage-length means data "1"
	__DELAY_USB 171
;          flag=0;
	LDI  R19,LOW(0)
;          while(dhtpin) {flag++;}//   
_0x8D:
	SBIS 0x16,0
	RJMP _0x8F
	SUBI R19,-1
	RJMP _0x8D
_0x8F:
;          if(flag>10) tem[i]|= 1;// data "1"
	CPI  R19,11
	BRLO _0x90
	CALL SUBOPT_0x1B
	LD   R30,X
	ORI  R30,1
	ST   X,R30
;          #asm("sei")     // Global enable interrupts
_0x90:
	sei
;       };
	SUBI R16,-1
	RJMP _0x88
_0x89:
;    };
	SUBI R17,-1
	RJMP _0x85
_0x86:
;    flag=tem[0]+tem[1]+tem[2]+tem[3];
	LDD  R30,Y+7
	LDD  R26,Y+6
	ADD  R30,R26
	LDD  R26,Y+8
	ADD  R30,R26
	LDD  R26,Y+9
	ADD  R30,R26
	MOV  R19,R30
;    if(flag==tem[4]){
	LDD  R30,Y+10
	CP   R30,R19
	BREQ PC+2
	RJMP _0x91
;      if(typeS) {tempRH =(int)tem[0]*10; pvT =(int)tem[2]*10;}            // Other = 1 -> DHT11
	SBRS R2,5
	RJMP _0x92
	LDD  R26,Y+6
	LDI  R30,LOW(10)
	MUL  R30,R26
	MOVW R20,R0
	LDD  R26,Y+8
	MUL  R30,R26
	MOVW R30,R0
	RJMP _0x2C6
;      else {tempRH =(int)tem[0]*256+tem[1]; pvT =(int)tem[2]*256+tem[3];} // Other = 0 -> DHT21
_0x92:
	LDD  R26,Y+6
	CALL SUBOPT_0x1C
	LDD  R30,Y+7
	LDI  R31,0
	ADD  R30,R26
	ADC  R31,R27
	MOVW R20,R30
	LDD  R26,Y+8
	CALL SUBOPT_0x1C
	LDD  R30,Y+9
	LDI  R31,0
	ADD  R30,R26
	ADC  R31,R27
_0x2C6:
	STS  _pvT,R30
	STS  _pvT+1,R31
;      pvT  += offsetT;
	LDS  R30,_offsetT
	LDS  R31,_offsetT+1
	LDS  R26,_pvT
	LDS  R27,_pvT+1
	ADD  R30,R26
	ADC  R31,R27
	STS  _pvT,R30
	STS  _pvT+1,R31
;      pvRH = tempRH/10;
	MOVW R26,R20
	LDI  R30,LOW(10)
	LDI  R31,HIGH(10)
	CALL __DIVW21U
	CALL SUBOPT_0x1D
;      pvRH += offsetRH;                  //   
	LDS  R30,_offsetRH
	LDS  R31,_offsetRH+1
	CALL SUBOPT_0x1E
	ADD  R30,R26
	ADC  R31,R27
	CALL SUBOPT_0x1D
;      err = 0;
	LDI  R30,LOW(0)
	STS  _err_S0000013000,R30
;      if(pvRH>100) pvRH=100; else if (pvRH<1) pvRH=1;
	CALL SUBOPT_0x1E
	CPI  R26,LOW(0x65)
	LDI  R30,HIGH(0x65)
	CPC  R27,R30
	BRLT _0x94
	LDI  R30,LOW(100)
	LDI  R31,HIGH(100)
	RJMP _0x2C7
_0x94:
	CALL SUBOPT_0x1E
	SBIW R26,1
	BRGE _0x96
	LDI  R30,LOW(1)
	LDI  R31,HIGH(1)
_0x2C7:
	STS  _pvRH,R30
	STS  _pvRH+1,R31
;      return 1;
_0x96:
	LDI  R30,LOW(1)
	RJMP _0x20C0009
;    }
;    else if(++err>3) return 0;  //   CRC    errors |=0x10;
_0x91:
	LDS  R26,_err_S0000013000
	SUBI R26,-LOW(1)
	STS  _err_S0000013000,R26
	CPI  R26,LOW(0x4)
	BRLO _0x98
	LDI  R30,LOW(0)
	RJMP _0x20C0009
; }
_0x98:
; else return 0;     //   
	RJMP _0x99
_0x83:
	LDI  R30,LOW(0)
	RJMP _0x20C0009
;}
_0x99:
	RJMP _0x20C0009
; .FEND
;#include "buttons.c"
;#define YP_DIR          DDRA.TFT_WRX   // TFT_WRX=6
;#define YP_PORT         PORTA.TFT_WRX  // TFT_WRX=6
;#define YP_PIN          TFT_WRX        // = 6
;
;#define YM_DIR          DDRC.7
;#define YM_PORT         PORTC.7
;
;#define XP_DIR          DDRC.6
;#define XP_PORT         PORTC.6
;
;#define XM_DIR          DDRA.TFT_DCX   // TFT_DCX=5
;#define XM_PORT         PORTA.TFT_DCX  // TFT_DCX=5
;#define XM_PIN          TFT_DCX        // = 5
;
;#define MINPRESSURE     10
;#define MAXPRESSURE     1000
;#define INPUT           0
;#define OUTPUT          1
;#define LOW             0
;#define HIGH            1
;
;#define TS_MINX        125
;#define TS_MAXX        907
;#define TS_MINY        130
;#define TS_MAXY        935
;
;unsigned char buttonCount, plusCount;
;unsigned int point_X, point_Y, point_Z, bottom_Y, left_X;
;struct ram_structure {int x,y; char w,h;} buttons[4];// Global structure located in RAM
;struct {int x,y; char w,h;} plus[8];// Global structure located in RAM
;
;// Read the AD conversion result
;unsigned int read_adc(unsigned char adc_input)
; 0000 0060 {
_read_adc:
; .FSTART _read_adc
;adc_input |= (ADC_VREF_TYPE & 0xff);
	ST   -Y,R26
;	adc_input -> Y+0
	LD   R30,Y
	ORI  R30,0x40
	ST   Y,R30
;ADMUX=adc_input;
	OUT  0x7,R30
;// Delay needed for the stabilization of the ADC input voltage
;delay_us(10);
	__DELAY_USB 53
;// Start the AD conversion
;ADCSRA|=0x40;
	SBI  0x6,6
;// Wait for the AD conversion to complete
;while ((ADCSRA & 0x10)==0);
_0x9A:
	SBIS 0x6,4
	RJMP _0x9A
;ADCSRA|=0x10;
	SBI  0x6,4
;return ADCW;
	IN   R30,0x4
	IN   R31,0x4+1
	RJMP _0x20C0004
;}
; .FEND
;
;void initializePlus(char y, char row, char h){//  
_initializePlus:
; .FSTART _initializePlus
; char i,j,indx, w=40, col=2;
; unsigned int x;
;  if(h<14) h=14;
	ST   -Y,R26
	SBIW R28,2
	CALL __SAVELOCR6
;	y -> Y+10
;	row -> Y+9
;	h -> Y+8
;	i -> R17
;	j -> R16
;	indx -> R19
;	w -> R18
;	col -> R21
;	x -> Y+6
	LDI  R18,40
	LDI  R21,2
	LDD  R26,Y+8
	CPI  R26,LOW(0xE)
	BRSH _0x9D
	LDI  R30,LOW(14)
	STD  Y+8,R30
;  y = y - 4;      // Y   
_0x9D:
	LDD  R30,Y+10
	SUBI R30,LOW(4)
	STD  Y+10,R30
;  indx = 0;
	LDI  R19,LOW(0)
;  for (j=0; j<row; j++){
	LDI  R16,LOW(0)
_0x9F:
	LDD  R30,Y+9
	CP   R16,R30
	BRSH _0xA0
;    x = TFTWIDTH-90;// X  1 
	LDI  R30,LOW(230)
	LDI  R31,HIGH(230)
	STD  Y+6,R30
	STD  Y+6+1,R31
;#pragma warn-
;    for (i=0; i<col; i++){
	LDI  R17,LOW(0)
_0xA2:
	CP   R17,R21
	BRSH _0xA3
;        plus[indx].x = x+i*(w+5);//   
	LDI  R26,LOW(6)
	MUL  R19,R26
	MOVW R30,R0
	SUBI R30,LOW(-_plus)
	SBCI R31,HIGH(-_plus)
	CALL SUBOPT_0x1F
	LDD  R26,Y+6
	LDD  R27,Y+6+1
	ADD  R30,R26
	ADC  R31,R27
	CALL SUBOPT_0x20
;        plus[indx].w = w;
	__ADDW1MN _plus,4
	ST   Z,R18
;        plus[indx].h = h;
	LDI  R26,LOW(6)
	MUL  R19,R26
	MOVW R30,R0
	__ADDW1MN _plus,5
	LDD  R26,Y+8
	STD  Z+0,R26
;        plus[indx].y = y;
	LDI  R26,LOW(6)
	MUL  R19,R26
	MOVW R30,R0
	__ADDW1MN _plus,2
	MOVW R26,R30
	LDD  R30,Y+10
	LDI  R31,0
	ST   X+,R30
	ST   X,R31
;        indx++;
	SUBI R19,-1
;    }
	SUBI R17,-1
	RJMP _0xA2
_0xA3:
;    y += (h+6);//   
	LDD  R30,Y+8
	SUBI R30,-LOW(6)
	LDD  R26,Y+10
	ADD  R30,R26
	STD  Y+10,R30
;#pragma warn+
;  }
	SUBI R16,-1
	RJMP _0x9F
_0xA0:
;  left_X = x;//       
	LDD  R30,Y+6
	LDD  R31,Y+6+1
	STS  _left_X,R30
	STS  _left_X+1,R31
;  plusCount = col * row;//   
	LDD  R30,Y+9
	MULS R30,R21
	MOVW R30,R0
	STS  _plusCount,R30
;}
	RJMP _0x20C0009
; .FEND
;
;void initializeButtons(char col, char row, char h){//  
_initializeButtons:
; .FSTART _initializeButtons
; char i,j,indx, w;
; unsigned int x,y;
;  switch (col)                  //     -   
	ST   -Y,R26
	CALL SUBOPT_0x21
;	col -> Y+10
;	row -> Y+9
;	h -> Y+8
;	i -> R17
;	j -> R16
;	indx -> R19
;	w -> R18
;	x -> R20,R21
;	y -> Y+6
	LDI  R31,0
;   {
;    case 4: w = max_X/4-6; break;  // 72
	CPI  R30,LOW(0x4)
	LDI  R26,HIGH(0x4)
	CPC  R31,R26
	BRNE _0xA7
	CALL SUBOPT_0x22
	CALL __LSRW2
	RJMP _0x2C8
;    case 3: w = max_X/3-6; break;  // 100
_0xA7:
	CPI  R30,LOW(0x3)
	LDI  R26,HIGH(0x3)
	CPC  R31,R26
	BRNE _0xA8
	CALL SUBOPT_0x17
	LDI  R30,LOW(3)
	LDI  R31,HIGH(3)
	CALL __DIVW21U
	RJMP _0x2C8
;    case 2: w = max_X/2-9; break;  // 150
_0xA8:
	CPI  R30,LOW(0x2)
	LDI  R26,HIGH(0x2)
	CPC  R31,R26
	BRNE _0xAA
	CALL SUBOPT_0x22
	LSR  R31
	ROR  R30
	SUBI R30,LOW(9)
	RJMP _0x2C9
;    default: w = max_X-6;
_0xAA:
	LDS  R30,_max_X
_0x2C8:
	SUBI R30,LOW(6)
_0x2C9:
	MOV  R18,R30
;   };
;  if(h<20) h=20;
	LDD  R26,Y+8
	CPI  R26,LOW(0x14)
	BRSH _0xAB
	LDI  R30,LOW(20)
	STD  Y+8,R30
;  y = max_Y - h - 4;      //   
_0xAB:
	LDD  R30,Y+8
	LDI  R31,0
	CALL SUBOPT_0x18
	SUB  R26,R30
	SBC  R27,R31
	SBIW R26,4
	STD  Y+6,R26
	STD  Y+6+1,R27
;  indx = 0;
	LDI  R19,LOW(0)
;  for (j=0; j<row; j++){
	LDI  R16,LOW(0)
_0xAD:
	LDD  R30,Y+9
	CP   R16,R30
	BRSH _0xAE
;    x = 4;//  1 
	__GETWRN 20,21,4
;    #pragma warn-
;    for (i=0; i<col; i++){
	LDI  R17,LOW(0)
_0xB0:
	LDD  R30,Y+10
	CP   R17,R30
	BRSH _0xB1
;        buttons[indx].x = x+i*(w+5);//   
	LDI  R26,LOW(6)
	MUL  R19,R26
	MOVW R30,R0
	SUBI R30,LOW(-_buttons)
	SBCI R31,HIGH(-_buttons)
	CALL SUBOPT_0x1F
	ADD  R30,R20
	ADC  R31,R21
	CALL SUBOPT_0x20
;        buttons[indx].w = w;
	__ADDW1MN _buttons,4
	ST   Z,R18
;        buttons[indx].h = h;
	LDI  R26,LOW(6)
	MUL  R19,R26
	MOVW R30,R0
	__ADDW1MN _buttons,5
	LDD  R26,Y+8
	STD  Z+0,R26
;        buttons[indx].y = y;
	LDI  R26,LOW(6)
	MUL  R19,R26
	MOVW R30,R0
	__ADDW1MN _buttons,2
	LDD  R26,Y+6
	LDD  R27,Y+6+1
	STD  Z+0,R26
	STD  Z+1,R27
;        indx++;
	SUBI R19,-1
;    }
	SUBI R17,-1
	RJMP _0xB0
_0xB1:
;    y -= (h+5);//   
	LDD  R30,Y+8
	LDI  R31,0
	ADIW R30,5
	LDD  R26,Y+6
	LDD  R27,Y+6+1
	SUB  R26,R30
	SBC  R27,R31
	STD  Y+6,R26
	STD  Y+6+1,R27
;    #pragma warn+
;  }
	SUBI R16,-1
	RJMP _0xAD
_0xAE:
;  bottom_Y = y;//        
	LDD  R30,Y+6
	LDD  R31,Y+6+1
	STS  _bottom_Y,R30
	STS  _bottom_Y+1,R31
;  buttonCount = col * row;//   
	LDD  R30,Y+9
	LDD  R26,Y+10
	MULS R30,R26
	MOVW R30,R0
	STS  _buttonCount,R30
;}
	RJMP _0x20C0009
; .FEND
;//----------------   -------   --------   ---  ---  ---------
;void drawButton(unsigned int fill, unsigned int bord, unsigned int text, char b, char flash *str){
_drawButton:
; .FSTART _drawButton
; int x, y, w, h;//, r;
;   w = buttons[b].w;      //  
	ST   -Y,R27
	ST   -Y,R26
	CALL SUBOPT_0x21
;	fill -> Y+15
;	bord -> Y+13
;	text -> Y+11
;	b -> Y+10
;	*str -> Y+8
;	x -> R16,R17
;	y -> R18,R19
;	w -> R20,R21
;	h -> Y+6
	LDI  R26,LOW(6)
	MUL  R30,R26
	MOVW R30,R0
	__ADDW1MN _buttons,4
	CALL SUBOPT_0x23
;   h = buttons[b].h;      //  
	__ADDW1MN _buttons,5
	CALL SUBOPT_0x24
;   x = buttons[b].x;      //   
	SUBI R30,LOW(-_buttons)
	SBCI R31,HIGH(-_buttons)
	CALL SUBOPT_0x25
;   y = buttons[b].y;      //   
	__ADDW1MN _buttons,2
	LD   R18,Z
	LDD  R19,Z+1
;//   r = min(w,h)/4;
;   //TFT_FillRoundRect(x, y, w, h, r, fill);
;   ILI9341_FillRectangle(x, y, w, h, fill);
	CALL SUBOPT_0x26
	LDD  R26,Y+23
	LDD  R27,Y+23+1
	RCALL _ILI9341_FillRectangle
;   //TFT_DrawRoundRect(x, y, w, h, r, bord);
;   ILI9341_DrawRectangle(x, y, w, h, bord);
	CALL SUBOPT_0x26
	LDD  R26,Y+21
	LDD  R27,Y+21+1
	RCALL _ILI9341_DrawRectangle
;#pragma warn-
;   x = x + w/2 - strlenf(str)*5;
	CALL SUBOPT_0x27
	PUSH R31
	PUSH R30
	LDD  R26,Y+8
	LDD  R27,Y+8+1
	CALL _strlenf
	LDI  R26,LOW(5)
	LDI  R27,HIGH(5)
	CALL __MULW12U
	POP  R26
	POP  R27
	SUB  R26,R30
	SBC  R27,R31
	MOVW R16,R26
;   y = y + h/2 - 8;
	CALL SUBOPT_0x28
;#pragma warn+
;   sprintf(buff,str); ILI9341_WriteString(x, y, buff, Font_11x18, text, fill, 1);
	CALL SUBOPT_0x29
	LDD  R30,Y+10
	LDD  R31,Y+10+1
	CALL SUBOPT_0x2A
	CALL SUBOPT_0x2B
	CALL SUBOPT_0x29
	CALL SUBOPT_0x2C
	LDD  R30,Y+21
	LDD  R31,Y+21+1
	ST   -Y,R31
	ST   -Y,R30
	LDD  R30,Y+27
	LDD  R31,Y+27+1
	CALL SUBOPT_0x2D
;}
	CALL __LOADLOCR6
	ADIW R28,17
	RET
; .FEND
;
;void drawPlus(char i, unsigned int fill){
_drawPlus:
; .FSTART _drawPlus
; int x, y, w, h;
;   w = plus[i].w;      //  
	ST   -Y,R27
	ST   -Y,R26
	CALL SUBOPT_0x21
;	i -> Y+10
;	fill -> Y+8
;	x -> R16,R17
;	y -> R18,R19
;	w -> R20,R21
;	h -> Y+6
	LDI  R26,LOW(6)
	MUL  R30,R26
	MOVW R30,R0
	__ADDW1MN _plus,4
	CALL SUBOPT_0x23
;   h = plus[i].h;      //  
	__ADDW1MN _plus,5
	CALL SUBOPT_0x24
;   x = plus[i].x;      //   
	SUBI R30,LOW(-_plus)
	SBCI R31,HIGH(-_plus)
	CALL SUBOPT_0x25
;   y = plus[i].y;      //   
	__ADDW1MN _plus,2
	LD   R18,Z
	LDD  R19,Z+1
;   if(i%2) ILI9341_DrawRectangle(x, y, w, h, BLUE);
	CALL SUBOPT_0x2E
	BREQ _0xB2
	CALL SUBOPT_0x26
	LDI  R26,LOW(65504)
	LDI  R27,HIGH(65504)
	RJMP _0x2CA
;   else ILI9341_DrawRectangle(x, y, w, h, RED);
_0xB2:
	CALL SUBOPT_0x26
	LDI  R26,LOW(2047)
	LDI  R27,HIGH(2047)
_0x2CA:
	RCALL _ILI9341_DrawRectangle
;#pragma warn-
;   x = x + w/2 - 5;
	CALL SUBOPT_0x27
	SBIW R30,5
	MOVW R16,R30
;   y = y + h/2 - 8;
	CALL SUBOPT_0x28
;#pragma warn+
;   if(i%2) ILI9341_WriteString(x, y, "-", Font_11x18, BLUE, fill, 1);
	CALL SUBOPT_0x2E
	BREQ _0xB4
	CALL SUBOPT_0x2B
	__POINTW1MN _0xB5,0
	CALL SUBOPT_0x2F
	LDI  R30,LOW(65504)
	LDI  R31,HIGH(65504)
	RJMP _0x2CB
;   else ILI9341_WriteString(x, y, "+", Font_11x18, RED, fill, 1);
_0xB4:
	CALL SUBOPT_0x2B
	__POINTW1MN _0xB5,2
	CALL SUBOPT_0x2F
	LDI  R30,LOW(2047)
	LDI  R31,HIGH(2047)
_0x2CB:
	ST   -Y,R31
	ST   -Y,R30
	LDD  R30,Y+20
	LDD  R31,Y+20+1
	CALL SUBOPT_0x2D
;}
_0x20C0009:
	CALL __LOADLOCR6
_0x20C000A:
	ADIW R28,11
	RET
; .FEND

	.DSEG
_0xB5:
	.BYTE 0x4
;
;//x:    ,    
;//in_min:       value
;//in_max:      value
;//out_min:         value
;//out_max:        value
;unsigned int map(unsigned int x, char in_min, unsigned int in_max, char out_min, unsigned int out_max)
;{

	.CSEG
_map:
; .FSTART _map
;long val;
; val = (x - in_min); val *= (out_max - out_min); val /= (in_max - in_min); val += out_min;
	ST   -Y,R27
	ST   -Y,R26
	SBIW R28,4
;	x -> Y+10
;	in_min -> Y+9
;	in_max -> Y+7
;	out_min -> Y+6
;	out_max -> Y+4
;	val -> Y+0
	LDD  R30,Y+9
	LDI  R31,0
	LDD  R26,Y+10
	LDD  R27,Y+10+1
	CALL SUBOPT_0x30
	CLR  R22
	CLR  R23
	CALL SUBOPT_0x31
	LDD  R30,Y+6
	LDI  R31,0
	LDD  R26,Y+4
	LDD  R27,Y+4+1
	CALL SUBOPT_0x30
	CALL SUBOPT_0xD
	CLR  R22
	CLR  R23
	CALL __MULD12
	CALL SUBOPT_0x31
	LDD  R30,Y+9
	LDI  R31,0
	LDD  R26,Y+7
	LDD  R27,Y+7+1
	CALL SUBOPT_0x30
	CALL SUBOPT_0xD
	CLR  R22
	CLR  R23
	CALL __DIVD21
	CALL SUBOPT_0x31
	LDD  R30,Y+6
	LDI  R31,0
	CALL SUBOPT_0xD
	CALL __CWD1
	CALL __ADDD12
	CALL SUBOPT_0x31
; return val;
	LD   R30,Y
	LDD  R31,Y+1
	ADIW R28,12
	RET
;}
; .FEND
;
;char contains(char b)//       .
; {
_contains:
; .FSTART _contains
; int beg, end;
;   beg = buttons[b].x;
	CALL SUBOPT_0x32
;	b -> Y+4
;	beg -> R16,R17
;	end -> R18,R19
	SUBI R30,LOW(-_buttons)
	SBCI R31,HIGH(-_buttons)
	CALL SUBOPT_0x33
;   end = beg + buttons[b].w-3;
	__ADDW1MN _buttons,4
	CALL SUBOPT_0x34
;   if ((point_X < beg)||(point_X > end)) return 0;
	CALL SUBOPT_0x35
	CP   R26,R16
	CPC  R27,R17
	BRLO _0xB8
	CALL SUBOPT_0x35
	CP   R18,R26
	CPC  R19,R27
	BRSH _0xB7
_0xB8:
	LDI  R30,LOW(0)
	RJMP _0x20C0007
;   beg = buttons[b].y;
_0xB7:
	CALL SUBOPT_0x36
	__ADDW1MN _buttons,2
	CALL SUBOPT_0x33
;   end = beg + buttons[b].h-3;
	__ADDW1MN _buttons,5
	CALL SUBOPT_0x34
;   if ((point_Y < beg)||(point_Y > end)) return 0;
	CALL SUBOPT_0x37
	CP   R26,R16
	CPC  R27,R17
	BRLO _0xBB
	CALL SUBOPT_0x37
	CP   R18,R26
	CPC  R19,R27
	BRSH _0xBA
_0xBB:
	LDI  R30,LOW(0)
	RJMP _0x20C0007
;   return 1;
_0xBA:
	RJMP _0x20C0008
; }
; .FEND
;
;char containsPlus(char b)//       .
; {
_containsPlus:
; .FSTART _containsPlus
; int beg, end;
;   beg = plus[b].x-3;
	CALL SUBOPT_0x32
;	b -> Y+4
;	beg -> R16,R17
;	end -> R18,R19
	SUBI R30,LOW(-_plus)
	SBCI R31,HIGH(-_plus)
	CALL SUBOPT_0x38
;   end = beg + plus[b].w+3;
	__ADDW1MN _plus,4
	CALL SUBOPT_0x39
;   if ((point_X < beg)||(point_X > end)) return 0;
	CALL SUBOPT_0x35
	CP   R26,R16
	CPC  R27,R17
	BRLO _0xBE
	CALL SUBOPT_0x35
	CP   R18,R26
	CPC  R19,R27
	BRSH _0xBD
_0xBE:
	LDI  R30,LOW(0)
	RJMP _0x20C0007
;   beg = plus[b].y-3;
_0xBD:
	CALL SUBOPT_0x36
	__ADDW1MN _plus,2
	CALL SUBOPT_0x38
;   end = beg + plus[b].h+3;
	__ADDW1MN _plus,5
	CALL SUBOPT_0x39
;   if ((point_Y < beg)||(point_Y > end)) return 0;
	CALL SUBOPT_0x37
	CP   R26,R16
	CPC  R27,R17
	BRLO _0xC1
	CALL SUBOPT_0x37
	CP   R18,R26
	CPC  R19,R27
	BRSH _0xC0
_0xC1:
	LDI  R30,LOW(0)
	RJMP _0x20C0007
;   return 1;
_0xC0:
_0x20C0008:
	LDI  R30,LOW(1)
_0x20C0007:
	CALL __LOADLOCR4
	ADIW R28,5
	RET
; }
; .FEND
;
;char checkTouch(void)//      (point_Y, point_X)
;{
_checkTouch:
; .FSTART _checkTouch
;char i;
;int val, samples[2];
;//------- Set X+ to ground --------------------
;  XP_DIR = OUTPUT; // DDRC.6 ??????????????????
	SBIW R28,4
	CALL __SAVELOCR4
;	i -> R17
;	val -> R18,R19
;	samples -> Y+4
	SBI  0x14,6
;  XP_PORT = LOW;   // DDRC.6
	CBI  0x15,6
;//------- Set Y- to VCC -----------------------
;  YM_DIR = OUTPUT; // DDRC.7 ??????????????????
	SBI  0x14,7
;  YM_PORT = HIGH;  // DDRC.7 ??????????????????
	SBI  0x15,7
;//------- Hi-Z X- and Y+ ----------------------
;  YP_DIR = INPUT;  // TFT_WRX
	CBI  0x1A,6
;  YP_PORT = LOW;   // TFT_WRX
	CBI  0x1B,6
;  XM_DIR = INPUT;  // TFT_DCX
	CBI  0x1A,5
;  XM_PORT = LOW;   // TFT_DCX
	CBI  0x1B,5
;  val = read_adc(YP_PIN);  // y
	LDI  R26,LOW(6)
	RCALL _read_adc
	MOVW R18,R30
;  val-= read_adc(XM_PIN);  //(y-x)
	LDI  R26,LOW(5)
	RCALL _read_adc
	__SUBWRR 18,19,30,31
;  val = 1023-val;          // z
	LDI  R30,LOW(1023)
	LDI  R31,HIGH(1023)
	SUB  R30,R18
	SBC  R31,R19
	MOVW R18,R30
;  point_Z = val;
	__PUTWMRN _point_Z,0,18,19
;
;  if(val < 200){
	__CPWRN 18,19,200
	BRGE _0xD3
;    InitInterface();
	RCALL _InitInterface
;//    sprintf(buff,"  v=%3u",val);
;//    ILI9341_WriteString(5,TFTBUTTON-45,buff,Font_11x18,WHITE,BLACK,1);
;    return 0;         //     
	LDI  R30,LOW(0)
	RJMP _0x20C0005
;  }
;  else                //   
_0xD3:
;   {
;     YP_DIR = INPUT;   // TFT_WRX ?????????????
	CBI  0x1A,6
;     YP_PORT = LOW;    // TFT_WRX ?????????????
	CBI  0x1B,6
;     YM_DIR = INPUT;   // DDRC.7
	CBI  0x14,7
;     YM_PORT = LOW;    // DDRC.7
	CBI  0x15,7
;     XP_DIR = OUTPUT;  // DDRC.6  ?????????????
	SBI  0x14,6
;     XP_PORT = HIGH;   // DDRC.6
	SBI  0x15,6
;     XM_DIR = OUTPUT;  // TFT_DCX
	SBI  0x1A,5
;     XM_PORT = LOW;    // TFT_DCX ?????????????
	CBI  0x1B,5
;     do{
_0xE6:
;        for (i=0; i<2; i++){samples[i] = read_adc(YP_PIN);}
	LDI  R17,LOW(0)
_0xE9:
	CPI  R17,2
	BRSH _0xEA
	CALL SUBOPT_0x3A
	PUSH R31
	PUSH R30
	LDI  R26,LOW(6)
	RCALL _read_adc
	POP  R26
	POP  R27
	ST   X+,R30
	ST   X,R31
	SUBI R17,-1
	RJMP _0xE9
_0xEA:
;        val = abs(samples[0]-samples[1]);
	CALL SUBOPT_0x3B
;       } while (val>4);
	__CPWRN 18,19,5
	BRGE _0xE6
;    //point_Y = (1023-(samples[0]+samples[1])/2);  // Orientation=0
;     point_X = (samples[0]+samples[1])/2;           // Orientation=3
	CALL SUBOPT_0x3C
	STS  _point_X,R30
	STS  _point_X+1,R31
;
;     XP_DIR = INPUT;  // DDRC.6
	CBI  0x14,6
;     XP_PORT = LOW;   // DDRC.6
	CBI  0x15,6
;     XM_DIR = INPUT;  // TFT_DCX
	CBI  0x1A,5
;     XM_PORT = LOW;   // TFT_DCX ?????????????
	CBI  0x1B,5
;     YP_DIR = OUTPUT; // TFT_WRX
	SBI  0x1A,6
;     YP_PORT = HIGH;  // TFT_WRX
	SBI  0x1B,6
;     YM_DIR = OUTPUT; // DDRC.7
	SBI  0x14,7
;     YM_PORT = LOW;   // DDRC.7  ?????????????
	CBI  0x15,7
;     do{
_0xFC:
;        for (i=0; i<2; i++){samples[i] = read_adc(XM_PIN);}
	LDI  R17,LOW(0)
_0xFF:
	CPI  R17,2
	BRSH _0x100
	CALL SUBOPT_0x3A
	PUSH R31
	PUSH R30
	LDI  R26,LOW(5)
	RCALL _read_adc
	POP  R26
	POP  R27
	ST   X+,R30
	ST   X,R31
	SUBI R17,-1
	RJMP _0xFF
_0x100:
;        val = abs(samples[0]-samples[1]);
	CALL SUBOPT_0x3B
;       } while (val>4);
	__CPWRN 18,19,5
	BRGE _0xFC
;     //point_X = (1023-(samples[0]+samples[1])/2);   // Orientation=0
;     point_Y = (1023-(samples[0]+samples[1])/2);     // Orientation=3
	CALL SUBOPT_0x3C
	LDI  R26,LOW(1023)
	LDI  R27,HIGH(1023)
	SUB  R26,R30
	SBC  R27,R31
	STS  _point_Y,R26
	STS  _point_Y+1,R27
;
;     InitInterface();
	RCALL _InitInterface
;     point_X = map(point_X, TS_MINX, TS_MAXX, 0, max_X);//       
	CALL SUBOPT_0x3D
	LDI  R30,LOW(125)
	ST   -Y,R30
	LDI  R30,LOW(907)
	LDI  R31,HIGH(907)
	CALL SUBOPT_0x3E
	CALL SUBOPT_0x17
	RCALL _map
	STS  _point_X,R30
	STS  _point_X+1,R31
;     point_Y = map(point_Y, TS_MINY, TS_MAXY, 0, max_Y);//       
	CALL SUBOPT_0x3F
	LDI  R30,LOW(130)
	ST   -Y,R30
	LDI  R30,LOW(935)
	LDI  R31,HIGH(935)
	CALL SUBOPT_0x3E
	CALL SUBOPT_0x18
	RCALL _map
	STS  _point_Y,R30
	STS  _point_Y+1,R31
;ILI9341_FillRectangle(point_X, point_Y, 5, 5, RED);
	CALL SUBOPT_0x3D
	CALL SUBOPT_0x3F
	CALL SUBOPT_0x40
	CALL SUBOPT_0x40
	LDI  R26,LOW(2047)
	LDI  R27,HIGH(2047)
	RCALL _ILI9341_FillRectangle
;//sprintf(buff,"X%4u; Y%4u",point_X,point_Y);
;//ILI9341_WriteString(5,TFTBUTTON-15,buff,Font_11x18,WHITE,BLACK,1);
;     return 1;
	LDI  R30,LOW(1)
;   }
;}
_0x20C0005:
	CALL __LOADLOCR4
_0x20C0006:
	ADIW R28,8
	RET
; .FEND
;
;#include "proc.c"
;#define TUNING    170
;
;void temperature_check(void)
; 0000 0061 {
_temperature_check:
; .FSTART _temperature_check
; int val;
; unsigned char item, byte, crc, try=0;
;  for (item=0; item < ds18b20;)
	CALL __SAVELOCR6
;	val -> R16,R17
;	item -> R19
;	byte -> R18
;	crc -> R21
;	try -> R20
	LDI  R20,0
	LDI  R19,LOW(0)
_0x102:
	CP   R19,R6
	BRLO PC+2
	RJMP _0x103
;   {
;     w1_init();                 // 1 Wire Bus initialization
	CALL _w1_init
;     w1_write(0x55);            // Load MATCH ROM [55H] comand
	LDI  R26,LOW(85)
	CALL _w1_write
;     ptr_char = &familycode[item][0];
	LDI  R26,LOW(9)
	MUL  R19,R26
	MOVW R30,R0
	SUBI R30,LOW(-_familycode)
	SBCI R31,HIGH(-_familycode)
	CALL SUBOPT_0x41
;     for (byte=0; byte < 8; byte++) w1_write(*ptr_char++);
	LDI  R18,LOW(0)
_0x105:
	CPI  R18,8
	BRSH _0x106
	CALL SUBOPT_0x42
	LD   R26,Z
	CALL _w1_write
	SUBI R18,-1
	RJMP _0x105
_0x106:
	LDI  R30,LOW(_ds)
	LDI  R31,HIGH(_ds)
	CALL SUBOPT_0x41
;     w1_write(0xBE);            // Read Scratchpad command [BE]
	LDI  R26,LOW(190)
	CALL _w1_write
;     for (byte=0; byte < 8; byte++) *ptr_char++ = w1_read(); // Read cont. byte
	LDI  R18,LOW(0)
_0x108:
	CPI  R18,8
	BRSH _0x109
	CALL SUBOPT_0x42
	PUSH R31
	PUSH R30
	CALL _w1_read
	POP  R26
	POP  R27
	ST   X,R30
	SUBI R18,-1
	RJMP _0x108
_0x109:
	CALL _w1_read
	MOV  R21,R30
;     ptr_char = ds.buffer;
	LDI  R30,LOW(_ds)
	LDI  R31,HIGH(_ds)
	CALL SUBOPT_0x41
;     if (w1_dow_crc8(ptr_char, 8)==crc){
	LDS  R30,_ptr_char
	LDS  R31,_ptr_char+1
	ST   -Y,R31
	ST   -Y,R30
	LDI  R26,LOW(8)
	CALL _w1_dow_crc8
	CP   R21,R30
	BRNE _0x10A
;       try = 0; val = ds.pvT;
	LDI  R20,LOW(0)
	__GETWRMN 16,17,0,_ds
;       if (val<0) {val=-val; val = val*10/16; val=-val;} //     !!
	TST  R17
	BRPL _0x10B
	MOVW R30,R16
	CALL __ANEGW1
	MOVW R16,R30
	CALL SUBOPT_0x43
	MOVW R16,R30
	CALL __ANEGW1
	RJMP _0x2CC
;       else val = val*10/16; //     !!
_0x10B:
	CALL SUBOPT_0x43
_0x2CC:
	MOVW R16,R30
;       //-----   DS18B20 ----------
;       if(ds.buffer[2]==TUNING) val +=(signed char)ds.buffer[3]; //   
	__GETB2MN _ds,2
	CPI  R26,LOW(0xAA)
	BRNE _0x10D
	__GETB1MN _ds,3
	LDI  R31,0
	SBRC R30,7
	SER  R31
	__ADDWRR 16,17,30,31
;     }
_0x10D:
;     else if (++try > 2) {val = 1990; try = 0;}// (199.0)    X     
	RJMP _0x10E
_0x10A:
	SUBI R20,-LOW(1)
	CPI  R20,3
	BRLO _0x10F
	__GETWRN 16,17,1990
	LDI  R20,LOW(0)
;     t.point[item] = val;
_0x10F:
_0x10E:
	MOV  R30,R19
	LDI  R26,LOW(_t)
	LDI  R27,HIGH(_t)
	LDI  R31,0
	CALL SUBOPT_0xB
	ST   Z,R16
	STD  Z+1,R17
;     if (try==0) item++;
	CPI  R20,0
	BRNE _0x110
	SUBI R19,-1
;   }
_0x110:
	RJMP _0x102
_0x103:
;  w1_init();                    // 1 Wire Bus initialization
	CALL SUBOPT_0x44
;  w1_write(0xCC);               // Load Skip ROM [CCH] command
;  w1_write(0x44);               // Load Convert T [44H] command
;}
	CALL __LOADLOCR6
	ADIW R28,6
	RET
; .FEND
;
;unsigned char module_check(unsigned char fc)
;{
; unsigned char *p, try, byte;
;  p = out.buffer;
;	fc -> Y+4
;	*p -> R16,R17
;	try -> R19
;	byte -> R18
;  out.buffer[3]=w1_dow_crc8(p,3);//  
;  for (try=0; try<3; try++)
;   {
;    w1_init();            // 1 Wire Bus initialization
;    w1_write(fc);         // Family code
;    p = out.buffer;
;    for (byte=0; byte<4; byte++) w1_write(*p++);
;    p = in.buffer;
;    for (byte=0; byte<4; byte++) *p++ = w1_read();// Read 4 byte
;    p = in.buffer;
;    if(byte==w1_dow_crc8(p,4)) break;
;    delay_ms(10);
;   };
;  if(try>2) byte=0; else byte=1;
;  return byte;
;}
;
;//#define ID_CO2          0xF5    //  
;//#define DATAREAD        0xA1    // Read Scratchpad
;//unsigned char readCO2(void) //   2
;//{
;// unsigned char byte;
;// static unsigned char try;
;//  out.buffer[0]=DATAREAD;       // Function Command
;//  out.buffer[1]=0x00;           // Data 1
;//  out.buffer[2]=displCO2;       // Data 2 1-> ; 2->  ; 3-> ;
;//  byte = module_check(ID_CO2); //  
;//  if(byte){                     //    ...
;//     pvCO2 = in.val[1];// CO2
;//     try = 0;
;//  }
;//  else if(++try>5){pvCO2=0; error|=0x08;}//   CO2
;//  return byte;
;//}
;
;//- Converts a 2 digit decimal to BCD format. ---------
;char ByteToBcd2(char Value){
; char bcdhigh = 0;
;  while (Value >= 10){
;	Value -> Y+1
;	bcdhigh -> R17
;    bcdhigh++;
;    Value -= 10;
;  }
;  return ((bcdhigh << 4U) | Value);
;}
;
;// - Converts from 2 digit BCD to Binary. -----------
;char Bcd2ToByte(char Value)
;{
;  char tmp = 0;
;  tmp = ((Value & 0xF0) >> 0x4) * 10;
;	Value -> Y+1
;	tmp -> R17
;  return (tmp + (Value & 0x0F));
;}
;
;//signed int LowPassF2(signed int t,unsigned char i)
;//{
;//float val;
;//  val = A1*Told1[i]-A2*Told2[i]+A3*t;
;//  Told2[i] = Told1[i];
;//  Told1[i] = val;
;//  return val;
;//}
;
;void setDAC(void) // V = Vref x (255/256)
;{
;unsigned char i, val;
;  for (i=0; i<4; i++){
;	i -> R17
;	val -> R16
;     switch (i){
;        case 0: CSDAC1 = 0; break;
;        case 1: CSDAC2 = 0; break;
;        case 2: CSDAC3 = 0; break;
;        case 3: CSDAC4 = 0; break;
;     }
;     SPCR = SPI_MOUD_FL;// SPI port enabled
;     val = dacU[i]>>4;
;     SPDR = val & 0x0F; // Load Register to DAC
;     while (!(SPSR & (1<<SPIF)));     //     SPI Opcode
;     val = dacU[i]<<4;
;     SPDR = val & 0xF0;
;     while (!(SPSR & (1<<SPIF)));     //     SPI Opcode
;     PORTD|=0xF0;       // INSTRUCTION EXECUTED
;  };
;  SPCR = 0;             //disable SPI
;}
;
;unsigned char adapt(unsigned char n)
;{
_adapt:
; .FSTART _adapt
;  if (n>100) n=100;
	ST   -Y,R26
;	n -> Y+0
	LD   R26,Y
	CPI  R26,LOW(0x65)
	BRLO _0x138
	LDI  R30,LOW(100)
	ST   Y,R30
;  n <<= 1; n += ZERO;
_0x138:
	LD   R30,Y
	LSL  R30
	ST   Y,R30
	SUBI R30,-LOW(50)
	ST   Y,R30
;  return n;
_0x20C0004:
	ADIW R28,1
	RET
;}
; .FEND
;#include "touchpad.c"
;void touchpad(char byte){
; 0000 0062 void touchpad(char byte){
;  char max = MAX_SET-1;
;     switch (displ_num){
;	byte -> Y+1
;	max -> R17
;        case 0: if(byte<buttonCount){displ_num = byte; newSetButt = 1;} break;
;        //-   -
;        case 1: if(byte<buttonCount){displ_num = byte; newSetButt = 1;}
;                if(displ_num==3) displ_num = 6;
;        break;
;        //-   -
;        case 2: if(byte<buttonCount){displ_num = byte; newSetButt = 1;}
;                if(displ_num==3) displ_num = 7;
;        break;
;        //-    -
;        case 3:
;          switch (byte){
;            case 0: displ_num = 0; newSetButt = 1; break;
;            case 1: if (--numMenu<0) numMenu = 0;    break;
;            case 2: if (++numMenu>MAX_MENU-1) numMenu = MAX_MENU-1;    break;
;            case 3: displ_num = 4; newSetButt = 1; break;
;          }
;          byte = 10;
;        break;
;        //-   -
;        case 4:
;          if (numMenu==4) max++;
;          switch (byte){
;            case 0: displ_num = 3; newSetButt = 1; break;
;            case 1: if (--numSet<0) numSet = 0;    break;
;            case 2: if (++numSet>max) numSet = max;    break;
;            case 3: displ_num = 5; newSetButt = 1;
;              switch (numMenu){
;                case 0: for (byte=0;byte<MAX_SET;byte++) newval[byte] = set[0][byte]; break; // ""
;                case 1: for (byte=0;byte<MAX_SET;byte++){                                     // ""
;                            if (Dht) newval[byte] = set[1][byte];
;                            else newval[byte] = set[2][byte];
;                        }
;                  break;
;                case 2: for (byte=0;byte<MAX_SET;byte++) newval[byte] = set[3][byte]; break; // ""
;                case 3: for (byte=0;byte<MAX_SET;byte++) newval[byte] = set[4][byte]; break; // ""
;                case 4: for (byte=0;byte<2;byte++) newval[byte] = Bcd2ToByte(clock_buffer[byte+1]);
;              };
;            break;
;          }
;          byte = 10;
;        break;
;        //-  -
;        case 5:
;          switch (byte){
;               case 0: displ_num = 4; newSetButt = 1; break;
;            case 1: ++newval[numSet];
;                 switch (numMenu) {
;                    case 0:  // 
;                        switch (numSet) {
;                            case 0: if(newval[numSet]>1200) newval[numSet]=1200; break;   // 
;                            case 1: if(newval[numSet]>500) newval[numSet]=500; break;   // 
;                            case 2: if(newval[numSet]>100) newval[numSet]=100; break;   // 
;                            case 3: if(newval[numSet]>1)  newval[numSet]=1;    break;   // 
;                        };
;                    break;
;                    case 1:  // 
;                        if (Dht){
;                            switch (numSet) {
;                                case 0: if(newval[numSet]>100) newval[numSet]=100; break;   // 
;                                case 1: if(newval[numSet]>90) newval[numSet]=90; break;   // 
;                                case 2: if(newval[numSet]>50) newval[numSet]=50; break;   // 
;                                case 3: if(newval[numSet]>1)  newval[numSet]=1;  break;   // 
;                            };
;                        }
;                        else {
;                            switch (numSet) {
;                                case 0: if(newval[numSet]>1200) newval[numSet]=1200; break;   // 
;                                case 1: if(newval[numSet]>500) newval[numSet]=500; break;   // 
;                                case 2: if(newval[numSet]>100) newval[numSet]=100; break;   // 
;                                case 3: if(newval[numSet]>1)  newval[numSet]=1;  break;   // 
;                            };
;                        }
;                    break;
;                    case 2:  // 
;                        switch (numSet) {
;                            case 0: if(newval[numSet]>3600) newval[numSet]=3600; break;   // 
;                            case 1: if(newval[numSet]>3600) newval[numSet]=3600; break;   // 
;                            case 2: if(newval[numSet]>1) newval[numSet]=1; break;   // 
;                            case 3: if(newval[numSet]>100) newval[numSet]=100; break;   // 
;                        };
;                    break;
;                    case 3:  // 
;                        switch (numSet) {
;                            case 0:    break;   //
;                            case 1:    break;   //
;                            case 2:    break;   //
;                            case 3:    break;   //
;                            case 4:    break;   //
;                        };
;                    break;
;                    case 4:  //   
;                        switch (numSet) {
;                            case 0:    break;   //
;                            case 1:    break;   //
;                            case 2:    break;   //
;                            case 3:    break;   //
;                            case 4:    break;   //
;                        };
;                    break;
;                  };
;            break;
;            case 2: --newval[numSet];
;                 switch (numMenu) {
;                    case 0:  // 
;                        switch (numSet) {
;                            case 0: if(newval[numSet]<-500) newval[numSet]=-500; break;   // 
;                            case 1: if(newval[numSet]<1) newval[numSet]=1; break;   // 
;                            case 2: if(newval[numSet]<1) newval[numSet]=1; break;   // 
;                            case 3: if(newval[numSet]<0) newval[numSet]=0; break;   // 
;                        };
;                    break;
;                    case 1:  // 
;                        switch (numSet) {
;                            case 0: if(newval[numSet]<10) newval[numSet]=10; break;   // 
;                            case 1: if(newval[numSet]<1) newval[numSet]=1; break;   // 
;                            case 2: if(newval[numSet]<1) newval[numSet]=1; break;   // 
;                            case 3: if(newval[numSet]<0) newval[numSet]=0; break;   // 
;                        };
;                    break;
;                    case 2:  // 
;                        switch (numSet) {
;                            case 0: if(newval[numSet]<1) newval[numSet]=1; break;   // 
;                            case 1: if(newval[numSet]<1) newval[numSet]=1; break;   // 
;                            case 2: if(newval[numSet]<0) newval[numSet]=0; break;   // 
;                            case 3: if(newval[numSet]<1) newval[numSet]=1; break;   // 
;                        };
;                    break;
;                    case 3:  // 
;                        switch (numSet) {
;                            case 0:    break;   //
;                            case 1:    break;   //
;                            case 2:    break;   //
;                            case 3:    break;   //
;                        };
;                    break;
;                    case 4:  //   
;                        switch (numSet) {
;                            case 0:    break;   //
;                            case 1:    break;   //
;                            case 2:    break;   //
;                            case 3:    break;   //
;                        };
;                    break;
;                  };
;            break;
;            case 3: ILI9341_FillScreen(0, max_X, 0, max_Y, fillScreen);
;                  ILI9341_WriteString(5,100,"  ",Font_11x18,GREEN,fillScreen,1);
;                  switch (numMenu){
;                    case 0: set[0][numSet] = newval[numSet]; break; // ""
;                    case 1: if (Dht) set[1][numSet] = newval[numSet];  // ""
;                            else set[2][numSet] = newval[numSet];
;                      break;
;                    case 2: set[3][numSet] = newval[numSet]; break; // ""
;                    case 3: set[4][numSet] = newval[numSet]; break; // ""
;                    case 4: for (byte=0;byte<2;byte++) clock_buffer[byte+1] = ByteToBcd2(newval[byte]);
;                            Clock_Ok = write_TWI(DS3231,0,clock_buffer,7);
;                      break; // "  "
;                  }
;                  delay_ms(500);
;                  displ_num = 4; newSetButt = 1; break;
;          }
;          byte = 10;
;        break;
;        //-    -
;        case 6:
;          switch (byte){
;               case 0: displ_num = 1; newSetButt = 1; break;
;            case 1: if (--numSet<0) numSet = 0;    break;
;            case 2: if (++numSet>MAX_SET-1) numSet = MAX_SET-1;    break;
;            case 3: displ_num = 8; newSetButt = 1;
;                for (byte=0;byte<MAX_SET;byte++) newval[byte] = analog[byte]; break;
;            break;
;          }
;          byte = 10;
;        break;
;        //-    -
;        case 7:
;          switch (byte){
;            case 0: displ_num = 2; newSetButt = 1; break;
;            case 1: if (--numSet<0) numSet = 0;    break;
;            case 2: if (++numSet>MAX_SET-1) numSet = MAX_SET-1;    break;
;            case 3: displ_num = 9; newSetButt = 1;
;                for (byte=0;byte<MAX_SET;byte++) newval[byte] = relay[byte]; break;
;            break;
;          }
;          byte = 10;
;        break;
;        //- .   -
;        case 8:
;          switch (byte){
;            case 0: displ_num = 6; newSetButt = 1; break;
;            case 1: if(++newval[numSet]>100) newval[numSet]=100; break;
;            case 2: if(--newval[numSet]<-1) newval[numSet] = -1; break;
;            case 3: ILI9341_FillScreen(0, max_X, 0, max_Y, fillScreen);
;                  ILI9341_WriteString(5,100,"  ",Font_11x18,GREEN,fillScreen,1);
;                  analog[numSet] = newval[numSet];
;                  delay_ms(1000);
;                  displ_num = 6; newSetButt = 1; break;
;          }
;          byte = 10;
;        break;
;        //- .   -
;        case 9:
;          switch (byte){
;               case 0: displ_num = 6; newSetButt = 1; break;
;            case 1: if(++newval[numSet]>2) newval[numSet]= 2; break;
;            case 2: if(--newval[numSet]<0) newval[numSet]= 0; break;
;            case 3: ILI9341_FillScreen(0, max_X, 0, max_Y, fillScreen);
;                  ILI9341_WriteString(5,100,"  ",Font_11x18,GREEN,fillScreen,1);
;                  relay[numSet] = newval[numSet];
;                  delay_ms(1000);
;                  displ_num = 7; newSetButt = 1; break;
;          }
;          byte = 10;
;        break;
;        default: displ_num = 0; newSetButt = 1;
;     }
;}

	.DSEG
_0x1FA:
	.BYTE 0x33
;
;#include "displ.c"
;unsigned char txt[10];
;
;void fraction(signed int t){
; 0000 0063 void fraction(signed int t){

	.CSEG
_fraction:
; .FSTART _fraction
;  if (t<0) {t = -t; signchar = '-';} else signchar = ' ';
	ST   -Y,R27
	ST   -Y,R26
;	t -> Y+0
	LDD  R26,Y+1
	TST  R26
	BRPL _0x23B
	LD   R30,Y
	LDD  R31,Y+1
	CALL __ANEGW1
	ST   Y,R30
	STD  Y+1,R31
	LDI  R30,LOW(45)
	RJMP _0x2D3
_0x23B:
	LDI  R30,LOW(32)
_0x2D3:
	MOV  R11,R30
;  frcval = t%10; intval = t/10;
	LD   R26,Y
	LDD  R27,Y+1
	LDI  R30,LOW(10)
	LDI  R31,HIGH(10)
	CALL __MODW21
	MOV  R13,R30
	LD   R26,Y
	LDD  R27,Y+1
	LDI  R30,LOW(10)
	LDI  R31,HIGH(10)
	CALL __DIVW21
	MOV  R10,R30
;}
	ADIW R28,2
	RET
; .FEND
;
;void checkDisplNum(void){
_checkDisplNum:
; .FSTART _checkDisplNum
;  unsigned char i;
;    if(point_Y>200){
	ST   -Y,R17
;	i -> R17
	CALL SUBOPT_0x37
	CPI  R26,LOW(0xC9)
	LDI  R30,HIGH(0xC9)
	CPC  R27,R30
	BRLO _0x23D
;        for (i=0; i<4; i++){if(contains(i)) break;}//       
	LDI  R17,LOW(0)
_0x23F:
	CPI  R17,4
	BRSH _0x240
	MOV  R26,R17
	RCALL _contains
	CPI  R30,0
	BRNE _0x240
	SUBI R17,-1
	RJMP _0x23F
_0x240:
;        if(i<4){BeepT = 20; displ_num = i; newSetButt = 1;}
	CPI  R17,4
	BRSH _0x242
	LDI  R30,LOW(20)
	MOV  R5,R30
	MOV  R4,R17
	LDI  R30,LOW(1)
	MOV  R7,R30
;    }
_0x242:
;}
_0x23D:
_0x20C0003:
	LD   R17,Y+
	RET
; .FEND
;
;//void drawButtEdit(unsigned int fW){
;//    newSetButt = 0;
;//    ILI9341_FillScreen(0, max_X, 0, max_Y, fW);
;//    initializeButtons(2,1,25);// 2 ;  ;  25
;//    //----------  ------- a ---  -  - ---------
;//    drawButton(BLUE, WHITE, WHITE, 0, "");
;//    drawButton(MAGENTA, BLACK, BLACK, 1, ".");
;//}
;
;//--------------------------------  . ----------------------------------------
;void displ_0(void){
_displ_0:
; .FSTART _displ_0
; unsigned char i;
; unsigned int fillWindow = BLUE1, bordWindow = BLACK, temp;
;    if(newSetButt){
	SBIW R28,2
	CALL __SAVELOCR6
;	i -> R17
;	fillWindow -> R18,R19
;	bordWindow -> R20,R21
;	temp -> Y+6
	__GETWRN 18,19,-1536
	__GETWRN 20,21,-1
	TST  R7
	BREQ _0x243
;        newSetButt = 0;
	CLR  R7
;        ILI9341_FillScreen(0, max_X, 0, max_Y, fillWindow);
	CALL SUBOPT_0x16
	CALL SUBOPT_0x45
	CALL SUBOPT_0x46
;        initializeButtons(4,1,25);// 4 ;  ;  25
;        //----------  ------- a ---  -  - ---------
;        drawButton(fillWindow, fillWindow, bordWindow, 0, "");
	CALL SUBOPT_0x47
	LDI  R30,LOW(0)
	ST   -Y,R30
	CALL SUBOPT_0x48
;        drawButton(WHITE, WHITE, BLACK, 1, "");
	CALL SUBOPT_0x16
	CALL SUBOPT_0x16
	CALL SUBOPT_0x49
	CALL SUBOPT_0x4A
;        drawButton(WHITE, WHITE, BLACK, 2, "");
	CALL SUBOPT_0x16
	CALL SUBOPT_0x49
	CALL SUBOPT_0x4B
;        drawButton(WHITE, WHITE, BLACK, 3, "");
	CALL SUBOPT_0x16
	CALL SUBOPT_0x49
	CALL SUBOPT_0x4C
;    }
;//---   ------
;    pointY = 3;
_0x243:
	LDI  R30,LOW(3)
	MOV  R9,R30
;    if(Clock_Ok){
	SBRS R2,1
	RJMP _0x244
;        read_TWI(DS3231,0,clock_buffer,7);//    
	LDI  R30,LOW(208)
	ST   -Y,R30
	CALL SUBOPT_0x16
	LDI  R30,LOW(_clock_buffer)
	LDI  R31,HIGH(_clock_buffer)
	ST   -Y,R31
	ST   -Y,R30
	LDI  R26,LOW(7)
	LDI  R27,0
	RCALL _read_TWI
;        sprintf(buff,"%02x:%02x   %02x.%02x.20%02x",clock_buffer[2],clock_buffer[1],clock_buffer[4],clock_buffer[5],cloc ...
	CALL SUBOPT_0x29
	__POINTW1FN _0x0,228
	ST   -Y,R31
	ST   -Y,R30
	__GETB1MN _clock_buffer,2
	CALL SUBOPT_0x4D
	__GETB1MN _clock_buffer,1
	CALL SUBOPT_0x4D
	__GETB1MN _clock_buffer,4
	CALL SUBOPT_0x4D
	__GETB1MN _clock_buffer,5
	CALL SUBOPT_0x4D
	__GETB1MN _clock_buffer,6
	CALL SUBOPT_0x4D
	LDI  R24,20
	CALL _sprintf
	ADIW R28,24
;        ILI9341_WriteString(70,pointY,buff,Font_11x18,BLACK,WHITE,1); ILI9341_WriteString(70,pointY,buff,Font_11x18,WHIT ...
	CALL SUBOPT_0x4E
	CALL SUBOPT_0x2C
	CALL SUBOPT_0x49
	CALL SUBOPT_0x16
	LDI  R26,LOW(1)
	RCALL _ILI9341_WriteString
	CALL SUBOPT_0x4E
	CALL SUBOPT_0x2C
	CALL SUBOPT_0x16
	LDI  R30,LOW(65535)
	LDI  R31,HIGH(65535)
	RJMP _0x2D4
;    }
;    else {
_0x244:
;        sprintf(buff," !");
	CALL SUBOPT_0x29
	__POINTW1FN _0x0,257
	CALL SUBOPT_0x2A
;        ILI9341_WriteString(70,pointY,buff,Font_11x18,YELLOW,RED,1); ILI9341_WriteString(70,pointY,buff,Font_11x18,RED,Y ...
	CALL SUBOPT_0x4E
	CALL SUBOPT_0x2C
	CALL SUBOPT_0x4F
	CALL SUBOPT_0x2D
	CALL SUBOPT_0x4E
	CALL SUBOPT_0x2C
	LDI  R30,LOW(2047)
	LDI  R31,HIGH(2047)
	ST   -Y,R31
	ST   -Y,R30
	LDI  R30,LOW(31)
	LDI  R31,HIGH(31)
_0x2D4:
	ST   -Y,R31
	ST   -Y,R30
	LDI  R26,LOW(1)
	RCALL _ILI9341_WriteString
;    }
;    pointY += 22;
	LDI  R30,LOW(22)
	ADD  R9,R30
;    if(checkTouch()) checkDisplNum();//*****************************    *************************** ...
	RCALL _checkTouch
	CPI  R30,0
	BREQ _0x246
	RCALL _checkDisplNum
;//---  t  -----
;    temp = set[0][0]; fraction(temp);     //   
_0x246:
	LDI  R26,LOW(_set)
	LDI  R27,HIGH(_set)
	CALL __EEPROMRDW
	CALL SUBOPT_0x50
;    sprintf(buff,"[%2u.%u]",intval,frcval); //  T    
	__POINTW1FN _0x0,272
	CALL SUBOPT_0x51
	MOV  R30,R13
	CALL SUBOPT_0x4D
	CALL SUBOPT_0x52
;    ILI9341_WriteString(5,pointY+5,buff,Font_11x18,bordWindow,fillWindow,1);
	CALL SUBOPT_0x40
	CALL SUBOPT_0x53
	CALL SUBOPT_0x2C
	CALL SUBOPT_0x54
;    ILI9341_WriteString(5,pointY+25,"",Font_11x18,bordWindow,fillWindow,1);
	CALL SUBOPT_0x40
	MOV  R30,R9
	LDI  R31,0
	ADIW R30,25
	ST   -Y,R31
	ST   -Y,R30
	__POINTW1MN _0x247,0
	CALL SUBOPT_0x2F
	CALL SUBOPT_0x54
;    if (pvT>1250) sprintf(buff,"**.*");
	LDS  R26,_pvT
	LDS  R27,_pvT+1
	CPI  R26,LOW(0x4E3)
	LDI  R30,HIGH(0x4E3)
	CPC  R27,R30
	BRLT _0x248
	CALL SUBOPT_0x29
	__POINTW1FN _0x0,293
	CALL SUBOPT_0x2A
;    else {
	RJMP _0x249
_0x248:
;        temp = pvT; fraction(temp);     //   
	LDS  R30,_pvT
	LDS  R31,_pvT+1
	CALL SUBOPT_0x50
;        sprintf(buff,"%2u.%u",intval,frcval); // T     
	__POINTW1FN _0x0,298
	CALL SUBOPT_0x51
	MOV  R30,R13
	CALL SUBOPT_0x4D
	CALL SUBOPT_0x52
;    }
_0x249:
;    ILI9341_WriteString(140,pointY,buff,Font_11x18,bordWindow,fillWindow,3);
	LDI  R30,LOW(140)
	LDI  R31,HIGH(140)
	CALL SUBOPT_0x55
	CALL SUBOPT_0x56
	CALL SUBOPT_0x2C
	CALL SUBOPT_0x57
;    //   alarm[0]
;    switch (alarm[0]) {
	LDS  R30,_alarm
	LDI  R31,0
;        case 0: temp=GREEN; break;
	SBIW R30,0
	BREQ _0x2D5
;        case 1: temp=RED;   break;
	CPI  R30,LOW(0x1)
	LDI  R26,HIGH(0x1)
	CPC  R31,R26
	BRNE _0x24F
	LDI  R30,LOW(2047)
	LDI  R31,HIGH(2047)
	RJMP _0x2D6
;        default: temp=GREEN;
_0x24F:
_0x2D5:
	LDI  R30,LOW(63519)
	LDI  R31,HIGH(63519)
_0x2D6:
	STD  Y+6,R30
	STD  Y+6+1,R31
;    };
;    ILI9341_FillRectangle(280,pointY+2,30,45,temp);
	LDI  R30,LOW(280)
	LDI  R31,HIGH(280)
	CALL SUBOPT_0x55
	CALL SUBOPT_0x58
;    pointY += 55;
	LDI  R30,LOW(55)
	ADD  R9,R30
;    if(checkTouch()) checkDisplNum();//*****************************    *************************** ...
	RCALL _checkTouch
	CPI  R30,0
	BREQ _0x250
	RCALL _checkDisplNum
;//---  RH ------
;    sprintf(buff,"[%3u%%]",set[1][0]); //  RH
_0x250:
	CALL SUBOPT_0x29
	__POINTW1FN _0x0,305
	ST   -Y,R31
	ST   -Y,R30
	__POINTW2MN _set,8
	CALL __EEPROMRDW
	CALL SUBOPT_0x59
;    ILI9341_WriteString(5,pointY+5,buff,Font_11x18,bordWindow,fillWindow,1);
	CALL SUBOPT_0x40
	CALL SUBOPT_0x53
	CALL SUBOPT_0x2C
	CALL SUBOPT_0x54
;    ILI9341_WriteString(5,pointY+25,"",Font_11x18,bordWindow,fillWindow,1);
	CALL SUBOPT_0x40
	MOV  R30,R9
	LDI  R31,0
	ADIW R30,25
	ST   -Y,R31
	ST   -Y,R30
	__POINTW1MN _0x247,12
	CALL SUBOPT_0x2F
	CALL SUBOPT_0x54
;    if (pvRH>100) sprintf(buff,"***%%",pvRH); else sprintf(buff,"%3u%% ",pvRH);
	CALL SUBOPT_0x1E
	CPI  R26,LOW(0x65)
	LDI  R30,HIGH(0x65)
	CPC  R27,R30
	BRLT _0x251
	CALL SUBOPT_0x29
	__POINTW1FN _0x0,323
	RJMP _0x2D7
_0x251:
	CALL SUBOPT_0x29
	__POINTW1FN _0x0,329
_0x2D7:
	ST   -Y,R31
	ST   -Y,R30
	LDS  R30,_pvRH
	LDS  R31,_pvRH+1
	CALL SUBOPT_0x59
;    ILI9341_WriteString(142,pointY,buff,Font_11x18,bordWindow,fillWindow,3);
	LDI  R30,LOW(142)
	LDI  R31,HIGH(142)
	CALL SUBOPT_0x55
	CALL SUBOPT_0x56
	CALL SUBOPT_0x2C
	CALL SUBOPT_0x57
;    //   alarm[1]
;    switch (alarm[1]) {
	__GETB1MN _alarm,1
	LDI  R31,0
;        case 0: temp=GREEN; break;
	SBIW R30,0
	BREQ _0x2D8
;        case 1: temp=RED;   break;
	CPI  R30,LOW(0x1)
	LDI  R26,HIGH(0x1)
	CPC  R31,R26
	BRNE _0x258
	LDI  R30,LOW(2047)
	LDI  R31,HIGH(2047)
	RJMP _0x2D9
;        default: temp=GREEN;
_0x258:
_0x2D8:
	LDI  R30,LOW(63519)
	LDI  R31,HIGH(63519)
_0x2D9:
	STD  Y+6,R30
	STD  Y+6+1,R31
;    };
;    ILI9341_FillRectangle(280,pointY+2,30,45,temp);
	LDI  R30,LOW(280)
	LDI  R31,HIGH(280)
	CALL SUBOPT_0x55
	CALL SUBOPT_0x58
;    if(checkTouch()) checkDisplNum();//*****************************    *************************** ...
	RCALL _checkTouch
	CPI  R30,0
	BREQ _0x259
	RCALL _checkDisplNum
;//---  CO2 ----
;//CO2module = 1;
;//pHsensor = 1;
;//pvCO2 = 2500;
;//pvPH = 75;
;    pointY += 55;
_0x259:
	LDI  R30,LOW(55)
	ADD  R9,R30
;    if(CO2module){
	SBRS R2,6
	RJMP _0x25A
;    if(error&0x08) ILI9341_WriteString(10,pointY,"CO2  !",Font_11x18,YELLOW,RED,1);
	SBRS R12,3
	RJMP _0x25B
	CALL SUBOPT_0x5A
	ST   -Y,R31
	ST   -Y,R30
	__POINTW1MN _0x247,22
	CALL SUBOPT_0x2F
	CALL SUBOPT_0x4F
	ST   -Y,R31
	ST   -Y,R30
	RJMP _0x2DA
;    else {
_0x25B:
;        sprintf(buff,"CO2   %4u",pvCO2);
	CALL SUBOPT_0x29
	__POINTW1FN _0x0,356
	ST   -Y,R31
	ST   -Y,R30
	LDS  R30,_pvCO2
	LDS  R31,_pvCO2+1
	CALL SUBOPT_0x59
;        ILI9341_WriteString(20,pointY,buff,Font_11x18,bordWindow,fillWindow,2);
	LDI  R30,LOW(20)
	LDI  R31,HIGH(20)
	CALL SUBOPT_0x55
	CALL SUBOPT_0x56
	CALL SUBOPT_0x2C
	CALL SUBOPT_0x5B
	LDI  R26,LOW(2)
	CALL _ILI9341_WriteString
;        ILI9341_WriteString(250,pointY+10,"ppm",Font_11x18,bordWindow,fillWindow,1);
	LDI  R30,LOW(250)
	LDI  R31,HIGH(250)
	CALL SUBOPT_0x55
	ADIW R30,10
	ST   -Y,R31
	ST   -Y,R30
	__POINTW1MN _0x247,42
	CALL SUBOPT_0x2F
	CALL SUBOPT_0x5B
_0x2DA:
	LDI  R26,LOW(1)
	CALL _ILI9341_WriteString
;    }
;    }
;    else ILI9341_WriteString(10,pointY,"CO2  .",Font_11x18,bordWindow,fillWindow,1);
	RJMP _0x25D
_0x25A:
	CALL SUBOPT_0x5A
	ST   -Y,R31
	ST   -Y,R30
	__POINTW1MN _0x247,46
	CALL SUBOPT_0x2F
	CALL SUBOPT_0x54
;//---  H-4502 -----
;    pointY += 35;
_0x25D:
	LDI  R30,LOW(35)
	ADD  R9,R30
;    if(pHsensor){
	SBRS R2,4
	RJMP _0x25E
;        if(error&0x08) ILI9341_WriteString(10,pointY,"  !",Font_11x18,YELLOW,RED,1);
	SBRS R12,3
	RJMP _0x25F
	CALL SUBOPT_0x5A
	ST   -Y,R31
	ST   -Y,R30
	__POINTW1MN _0x247,68
	CALL SUBOPT_0x2F
	CALL SUBOPT_0x4F
	ST   -Y,R31
	ST   -Y,R30
	RJMP _0x2DB
;        else {
_0x25F:
;          temp = pvPH; fraction(temp);
	LDS  R30,_pvPH
	LDS  R31,_pvPH+1
	CALL SUBOPT_0x50
;          sprintf(buff,"   %2u.%u",intval,frcval);
	__POINTW1FN _0x0,411
	CALL SUBOPT_0x51
	MOV  R30,R13
	CALL SUBOPT_0x4D
	CALL SUBOPT_0x52
;          ILI9341_WriteString(20,pointY,buff,Font_11x18,bordWindow,fillWindow,2);
	LDI  R30,LOW(20)
	LDI  R31,HIGH(20)
	CALL SUBOPT_0x55
	CALL SUBOPT_0x56
	CALL SUBOPT_0x2C
	CALL SUBOPT_0x5B
	LDI  R26,LOW(2)
	CALL _ILI9341_WriteString
;          ILI9341_WriteString(230,pointY+10,"",Font_11x18,bordWindow,fillWindow,1);
	LDI  R30,LOW(230)
	LDI  R31,HIGH(230)
	CALL SUBOPT_0x55
	ADIW R30,10
	ST   -Y,R31
	ST   -Y,R30
	__POINTW1MN _0x247,87
	CALL SUBOPT_0x2F
	CALL SUBOPT_0x5B
_0x2DB:
	LDI  R26,LOW(1)
	CALL _ILI9341_WriteString
;        }
;    }
;    else ILI9341_WriteString(10,pointY,"   .",Font_11x18,bordWindow,fillWindow,1);
	RJMP _0x261
_0x25E:
	CALL SUBOPT_0x5A
	ST   -Y,R31
	ST   -Y,R30
	__POINTW1MN _0x247,95
	CALL SUBOPT_0x2F
	CALL SUBOPT_0x54
;    if(checkTouch()) checkDisplNum();//*****************************    *************************** ...
_0x261:
	RCALL _checkTouch
	CPI  R30,0
	BREQ _0x262
	RCALL _checkDisplNum
;}
_0x262:
	RJMP _0x20C0002
; .FEND

	.DSEG
_0x247:
	.BYTE 0x75
;
;//--------------------------------  . -------------------------------------------
;void displ_1(void){

	.CSEG
_displ_1:
; .FSTART _displ_1
; unsigned char i, num = 1;
; unsigned int fillWindow = YELLOW2, bordWindow = BLACK, temp;
;    pointY = 7;
	SBIW R28,2
	CALL __SAVELOCR6
;	i -> R17
;	num -> R16
;	fillWindow -> R18,R19
;	bordWindow -> R20,R21
;	temp -> Y+6
	LDI  R16,1
	__GETWRN 18,19,752
	__GETWRN 20,21,-1
	LDI  R30,LOW(7)
	MOV  R9,R30
;    if(newSetButt){
	TST  R7
	BREQ _0x263
;        newSetButt = 0;
	CLR  R7
;        ILI9341_FillScreen(0, max_X, 0, max_Y, fillWindow);
	CALL SUBOPT_0x16
	CALL SUBOPT_0x45
	CALL SUBOPT_0x46
;        initializeButtons(4,1,25);// 4 ;  ;  25
;        //----------  ------- a ---  -  - ---------
;        drawButton(WHITE, WHITE, BLACK, 0, "");
	CALL SUBOPT_0x16
	CALL SUBOPT_0x16
	LDI  R30,LOW(65535)
	LDI  R31,HIGH(65535)
	CALL SUBOPT_0x3E
	CALL SUBOPT_0x48
;        drawButton(fillWindow, fillWindow, bordWindow, 1, "");
	CALL SUBOPT_0x47
	CALL SUBOPT_0x4A
;        drawButton(WHITE, WHITE, BLACK, 2, "");
	CALL SUBOPT_0x16
	CALL SUBOPT_0x49
	CALL SUBOPT_0x4B
;        drawButton(WHITE, WHITE, BLACK, 3, "");
	CALL SUBOPT_0x16
	CALL SUBOPT_0x49
	CALL SUBOPT_0x4C
;        ILI9341_WriteString(100,pointY," ",Font_11x18,bordWindow,fillWindow,1);
	LDI  R30,LOW(100)
	LDI  R31,HIGH(100)
	CALL SUBOPT_0x55
	ST   -Y,R31
	ST   -Y,R30
	__POINTW1MN _0x264,0
	CALL SUBOPT_0x2F
	CALL SUBOPT_0x54
;    }
;//---  t  ---
;    pointY += 20;
_0x263:
	LDI  R30,LOW(20)
	ADD  R9,R30
;    for (i=0;i<ds18b20;i++){
	LDI  R17,LOW(0)
_0x266:
	CP   R17,R6
	BRLO PC+2
	RJMP _0x267
;        sprintf(buff," %u",i+1);
	CALL SUBOPT_0x29
	__POINTW1FN _0x0,465
	ST   -Y,R31
	ST   -Y,R30
	MOV  R30,R17
	LDI  R31,0
	ADIW R30,1
	CALL SUBOPT_0x59
;        ILI9341_WriteString(5,pointY+12,buff,Font_11x18,bordWindow,fillWindow,1);
	CALL SUBOPT_0x40
	MOV  R30,R9
	LDI  R31,0
	ADIW R30,12
	CALL SUBOPT_0x56
	CALL SUBOPT_0x2C
	CALL SUBOPT_0x54
;        temp = t.point[i];
	MOV  R30,R17
	LDI  R26,LOW(_t)
	LDI  R27,HIGH(_t)
	LDI  R31,0
	LSL  R30
	ROL  R31
	ADD  R26,R30
	ADC  R27,R31
	CALL SUBOPT_0x5C
;        if(temp>1250) sprintf(buff,"**.*");
	CPI  R26,LOW(0x4E3)
	LDI  R30,HIGH(0x4E3)
	CPC  R27,R30
	BRLO _0x268
	CALL SUBOPT_0x29
	__POINTW1FN _0x0,293
	CALL SUBOPT_0x2A
;        else {
	RJMP _0x269
_0x268:
;            fraction(temp);     //   
	LDD  R26,Y+6
	LDD  R27,Y+6+1
	RCALL _fraction
;            sprintf(buff,"%2u.%u",intval,frcval); // T     
	CALL SUBOPT_0x29
	__POINTW1FN _0x0,298
	CALL SUBOPT_0x51
	MOV  R30,R13
	CALL SUBOPT_0x4D
	CALL SUBOPT_0x52
;        }
_0x269:
;        ILI9341_WriteString(120,pointY,buff,Font_11x18,bordWindow,fillWindow,2);
	LDI  R30,LOW(120)
	LDI  R31,HIGH(120)
	CALL SUBOPT_0x55
	CALL SUBOPT_0x56
	CALL SUBOPT_0x2C
	CALL SUBOPT_0x5B
	LDI  R26,LOW(2)
	CALL _ILI9341_WriteString
;        pointY += 35;
	LDI  R30,LOW(35)
	ADD  R9,R30
;    };
	SUBI R17,-1
	RJMP _0x266
_0x267:
;    if(checkTouch()) checkDisplNum();//*****************************    *************************** ...
	RCALL _checkTouch
	CPI  R30,0
	BREQ _0x26A
	RCALL _checkDisplNum
;}
_0x26A:
	RJMP _0x20C0002
; .FEND

	.DSEG
_0x264:
	.BYTE 0xC
;
;//------------------------------   --------------------------------------------
;void displ_2(void){

	.CSEG
_displ_2:
; .FSTART _displ_2
; signed char i,x;
; unsigned int fillWindow = GRAY1, bordWindow = BLACK, color_box;
;    pointY=7;
	SBIW R28,2
	CALL __SAVELOCR6
;	i -> R17
;	x -> R16
;	fillWindow -> R18,R19
;	bordWindow -> R20,R21
;	color_box -> Y+6
	__GETWRN 18,19,31727
	__GETWRN 20,21,-1
	LDI  R30,LOW(7)
	MOV  R9,R30
;    if(newSetButt){
	TST  R7
	BRNE PC+2
	RJMP _0x26B
;        newSetButt = 0;
	CLR  R7
;        ILI9341_FillScreen(0, max_X, 0, max_Y, fillWindow);
	CALL SUBOPT_0x16
	CALL SUBOPT_0x45
	CALL SUBOPT_0x46
;        initializeButtons(4,1,25);// 4 ;  ;  25
;        //----------  ------- a ---  -  - ---------
;        drawButton(WHITE, WHITE, BLACK, 0, "");
	CALL SUBOPT_0x16
	CALL SUBOPT_0x16
	LDI  R30,LOW(65535)
	LDI  R31,HIGH(65535)
	CALL SUBOPT_0x3E
	CALL SUBOPT_0x48
;        drawButton(WHITE, WHITE, BLACK, 1, "");
	CALL SUBOPT_0x16
	CALL SUBOPT_0x16
	CALL SUBOPT_0x49
	LDI  R30,LOW(1)
	ST   -Y,R30
	__POINTW2FN _0x0,208
	RCALL _drawButton
;        drawButton(fillWindow, fillWindow, bordWindow, 2, "");
	CALL SUBOPT_0x47
	CALL SUBOPT_0x4B
;        drawButton(WHITE, WHITE, BLACK, 3, "");
	CALL SUBOPT_0x16
	CALL SUBOPT_0x49
	CALL SUBOPT_0x4C
;        //--
;        initializePlus(pointY+25, 8, 16);
	MOV  R30,R9
	SUBI R30,-LOW(25)
	ST   -Y,R30
	LDI  R30,LOW(8)
	ST   -Y,R30
	LDI  R26,LOW(16)
	RCALL _initializePlus
;        for (i=0;i<plusCount;i++) drawPlus(i, fillWindow);
	LDI  R17,LOW(0)
_0x26D:
	LDS  R30,_plusCount
	CALL SUBOPT_0x5D
	LDI  R31,0
	CP   R26,R30
	CPC  R27,R31
	BRGE _0x26E
	ST   -Y,R17
	MOVW R26,R18
	RCALL _drawPlus
	SUBI R17,-1
	RJMP _0x26D
_0x26E:
	LDI  R30,LOW(90)
	LDI  R31,HIGH(90)
	CALL SUBOPT_0x55
	ST   -Y,R31
	ST   -Y,R30
	__POINTW1MN _0x26F,0
	CALL SUBOPT_0x2F
	CALL SUBOPT_0x54
;    }
;//*****************************     ***************************************
;    if(checkTouch()){
_0x26B:
	RCALL _checkTouch
	CPI  R30,0
	BRNE PC+2
	RJMP _0x270
;//      sprintf(buff,"X%4u; Y%4u",point_X,point_Y);
;//      ILI9341_WriteString(5,TFTBUTTON-60,buff,Font_11x18,WHITE,BLACK,1);
;      if(point_X>220&&point_Y<100){
	CALL SUBOPT_0x35
	CPI  R26,LOW(0xDD)
	LDI  R30,HIGH(0xDD)
	CPC  R27,R30
	BRLO _0x272
	CALL SUBOPT_0x37
	CPI  R26,LOW(0x64)
	LDI  R30,HIGH(0x64)
	CPC  R27,R30
	BRLO _0x273
_0x272:
	RJMP _0x271
_0x273:
;        for (i=0; i<8; i++){if(containsPlus(i)) break;}//    
	LDI  R17,LOW(0)
_0x275:
	CPI  R17,8
	BRGE _0x276
	MOV  R26,R17
	RCALL _containsPlus
	CPI  R30,0
	BRNE _0x276
	SUBI R17,-1
	RJMP _0x275
_0x276:
;        if(i<8){
	CPI  R17,8
	BRGE _0x278
;            BeepT = 20;
	LDI  R30,LOW(20)
	MOV  R5,R30
;            if(i%2) x=-1; else x=1;   //  "+"   "-"
	CALL SUBOPT_0x5D
	LDI  R30,LOW(2)
	LDI  R31,HIGH(2)
	CALL __MODW21
	SBIW R30,0
	BREQ _0x279
	LDI  R16,LOW(255)
	RJMP _0x27A
_0x279:
	LDI  R16,LOW(1)
;            i /= 2;
_0x27A:
	CALL SUBOPT_0x5D
	LDI  R30,LOW(2)
	LDI  R31,HIGH(2)
	CALL __DIVW21
	MOV  R17,R30
;            relay[i]+=x; if(relay[i]>2) relay[i]=0; else if(relay[i]<0) relay[i]=2;}
	MOV  R26,R17
	LDI  R27,0
	SUBI R26,LOW(-_relay)
	SBCI R27,HIGH(-_relay)
	LD   R30,X
	ADD  R30,R16
	ST   X,R30
	CALL SUBOPT_0x5E
	LD   R26,Z
	CPI  R26,LOW(0x3)
	BRLT _0x27B
	CALL SUBOPT_0x5E
	LDI  R26,LOW(0)
	RJMP _0x2DC
_0x27B:
	CALL SUBOPT_0x5E
	LD   R26,Z
	CPI  R26,0
	BRGE _0x27D
	CALL SUBOPT_0x5E
	LDI  R26,LOW(2)
_0x2DC:
	STD  Z+0,R26
_0x27D:
;      }
_0x278:
;      else checkDisplNum();
	RJMP _0x27E
_0x271:
	RCALL _checkDisplNum
;    }
_0x27E:
;//----   ----
;    pointY += 20;
_0x270:
	LDI  R30,LOW(20)
	ADD  R9,R30
;    for (i=0;i<4;i++){
	LDI  R17,LOW(0)
_0x280:
	CPI  R17,4
	BRLT PC+2
	RJMP _0x281
;    sprintf(buff,"  N%u: ",i+1);
	CALL SUBOPT_0x29
	__POINTW1FN _0x0,491
	CALL SUBOPT_0x5F
;    switch (relay[i]){
	CALL SUBOPT_0x5E
	LD   R30,Z
	LDI  R31,0
	SBRC R30,7
	SER  R31
;      case 2: strcat(buff,""); break;
	CPI  R30,LOW(0x2)
	LDI  R26,HIGH(0x2)
	CPC  R31,R26
	BRNE _0x285
	CALL SUBOPT_0x29
	__POINTW2MN _0x26F,16
	CALL _strcat
	RJMP _0x284
;      case 1: strcat(buff,"ON "); relOut[i]=1; break;
_0x285:
	CPI  R30,LOW(0x1)
	LDI  R26,HIGH(0x1)
	CPC  R31,R26
	BRNE _0x286
	CALL SUBOPT_0x29
	__POINTW2MN _0x26F,20
	CALL SUBOPT_0x60
	LDI  R26,LOW(1)
	RJMP _0x2DD
;      case 0: strcat(buff,"OFF"); relOut[i]=0; break;
_0x286:
	SBIW R30,0
	BRNE _0x284
	CALL SUBOPT_0x29
	__POINTW2MN _0x26F,24
	CALL SUBOPT_0x60
	LDI  R26,LOW(0)
_0x2DD:
	STD  Z+0,R26
;    };
_0x284:
;    ILI9341_WriteString(5,pointY,buff,Font_11x18,bordWindow,fillWindow,1);
	CALL SUBOPT_0x40
	MOV  R30,R9
	LDI  R31,0
	CALL SUBOPT_0x56
	CALL SUBOPT_0x2C
	CALL SUBOPT_0x54
;    if(relOut[i]) color_box=YELLOW; else color_box=BLACK;
	MOV  R30,R17
	LDI  R31,0
	SUBI R30,LOW(-_relOut)
	SBCI R31,HIGH(-_relOut)
	LD   R30,Z
	CPI  R30,0
	BREQ _0x288
	LDI  R30,LOW(31)
	LDI  R31,HIGH(31)
	RJMP _0x2DE
_0x288:
	LDI  R30,LOW(65535)
	LDI  R31,HIGH(65535)
_0x2DE:
	STD  Y+6,R30
	STD  Y+6+1,R31
;    ILI9341_FillRectangle(160,pointY,40,18,color_box);
	LDI  R30,LOW(160)
	LDI  R31,HIGH(160)
	CALL SUBOPT_0x55
	ST   -Y,R31
	ST   -Y,R30
	LDI  R30,LOW(40)
	LDI  R31,HIGH(40)
	ST   -Y,R31
	ST   -Y,R30
	LDI  R30,LOW(18)
	LDI  R31,HIGH(18)
	ST   -Y,R31
	ST   -Y,R30
	LDD  R26,Y+14
	LDD  R27,Y+14+1
	CALL _ILI9341_FillRectangle
;    pointY = pointY+22;
	LDI  R30,LOW(22)
	ADD  R9,R30
;    }
	SUBI R17,-1
	RJMP _0x280
_0x281:
;
;//*****************************    0-10v ***************************************
;    if(checkTouch()){
	RCALL _checkTouch
	CPI  R30,0
	BRNE PC+2
	RJMP _0x28A
;      sprintf(buff,"X%4u; Y%4u",point_X,point_Y);
	CALL SUBOPT_0x29
	__POINTW1FN _0x0,515
	ST   -Y,R31
	ST   -Y,R30
	LDS  R30,_point_X
	LDS  R31,_point_X+1
	CLR  R22
	CLR  R23
	CALL __PUTPARD1
	LDS  R30,_point_Y
	LDS  R31,_point_Y+1
	CLR  R22
	CLR  R23
	CALL __PUTPARD1
	CALL SUBOPT_0x52
;      ILI9341_WriteString(5,TFTBUTTON-60,buff,Font_11x18,WHITE,BLACK,1);
	CALL SUBOPT_0x40
	LDI  R30,LOW(140)
	LDI  R31,HIGH(140)
	CALL SUBOPT_0x56
	CALL SUBOPT_0x2C
	CALL SUBOPT_0x16
	CALL SUBOPT_0x61
;      if(point_X>220&&point_Y>100&&point_Y<200){
	CALL SUBOPT_0x35
	CPI  R26,LOW(0xDD)
	LDI  R30,HIGH(0xDD)
	CPC  R27,R30
	BRLO _0x28C
	CALL SUBOPT_0x37
	CPI  R26,LOW(0x65)
	LDI  R30,HIGH(0x65)
	CPC  R27,R30
	BRLO _0x28C
	CALL SUBOPT_0x37
	CPI  R26,LOW(0xC8)
	LDI  R30,HIGH(0xC8)
	CPC  R27,R30
	BRLO _0x28D
_0x28C:
	RJMP _0x28B
_0x28D:
;        for (i=8; i<16; i++){if(containsPlus(i)) break;}//    
	LDI  R17,LOW(8)
_0x28F:
	CPI  R17,16
	BRGE _0x290
	MOV  R26,R17
	RCALL _containsPlus
	CPI  R30,0
	BRNE _0x290
	SUBI R17,-1
	RJMP _0x28F
_0x290:
;        sprintf(buff,"i=%2u",i);
	CALL SUBOPT_0x29
	__POINTW1FN _0x0,526
	CALL SUBOPT_0x62
	CALL SUBOPT_0x63
;        ILI9341_WriteString(5,TFTBUTTON-30,buff,Font_11x18,WHITE,BLACK,1);
	CALL SUBOPT_0x40
	LDI  R30,LOW(170)
	LDI  R31,HIGH(170)
	CALL SUBOPT_0x56
	CALL SUBOPT_0x2C
	CALL SUBOPT_0x16
	CALL SUBOPT_0x61
;        if(i<16){
	CPI  R17,16
	BRLT PC+2
	RJMP _0x292
;            BeepT = 20;
	LDI  R30,LOW(20)
	MOV  R5,R30
;            if(i%2) x=-1; else x=1;   //  "+"   "-"
	CALL SUBOPT_0x5D
	LDI  R30,LOW(2)
	LDI  R31,HIGH(2)
	CALL __MODW21
	SBIW R30,0
	BREQ _0x293
	LDI  R16,LOW(255)
	RJMP _0x294
_0x293:
	LDI  R16,LOW(1)
;            i /= 2; i -= 4;
_0x294:
	CALL SUBOPT_0x5D
	LDI  R30,LOW(2)
	LDI  R31,HIGH(2)
	CALL __DIVW21
	MOV  R17,R30
	SUBI R17,LOW(4)
;            sprintf(buff,"i=%2u; x=%2i",i,x);
	CALL SUBOPT_0x29
	__POINTW1FN _0x0,532
	CALL SUBOPT_0x62
	MOV  R30,R16
	CALL __CBD1
	CALL __PUTPARD1
	CALL SUBOPT_0x52
;            ILI9341_WriteString(5,TFTBUTTON-45,buff,Font_11x18,WHITE,BLACK,1);
	CALL SUBOPT_0x40
	LDI  R30,LOW(155)
	LDI  R31,HIGH(155)
	CALL SUBOPT_0x56
	CALL SUBOPT_0x2C
	CALL SUBOPT_0x16
	CALL SUBOPT_0x61
;            analog[i]+=x*10; if(analog[i]>100) analog[i]=100; else if(analog[i]==9) analog[i]=10; else if(analog[i]<-1)  ...
	CALL SUBOPT_0x64
	__PUTW1R 23,24
	LD   R22,Z
	LDI  R26,LOW(10)
	MULS R16,R26
	MOVW R30,R0
	ADD  R30,R22
	__GETW2R 23,24
	ST   X,R30
	CALL SUBOPT_0x64
	LD   R26,Z
	CPI  R26,LOW(0x65)
	BRLT _0x295
	CALL SUBOPT_0x64
	LDI  R26,LOW(100)
	RJMP _0x2DF
_0x295:
	CALL SUBOPT_0x64
	LD   R26,Z
	CPI  R26,LOW(0x9)
	BRNE _0x297
	CALL SUBOPT_0x64
	LDI  R26,LOW(10)
	RJMP _0x2DF
_0x297:
	CALL SUBOPT_0x64
	LD   R26,Z
	CPI  R26,LOW(0xFF)
	BRGE _0x299
	CALL SUBOPT_0x64
	LDI  R26,LOW(255)
_0x2DF:
	STD  Z+0,R26
_0x299:
;      }
_0x292:
;      else checkDisplNum();
	RJMP _0x29A
_0x28B:
	RCALL _checkDisplNum
;    }
_0x29A:
;//----   ----
;    for (i=0;i<4;i++){
_0x28A:
	LDI  R17,LOW(0)
_0x29C:
	CPI  R17,4
	BRLT PC+2
	RJMP _0x29D
;    sprintf(buff," N%u: ",i+1);
	CALL SUBOPT_0x29
	__POINTW1FN _0x0,545
	CALL SUBOPT_0x5F
;    if(analog[i]==-1) strcat(buff,""); else {strcat(buff,""); analogOut[i]=analog[i];}
	CALL SUBOPT_0x64
	LD   R26,Z
	CPI  R26,LOW(0xFF)
	BRNE _0x29E
	CALL SUBOPT_0x29
	__POINTW2MN _0x26F,28
	CALL _strcat
	RJMP _0x29F
_0x29E:
	CALL SUBOPT_0x29
	__POINTW2MN _0x26F,32
	CALL _strcat
	CALL SUBOPT_0x65
	LD   R30,Z
	ST   X,R30
_0x29F:
;    sprintf(txt," %3u%% ",analogOut[i]);
	LDI  R30,LOW(_txt)
	LDI  R31,HIGH(_txt)
	ST   -Y,R31
	ST   -Y,R30
	__POINTW1FN _0x0,561
	ST   -Y,R31
	ST   -Y,R30
	CALL SUBOPT_0x66
	LD   R30,Z
	CALL SUBOPT_0x4D
	CALL SUBOPT_0x63
;    strcat(buff,txt);
	CALL SUBOPT_0x29
	LDI  R26,LOW(_txt)
	LDI  R27,HIGH(_txt)
	CALL _strcat
;    ILI9341_WriteString(5,pointY,buff,Font_11x18,bordWindow,fillWindow,1);
	CALL SUBOPT_0x40
	MOV  R30,R9
	LDI  R31,0
	CALL SUBOPT_0x56
	CALL SUBOPT_0x2C
	CALL SUBOPT_0x54
;    pointY = pointY+22;
	LDI  R30,LOW(22)
	ADD  R9,R30
;    };
	SUBI R17,-1
	RJMP _0x29C
_0x29D:
;
;}
_0x20C0002:
	CALL __LOADLOCR6
	ADIW R28,8
	RET
; .FEND

	.DSEG
_0x26F:
	.BYTE 0x24
;
;void displ_3(void){

	.CSEG
_displ_3:
; .FSTART _displ_3
; char item, X_left;
; signed char x;
; unsigned int fillWindow = GREEN1, bordWindow = BLACK, temp;
;  pointY=7;
	SBIW R28,4
	LDI  R30,LOW(255)
	STD  Y+2,R30
	STD  Y+3,R30
	CALL __SAVELOCR6
;	item -> R17
;	X_left -> R16
;	x -> R19
;	fillWindow -> R20,R21
;	bordWindow -> Y+8
;	temp -> Y+6
	__GETWRN 20,21,-1393
	LDI  R30,LOW(7)
	MOV  R9,R30
;  if (newSetButt){
	TST  R7
	BREQ _0x2A0
;//    drawButtEdit(fillWindow);
;    initializePlus(pointY+25, 4, 30);
	SUBI R30,-LOW(25)
	ST   -Y,R30
	LDI  R30,LOW(4)
	ST   -Y,R30
	LDI  R26,LOW(30)
	RCALL _initializePlus
;    for (item=0;item<plusCount;item++) drawPlus(item, fillWindow);
	LDI  R17,LOW(0)
_0x2A2:
	LDS  R30,_plusCount
	CP   R17,R30
	BRSH _0x2A3
	ST   -Y,R17
	MOVW R26,R20
	RCALL _drawPlus
	SUBI R17,-1
	RJMP _0x2A2
_0x2A3:
	CALL SUBOPT_0x29
	__POINTW1FN _0x0,569
	ST   -Y,R31
	ST   -Y,R30
	MOV  R30,R9
	CALL SUBOPT_0x4D
	CALL SUBOPT_0x63
;    ILI9341_WriteString(50,pointY,buff,Font_11x18,bordWindow,fillWindow,1);
	LDI  R30,LOW(50)
	LDI  R31,HIGH(50)
	CALL SUBOPT_0x55
	CALL SUBOPT_0x56
	CALL SUBOPT_0x2C
	LDD  R30,Y+18
	LDD  R31,Y+18+1
	ST   -Y,R31
	ST   -Y,R30
	ST   -Y,R21
	ST   -Y,R20
	LDI  R26,LOW(1)
	CALL _ILI9341_WriteString
;  }
;  //++++++++++++++++++++++++++++++++++++++++++++++++++++++++++++++++++++++++++++++++++++++++++++++++++++++
;
;}
_0x2A0:
	CALL __LOADLOCR6
	ADIW R28,10
	RET
; .FEND
;
;void display(void){
_display:
; .FSTART _display
; switch (displ_num){
	MOV  R30,R4
	LDI  R31,0
;    case 0: displ_0(); break;
	SBIW R30,0
	BREQ _0x2E0
;    case 1: displ_1(); break;
	CPI  R30,LOW(0x1)
	LDI  R26,HIGH(0x1)
	CPC  R31,R26
	BRNE _0x2A8
	RCALL _displ_1
	RJMP _0x2A6
;    case 2: displ_2(); break;
_0x2A8:
	CPI  R30,LOW(0x2)
	LDI  R26,HIGH(0x2)
	CPC  R31,R26
	BRNE _0x2A9
	RCALL _displ_2
	RJMP _0x2A6
;    case 3: displ_3(); break;
_0x2A9:
	CPI  R30,LOW(0x3)
	LDI  R26,HIGH(0x3)
	CPC  R31,R26
	BRNE _0x2AB
	RCALL _displ_3
	RJMP _0x2A6
;//    case 4: displ_4(); break;
;//    case 5: displ_5(); break;
;//    case 6: displ_6(); break;
;//    case 7: displ_7(); break;
;//    case 8: displ_8(); break;
;//    case 9: displ_9(); break;
;    default: displ_0(); break;
_0x2AB:
_0x2E0:
	RCALL _displ_0
;  }
_0x2A6:
;}
	RET
; .FEND
;
;// External Interrupt 0 service routine
;interrupt [EXT_INT0] void ext_int0_isr(void){
; 0000 0066 interrupt [2] void ext_int0_isr(void){
_ext_int0_isr:
; .FSTART _ext_int0_isr
	ST   -Y,R26
	ST   -Y,R27
	ST   -Y,R30
	ST   -Y,R31
	IN   R30,SREG
	ST   -Y,R30
; 0000 0067  static unsigned int count1;
; 0000 0068  count1++;
	LDI  R26,LOW(_count1_S000002B000)
	LDI  R27,HIGH(_count1_S000002B000)
	CALL SUBOPT_0x67
; 0000 0069 }
	LD   R30,Y+
	OUT  SREG,R30
	LD   R31,Y+
	LD   R30,Y+
	LD   R27,Y+
	LD   R26,Y+
	RETI
; .FEND
;// 0.25 Hz timer interrupt generated by Timer1 overflow;  Timer Period: 4,1943 s
;interrupt [TIM1_OVF] void timer_comp_isr(void){
; 0000 006B interrupt [10] void timer_comp_isr(void){
_timer_comp_isr:
; .FSTART _timer_comp_isr
	ST   -Y,R30
	IN   R30,SREG
; 0000 006C  Sec=1;
	SET
	BLD  R2,0
; 0000 006D }
	OUT  SREG,R30
	LD   R30,Y+
	RETI
; .FEND
;
;
;void main(void){
; 0000 0070 void main(void){
_main:
; .FSTART _main
; 0000 0071 // Declare your local variables here
; 0000 0072 char byte;
; 0000 0073 #include "init.c"
;// Port D initialization
;PORTD=0x00;// State7=0 State6=T State5=T State4=T State3=T State2=T State1=T State0=T
;	byte -> R17
	LDI  R30,LOW(0)
	OUT  0x12,R30
;DDRD=0x00;// Func7=In Func6=In Func5=In Func4=In Func3=In Func2=In Func1=In Func0=In
	OUT  0x11,R30
;
;// Timer/Counter 0 initialization
;
;// Timer/Counter 1 initialization
;
;TCCR1A=0x00;// initialize Timer1 overflow interrupts in Mode 0 (Normal)
	OUT  0x2F,R30
;TCCR1B=(1<<CS12)|(1<<CS10);// clkio/1024; Clock value: 15,625 kHz
	LDI  R30,LOW(5)
	OUT  0x2E,R30
;TCNT1H=0;
	LDI  R30,LOW(0)
	OUT  0x2D,R30
;TCNT1L=0;// timer overflow interrupts will occur with 0.25Hz frequency
	OUT  0x2C,R30
;
;// Timer/Counter 2 initialization
;
;// External Interrupt(s) initialization
;// INT0: On Mode: Falling Edge INT1: Off INT2: Off
;GICR|=0x40;
	IN   R30,0x3B
	ORI  R30,0x40
	OUT  0x3B,R30
;MCUCR=0x02;
	LDI  R30,LOW(2)
	OUT  0x35,R30
;MCUCSR=0x00;
	LDI  R30,LOW(0)
	OUT  0x34,R30
;GIFR=0x40;
	LDI  R30,LOW(64)
	OUT  0x3A,R30
;
;// Timer(s)/Counter(s) Interrupt(s) initialization
;//TIMSK=0x10;
;TIMSK=1<<TOIE1;// enable Timer1 overflow interrupt
	LDI  R30,LOW(4)
	OUT  0x39,R30
;
;// USART initialization
;// Communication Parameters: 8 Data, 1 Stop, No Parity
;// USART Receiver: On
;// USART Transmitter: On
;// USART Mode: Asynchronous
;// USART Baud Rate: 9600
;UCSRA=0x00;
	LDI  R30,LOW(0)
	OUT  0xB,R30
;UCSRB=0xD8;
	LDI  R30,LOW(216)
	OUT  0xA,R30
;UCSRC=0x86;
	LDI  R30,LOW(134)
	OUT  0x20,R30
;UBRRH=0x00;
	LDI  R30,LOW(0)
	OUT  0x20,R30
;UBRRL=0x67;
	LDI  R30,LOW(103)
	OUT  0x9,R30
;
;// Analog Comparator initialization
;ACSR=0x80;// Analog Comparator: Off
	LDI  R30,LOW(128)
	OUT  0x8,R30
;SFIOR=0x00;
	LDI  R30,LOW(0)
	OUT  0x30,R30
;
;// TWI initialization
;//TWBR=0x0C;// Bit Rate: 400,000 kHz
;TWBR=0x48;// Bit Rate: 100,000 kHz
	LDI  R30,LOW(72)
	OUT  0x0,R30
;TWAR=0x00;// Two Wire Bus Slave Address: 0x0; General Call Recognition: Off
	LDI  R30,LOW(0)
	OUT  0x2,R30
;TWCR=0x44;// Generate Acknowledge Pulse: On; TWI Interrupt: Off
	LDI  R30,LOW(68)
	OUT  0x36,R30
;TWSR=0x00;
	LDI  R30,LOW(0)
	OUT  0x1,R30
;
;// ADC initialization
;// ADC Clock frequency: 125,000 kHz
;// ADC Voltage Reference: AREF pin
;ADMUX=ADC_VREF_TYPE & 0xff;
	LDI  R30,LOW(64)
	OUT  0x7,R30
;ADCSRA=0x84;
	LDI  R30,LOW(132)
	OUT  0x6,R30
;
;offsetT = set[4][0];
	__POINTW2MN _set,32
	CALL __EEPROMRDW
	STS  _offsetT,R30
	STS  _offsetT+1,R31
;offsetRH = set[4][1];
	__POINTW2MN _set,34
	CALL __EEPROMRDW
	STS  _offsetRH,R30
	STS  _offsetRH+1,R31
;typeS = set[4][2];
	__POINTW2MN _set,36
	CALL __EEPROMRDB
	CALL __BSTB1
	BLD  R2,5
;//setDAC();           //     
;delay_ms(1000);
	LDI  R26,LOW(1000)
	LDI  R27,HIGH(1000)
	CALL _delay_ms
;Dht = readDHT();    // detect DHT-21/11
	CALL _readDHT
	CALL __BSTB1
	BLD  R2,2
;//------ 1 Wire Protocol Functions ----------------------------------------------------------------------
;ds18b20 = w1_search(0xf0,familycode);// detect how many DS1820/DS18S20 devices are connected to the 1 Wire bus
	LDI  R30,LOW(240)
	ST   -Y,R30
	LDI  R26,LOW(_familycode)
	LDI  R27,HIGH(_familycode)
	CALL _w1_search
	MOV  R6,R30
;if((ds18b20+Dht)>MAX_DEVICES) ds18b20=(MAX_DEVICES-Dht);
	CALL SUBOPT_0x68
	ADD  R26,R30
	ADC  R27,R31
	SBIW R26,4
	BRLT _0x2AC
	LDI  R30,0
	SBRC R2,2
	LDI  R30,1
	LDI  R26,LOW(3)
	SUB  R26,R30
	MOV  R6,R26
;if(ds18b20)           //    
_0x2AC:
	TST  R6
	BREQ _0x2AD
; {
;   w1_init();      // 1 Wire Bus initialization
	CALL SUBOPT_0x44
;   w1_write(0xCC); // Load Skip ROM [CCH] command
;   w1_write(0x44); // Load Convert T [44H] command
; }
;//------------------------ once per second --------------------------------------
;clock_buffer[0] = 0;// EOSC=0 BBSQW=0 CONV=0 RS2=0 RS1=0 INTCN=0 A2IE=0 A1IE=0
_0x2AD:
	LDI  R30,LOW(0)
	STS  _clock_buffer,R30
;clock_buffer[1] = 0;//  EN32kHz=0 BSY=0 A2F=0 A1F=0
	__PUTB1MN _clock_buffer,1
;Clock_Ok = write_TWI(DS3231,0x0E,clock_buffer,2);
	LDI  R30,LOW(208)
	ST   -Y,R30
	LDI  R30,LOW(14)
	LDI  R31,HIGH(14)
	ST   -Y,R31
	ST   -Y,R30
	LDI  R30,LOW(_clock_buffer)
	LDI  R31,HIGH(_clock_buffer)
	ST   -Y,R31
	ST   -Y,R30
	LDI  R26,LOW(2)
	CALL _write_TWI
	CALL __BSTB1
	BLD  R2,1
;
;// Global enable interrupts
;#asm("sei")
	sei
;
;InitInterface();
	CALL _InitInterface
;ILI9341_Init();
	CALL _ILI9341_Init
;//TFT_SetOrientation(3);  //0
;ILI9341_FillScreen(0, max_X, 0, max_Y, fillScreen);
	CALL SUBOPT_0x16
	CALL SUBOPT_0x45
	LDS  R30,_max_Y
	LDS  R31,_max_Y+1
	ST   -Y,R31
	ST   -Y,R30
	LDS  R26,_fillScreen
	LDS  R27,_fillScreen+1
	CALL _ILI9341_FillScreen
;pointY = 10;
	LDI  R30,LOW(10)
	MOV  R9,R30
;ILI9341_WriteString(60, pointY, "www.graviton.com.ua", Font_11x18, WHITE, fillScreen, 1);
	LDI  R30,LOW(60)
	LDI  R31,HIGH(60)
	CALL SUBOPT_0x55
	ST   -Y,R31
	ST   -Y,R30
	__POINTW1MN _0x2AE,0
	CALL SUBOPT_0x2F
	CALL SUBOPT_0x16
	CALL SUBOPT_0x69
	CALL SUBOPT_0x2D
;pointY += 30;
	CALL SUBOPT_0x6A
;ILI9341_WriteString(80, pointY, "", Font_11x18, WHITE, fillScreen, 2);
	ST   -Y,R31
	ST   -Y,R30
	__POINTW1MN _0x2AE,20
	CALL SUBOPT_0x2F
	CALL SUBOPT_0x16
	CALL SUBOPT_0x6B
;pointY += 30;
	CALL SUBOPT_0x6A
;ILI9341_WriteString(80, pointY, "", Font_11x18, WHITE, fillScreen, 2);
	ST   -Y,R31
	ST   -Y,R30
	__POINTW1MN _0x2AE,28
	CALL SUBOPT_0x2F
	CALL SUBOPT_0x16
	CALL SUBOPT_0x6B
;pointY = pointY+45;
	LDI  R30,LOW(45)
	ADD  R9,R30
;sprintf(buff,"  %u",ds18b20+Dht);    //  
	CALL SUBOPT_0x29
	__POINTW1FN _0x0,621
	ST   -Y,R31
	ST   -Y,R30
	CALL SUBOPT_0x68
	ADD  R30,R26
	ADC  R31,R27
	CALL SUBOPT_0x59
;ILI9341_WriteString(10, pointY, buff, Font_11x18, WHITE, fillScreen, 1);
	CALL SUBOPT_0x5A
	CALL SUBOPT_0x56
	CALL SUBOPT_0x2C
	CALL SUBOPT_0x16
	CALL SUBOPT_0x69
	CALL SUBOPT_0x2D
;pointY = pointY+20;
	LDI  R30,LOW(20)
	ADD  R9,R30
;sprintf(buff,"  %u",Dht);                //  AM2301
	CALL SUBOPT_0x29
	__POINTW1FN _0x0,645
	ST   -Y,R31
	ST   -Y,R30
	LDI  R30,0
	SBRC R2,2
	LDI  R30,1
	CALL SUBOPT_0x4D
	CALL SUBOPT_0x63
;ILI9341_WriteString(10, pointY, buff, Font_11x18, WHITE, fillScreen, 1);
	CALL SUBOPT_0x5A
	CALL SUBOPT_0x56
	CALL SUBOPT_0x2C
	CALL SUBOPT_0x16
	CALL SUBOPT_0x69
	CALL SUBOPT_0x2D
;//  pointY = pointY+20;
;
;newSetButt = 1;
	LDI  R30,LOW(1)
	MOV  R7,R30
;temperature_check();
	RCALL _temperature_check
;//display();
; 0000 0074 
; 0000 0075 while (1){
_0x2AF:
; 0000 0076    //-----------  1  ---------------------------
; 0000 0077    if(Sec){
	SBRS R2,0
	RJMP _0x2B2
; 0000 0078      Sec=0;
	CLT
	BLD  R2,0
; 0000 0079      if(ds18b20) temperature_check();
	TST  R6
	BREQ _0x2B3
	RCALL _temperature_check
; 0000 007A      if(Dht){                                         //   
_0x2B3:
	SBRS R2,2
	RJMP _0x2B4
; 0000 007B        if(readDHT()) DHTexist = 3;
	CALL _readDHT
	CPI  R30,0
	BREQ _0x2B5
	LDI  R30,LOW(3)
	MOV  R8,R30
; 0000 007C        else if(DHTexist) DHTexist--;                   //   ?
	RJMP _0x2B6
_0x2B5:
	TST  R8
	BREQ _0x2B7
	DEC  R8
; 0000 007D        else {pvT = 1900; pvRH = 190;}
	RJMP _0x2B8
_0x2B7:
	LDI  R30,LOW(1900)
	LDI  R31,HIGH(1900)
	STS  _pvT,R30
	STS  _pvT+1,R31
	LDI  R30,LOW(190)
	LDI  R31,HIGH(190)
	CALL SUBOPT_0x1D
_0x2B8:
_0x2B6:
; 0000 007E      }
; 0000 007F      for(byte=0; byte<4; byte++){if(relay[byte]<2) relOut[byte]=relay[byte];}
_0x2B4:
	LDI  R17,LOW(0)
_0x2BA:
	CPI  R17,4
	BRSH _0x2BB
	CALL SUBOPT_0x5E
	LD   R26,Z
	CPI  R26,LOW(0x2)
	BRGE _0x2BC
	MOV  R26,R17
	LDI  R27,0
	SUBI R26,LOW(-_relOut)
	SBCI R27,HIGH(-_relOut)
	CALL SUBOPT_0x5E
	LD   R30,Z
	ST   X,R30
_0x2BC:
	SUBI R17,-1
	RJMP _0x2BA
_0x2BB:
; 0000 0080      for(byte=0; byte<4; byte++){
	LDI  R17,LOW(0)
_0x2BE:
	CPI  R17,4
	BRSH _0x2BF
; 0000 0081         if(analog[byte]>=0) analogOut[byte] = analog[byte]; else analogOut[byte] = 0; //??????????????
	CALL SUBOPT_0x64
	LD   R26,Z
	CPI  R26,0
	BRLT _0x2C0
	CALL SUBOPT_0x65
	LD   R30,Z
	ST   X,R30
	RJMP _0x2C1
_0x2C0:
	CALL SUBOPT_0x66
	LDI  R26,LOW(0)
	STD  Z+0,R26
; 0000 0082         dacU[byte] = adapt(analogOut[byte]);//   
_0x2C1:
	MOV  R30,R17
	LDI  R31,0
	SUBI R30,LOW(-_dacU)
	SBCI R31,HIGH(-_dacU)
	PUSH R31
	PUSH R30
	CALL SUBOPT_0x66
	LD   R26,Z
	RCALL _adapt
	POP  R26
	POP  R27
	ST   X,R30
; 0000 0083      }
	SUBI R17,-1
	RJMP _0x2BE
_0x2BF:
; 0000 0084  //    setDAC();                           //     
; 0000 0085      // -------- 1 ---------
; 0000 0086 //     if(Dht){
; 0000 0087 //       RelayControl(pvT,0);
; 0000 0088 //       RelayControl(pvRH,1);
; 0000 0089 //     }
; 0000 008A //     else {
; 0000 008B //       RelayControl(t.point[0],0);
; 0000 008C //       RelayControl(t.point[1],1);
; 0000 008D //     }
; 0000 008E      // -------- 2 ---------
; 0000 008F //     relayHadl();
; 0000 0090 //     analogHadl();
; 0000 0091 //     if (displ_num<3) display();
; 0000 0092 //     //-- CO2 ----------------------------------
; 0000 0093 //     if(CO2module){
; 0000 0094 //       byte = readCO2();     //          pvCO2
; 0000 0095 //       if(byte) pvCO2 = LowPassF2(pvCO2,3);//    2   Tf[3]
; 0000 0096 //       controlCompressorCO2(4);  //  2.
; 0000 0097 //     }
; 0000 0098    }
; 0000 0099    //---------------------------------------------------------
; 0000 009A //   if(newButton==100) display();
; 0000 009B //   else {touchpad(newButton); newButton=100; display();}
; 0000 009C     display();
_0x2B2:
	RCALL _display
; 0000 009D //   sprintf(buff,"X%4u; Y%4u; D%u newB=%3u",point_X,point_Y, displ_num, newButton);
; 0000 009E //   ILI9341_WriteString(5,TFTBUTTON-10,buff,Font_11x18,WHITE,BLACK,1);
; 0000 009F  }
	RJMP _0x2AF
; 0000 00A0 }
_0x2C2:
	RJMP _0x2C2
; .FEND

	.DSEG
_0x2AE:
	.BYTE 0x24
	#ifndef __SLEEP_DEFINED__
	#define __SLEEP_DEFINED__
	.EQU __se_bit=0x80
	.EQU __sm_mask=0x70
	.EQU __sm_powerdown=0x20
	.EQU __sm_powersave=0x30
	.EQU __sm_standby=0x60
	.EQU __sm_ext_standby=0x70
	.EQU __sm_adc_noise_red=0x10
	.SET power_ctrl_reg=mcucr
	#endif

	.CSEG
_put_buff_G100:
; .FSTART _put_buff_G100
	ST   -Y,R27
	ST   -Y,R26
	ST   -Y,R17
	ST   -Y,R16
	LDD  R26,Y+2
	LDD  R27,Y+2+1
	ADIW R26,2
	CALL __GETW1P
	SBIW R30,0
	BREQ _0x2000010
	LDD  R26,Y+2
	LDD  R27,Y+2+1
	ADIW R26,4
	CALL __GETW1P
	MOVW R16,R30
	SBIW R30,0
	BREQ _0x2000012
	__CPWRN 16,17,2
	BRLO _0x2000013
	MOVW R30,R16
	SBIW R30,1
	MOVW R16,R30
	__PUTW1SNS 2,4
_0x2000012:
	LDD  R26,Y+2
	LDD  R27,Y+2+1
	ADIW R26,2
	CALL SUBOPT_0x67
	SBIW R30,1
	LDD  R26,Y+4
	STD  Z+0,R26
_0x2000013:
	LDD  R26,Y+2
	LDD  R27,Y+2+1
	CALL __GETW1P
	TST  R31
	BRMI _0x2000014
	CALL SUBOPT_0x67
_0x2000014:
	RJMP _0x2000015
_0x2000010:
	LDD  R26,Y+2
	LDD  R27,Y+2+1
	LDI  R30,LOW(65535)
	LDI  R31,HIGH(65535)
	ST   X+,R30
	ST   X,R31
_0x2000015:
	LDD  R17,Y+1
	LDD  R16,Y+0
	ADIW R28,5
	RET
; .FEND
__print_G100:
; .FSTART __print_G100
	ST   -Y,R27
	ST   -Y,R26
	SBIW R28,6
	CALL __SAVELOCR6
	LDI  R17,0
	LDD  R26,Y+12
	LDD  R27,Y+12+1
	LDI  R30,LOW(0)
	LDI  R31,HIGH(0)
	ST   X+,R30
	ST   X,R31
_0x2000016:
	LDD  R30,Y+18
	LDD  R31,Y+18+1
	ADIW R30,1
	STD  Y+18,R30
	STD  Y+18+1,R31
	SBIW R30,1
	LPM  R30,Z
	MOV  R18,R30
	CPI  R30,0
	BRNE PC+2
	RJMP _0x2000018
	MOV  R30,R17
	CPI  R30,0
	BRNE _0x200001C
	CPI  R18,37
	BRNE _0x200001D
	LDI  R17,LOW(1)
	RJMP _0x200001E
_0x200001D:
	CALL SUBOPT_0x6C
_0x200001E:
	RJMP _0x200001B
_0x200001C:
	CPI  R30,LOW(0x1)
	BRNE _0x200001F
	CPI  R18,37
	BRNE _0x2000020
	CALL SUBOPT_0x6C
	RJMP _0x20000CC
_0x2000020:
	LDI  R17,LOW(2)
	LDI  R20,LOW(0)
	LDI  R16,LOW(0)
	CPI  R18,45
	BRNE _0x2000021
	LDI  R16,LOW(1)
	RJMP _0x200001B
_0x2000021:
	CPI  R18,43
	BRNE _0x2000022
	LDI  R20,LOW(43)
	RJMP _0x200001B
_0x2000022:
	CPI  R18,32
	BRNE _0x2000023
	LDI  R20,LOW(32)
	RJMP _0x200001B
_0x2000023:
	RJMP _0x2000024
_0x200001F:
	CPI  R30,LOW(0x2)
	BRNE _0x2000025
_0x2000024:
	LDI  R21,LOW(0)
	LDI  R17,LOW(3)
	CPI  R18,48
	BRNE _0x2000026
	ORI  R16,LOW(128)
	RJMP _0x200001B
_0x2000026:
	RJMP _0x2000027
_0x2000025:
	CPI  R30,LOW(0x3)
	BREQ PC+2
	RJMP _0x200001B
_0x2000027:
	CPI  R18,48
	BRLO _0x200002A
	CPI  R18,58
	BRLO _0x200002B
_0x200002A:
	RJMP _0x2000029
_0x200002B:
	LDI  R26,LOW(10)
	MUL  R21,R26
	MOV  R21,R0
	MOV  R30,R18
	SUBI R30,LOW(48)
	ADD  R21,R30
	RJMP _0x200001B
_0x2000029:
	MOV  R30,R18
	CPI  R30,LOW(0x63)
	BRNE _0x200002F
	CALL SUBOPT_0x6D
	LDD  R30,Y+16
	LDD  R31,Y+16+1
	LDD  R26,Z+4
	ST   -Y,R26
	CALL SUBOPT_0x6E
	RJMP _0x2000030
_0x200002F:
	CPI  R30,LOW(0x73)
	BRNE _0x2000032
	CALL SUBOPT_0x6D
	LDD  R26,Y+16
	LDD  R27,Y+16+1
	ADIW R26,4
	CALL SUBOPT_0x5C
	CALL _strlen
	MOV  R17,R30
	RJMP _0x2000033
_0x2000032:
	CPI  R30,LOW(0x70)
	BRNE _0x2000035
	CALL SUBOPT_0x6D
	LDD  R26,Y+16
	LDD  R27,Y+16+1
	ADIW R26,4
	CALL SUBOPT_0x5C
	CALL _strlenf
	MOV  R17,R30
	ORI  R16,LOW(8)
_0x2000033:
	ORI  R16,LOW(2)
	ANDI R16,LOW(127)
	LDI  R19,LOW(0)
	RJMP _0x2000036
_0x2000035:
	CPI  R30,LOW(0x64)
	BREQ _0x2000039
	CPI  R30,LOW(0x69)
	BRNE _0x200003A
_0x2000039:
	ORI  R16,LOW(4)
	RJMP _0x200003B
_0x200003A:
	CPI  R30,LOW(0x75)
	BRNE _0x200003C
_0x200003B:
	LDI  R30,LOW(_tbl10_G100*2)
	LDI  R31,HIGH(_tbl10_G100*2)
	STD  Y+6,R30
	STD  Y+6+1,R31
	LDI  R17,LOW(5)
	RJMP _0x200003D
_0x200003C:
	CPI  R30,LOW(0x58)
	BRNE _0x200003F
	ORI  R16,LOW(8)
	RJMP _0x2000040
_0x200003F:
	CPI  R30,LOW(0x78)
	BREQ PC+2
	RJMP _0x2000071
_0x2000040:
	LDI  R30,LOW(_tbl16_G100*2)
	LDI  R31,HIGH(_tbl16_G100*2)
	STD  Y+6,R30
	STD  Y+6+1,R31
	LDI  R17,LOW(4)
_0x200003D:
	SBRS R16,2
	RJMP _0x2000042
	CALL SUBOPT_0x6D
	CALL SUBOPT_0x6F
	LDD  R26,Y+11
	TST  R26
	BRPL _0x2000043
	LDD  R30,Y+10
	LDD  R31,Y+10+1
	CALL __ANEGW1
	STD  Y+10,R30
	STD  Y+10+1,R31
	LDI  R20,LOW(45)
_0x2000043:
	CPI  R20,0
	BREQ _0x2000044
	SUBI R17,-LOW(1)
	RJMP _0x2000045
_0x2000044:
	ANDI R16,LOW(251)
_0x2000045:
	RJMP _0x2000046
_0x2000042:
	CALL SUBOPT_0x6D
	CALL SUBOPT_0x6F
_0x2000046:
_0x2000036:
	SBRC R16,0
	RJMP _0x2000047
_0x2000048:
	CP   R17,R21
	BRSH _0x200004A
	SBRS R16,7
	RJMP _0x200004B
	SBRS R16,2
	RJMP _0x200004C
	ANDI R16,LOW(251)
	MOV  R18,R20
	SUBI R17,LOW(1)
	RJMP _0x200004D
_0x200004C:
	LDI  R18,LOW(48)
_0x200004D:
	RJMP _0x200004E
_0x200004B:
	LDI  R18,LOW(32)
_0x200004E:
	CALL SUBOPT_0x6C
	SUBI R21,LOW(1)
	RJMP _0x2000048
_0x200004A:
_0x2000047:
	MOV  R19,R17
	SBRS R16,1
	RJMP _0x200004F
_0x2000050:
	CPI  R19,0
	BREQ _0x2000052
	SBRS R16,3
	RJMP _0x2000053
	LDD  R30,Y+6
	LDD  R31,Y+6+1
	LPM  R18,Z+
	STD  Y+6,R30
	STD  Y+6+1,R31
	RJMP _0x2000054
_0x2000053:
	LDD  R26,Y+6
	LDD  R27,Y+6+1
	LD   R18,X+
	STD  Y+6,R26
	STD  Y+6+1,R27
_0x2000054:
	CALL SUBOPT_0x6C
	CPI  R21,0
	BREQ _0x2000055
	SUBI R21,LOW(1)
_0x2000055:
	SUBI R19,LOW(1)
	RJMP _0x2000050
_0x2000052:
	RJMP _0x2000056
_0x200004F:
_0x2000058:
	LDI  R18,LOW(48)
	LDD  R30,Y+6
	LDD  R31,Y+6+1
	CALL __GETW1PF
	STD  Y+8,R30
	STD  Y+8+1,R31
	LDD  R30,Y+6
	LDD  R31,Y+6+1
	ADIW R30,2
	STD  Y+6,R30
	STD  Y+6+1,R31
_0x200005A:
	LDD  R30,Y+8
	LDD  R31,Y+8+1
	LDD  R26,Y+10
	LDD  R27,Y+10+1
	CP   R26,R30
	CPC  R27,R31
	BRLO _0x200005C
	SUBI R18,-LOW(1)
	LDD  R26,Y+8
	LDD  R27,Y+8+1
	LDD  R30,Y+10
	LDD  R31,Y+10+1
	SUB  R30,R26
	SBC  R31,R27
	STD  Y+10,R30
	STD  Y+10+1,R31
	RJMP _0x200005A
_0x200005C:
	CPI  R18,58
	BRLO _0x200005D
	SBRS R16,3
	RJMP _0x200005E
	SUBI R18,-LOW(7)
	RJMP _0x200005F
_0x200005E:
	SUBI R18,-LOW(39)
_0x200005F:
_0x200005D:
	SBRC R16,4
	RJMP _0x2000061
	CPI  R18,49
	BRSH _0x2000063
	LDD  R26,Y+8
	LDD  R27,Y+8+1
	SBIW R26,1
	BRNE _0x2000062
_0x2000063:
	RJMP _0x20000CD
_0x2000062:
	CP   R21,R19
	BRLO _0x2000067
	SBRS R16,0
	RJMP _0x2000068
_0x2000067:
	RJMP _0x2000066
_0x2000068:
	LDI  R18,LOW(32)
	SBRS R16,7
	RJMP _0x2000069
	LDI  R18,LOW(48)
_0x20000CD:
	ORI  R16,LOW(16)
	SBRS R16,2
	RJMP _0x200006A
	ANDI R16,LOW(251)
	ST   -Y,R20
	CALL SUBOPT_0x6E
	CPI  R21,0
	BREQ _0x200006B
	SUBI R21,LOW(1)
_0x200006B:
_0x200006A:
_0x2000069:
_0x2000061:
	CALL SUBOPT_0x6C
	CPI  R21,0
	BREQ _0x200006C
	SUBI R21,LOW(1)
_0x200006C:
_0x2000066:
	SUBI R19,LOW(1)
	LDD  R26,Y+8
	LDD  R27,Y+8+1
	SBIW R26,2
	BRLO _0x2000059
	RJMP _0x2000058
_0x2000059:
_0x2000056:
	SBRS R16,0
	RJMP _0x200006D
_0x200006E:
	CPI  R21,0
	BREQ _0x2000070
	SUBI R21,LOW(1)
	LDI  R30,LOW(32)
	ST   -Y,R30
	CALL SUBOPT_0x6E
	RJMP _0x200006E
_0x2000070:
_0x200006D:
_0x2000071:
_0x2000030:
_0x20000CC:
	LDI  R17,LOW(0)
_0x200001B:
	RJMP _0x2000016
_0x2000018:
	LDD  R26,Y+12
	LDD  R27,Y+12+1
	CALL __GETW1P
	CALL __LOADLOCR6
	ADIW R28,20
	RET
; .FEND
_sprintf:
; .FSTART _sprintf
	PUSH R15
	MOV  R15,R24
	SBIW R28,6
	CALL __SAVELOCR4
	CALL SUBOPT_0x70
	SBIW R30,0
	BRNE _0x2000072
	LDI  R30,LOW(65535)
	LDI  R31,HIGH(65535)
	RJMP _0x20C0001
_0x2000072:
	MOVW R26,R28
	ADIW R26,6
	CALL __ADDW2R15
	MOVW R16,R26
	CALL SUBOPT_0x70
	STD  Y+6,R30
	STD  Y+6+1,R31
	LDI  R30,LOW(0)
	STD  Y+8,R30
	STD  Y+8+1,R30
	MOVW R26,R28
	ADIW R26,10
	CALL __ADDW2R15
	CALL __GETW1P
	ST   -Y,R31
	ST   -Y,R30
	ST   -Y,R17
	ST   -Y,R16
	LDI  R30,LOW(_put_buff_G100)
	LDI  R31,HIGH(_put_buff_G100)
	ST   -Y,R31
	ST   -Y,R30
	MOVW R26,R28
	ADIW R26,10
	RCALL __print_G100
	MOVW R18,R30
	LDD  R26,Y+6
	LDD  R27,Y+6+1
	LDI  R30,LOW(0)
	ST   X,R30
	MOVW R30,R18
_0x20C0001:
	CALL __LOADLOCR4
	ADIW R28,10
	POP  R15
	RET
; .FEND
	#ifndef __SLEEP_DEFINED__
	#define __SLEEP_DEFINED__
	.EQU __se_bit=0x80
	.EQU __sm_mask=0x70
	.EQU __sm_powerdown=0x20
	.EQU __sm_powersave=0x30
	.EQU __sm_standby=0x60
	.EQU __sm_ext_standby=0x70
	.EQU __sm_adc_noise_red=0x10
	.SET power_ctrl_reg=mcucr
	#endif

	.DSEG

	.CSEG
_twi_int_handler:
; .FSTART _twi_int_handler
	ST   -Y,R0
	ST   -Y,R1
	ST   -Y,R15
	ST   -Y,R22
	ST   -Y,R23
	ST   -Y,R24
	ST   -Y,R25
	ST   -Y,R26
	ST   -Y,R27
	ST   -Y,R30
	ST   -Y,R31
	IN   R30,SREG
	ST   -Y,R30
	CALL __SAVELOCR6
	LDS  R17,_twi_rx_index
	LDS  R16,_twi_tx_index
	LDS  R19,_bytes_to_tx_G101
	LDS  R18,_twi_result
	MOV  R30,R17
	LDS  R26,_twi_rx_buffer_G101
	LDS  R27,_twi_rx_buffer_G101+1
	LDI  R31,0
	ADD  R30,R26
	ADC  R31,R27
	MOVW R20,R30
	IN   R30,0x1
	ANDI R30,LOW(0xF8)
	CPI  R30,LOW(0x8)
	BRNE _0x2020017
	LDI  R18,LOW(0)
	RJMP _0x2020018
_0x2020017:
	CPI  R30,LOW(0x10)
	BRNE _0x2020019
_0x2020018:
	LDS  R30,_slave_address_G101
	RJMP _0x2020067
_0x2020019:
	CPI  R30,LOW(0x18)
	BREQ _0x202001D
	CPI  R30,LOW(0x28)
	BRNE _0x202001E
_0x202001D:
	CP   R16,R19
	BRSH _0x202001F
	MOV  R30,R16
	SUBI R16,-1
	LDS  R26,_twi_tx_buffer_G101
	LDS  R27,_twi_tx_buffer_G101+1
	LDI  R31,0
	ADD  R26,R30
	ADC  R27,R31
	LD   R30,X
_0x2020067:
	OUT  0x3,R30
	IN   R30,0x36
	ANDI R30,LOW(0xF)
	ORI  R30,0x80
	OUT  0x36,R30
	RJMP _0x2020020
_0x202001F:
	LDS  R30,_bytes_to_rx_G101
	CP   R17,R30
	BRSH _0x2020021
	LDS  R30,_slave_address_G101
	ORI  R30,1
	STS  _slave_address_G101,R30
	CLT
	BLD  R3,0
	IN   R30,0x36
	ANDI R30,LOW(0xF)
	ORI  R30,LOW(0xA0)
	OUT  0x36,R30
	RJMP _0x2020016
_0x2020021:
	RJMP _0x2020022
_0x2020020:
	RJMP _0x2020016
_0x202001E:
	CPI  R30,LOW(0x50)
	BRNE _0x2020023
	IN   R30,0x3
	MOVW R26,R20
	ST   X,R30
	SUBI R17,-LOW(1)
	RJMP _0x2020024
_0x2020023:
	CPI  R30,LOW(0x40)
	BRNE _0x2020025
_0x2020024:
	LDS  R30,_bytes_to_rx_G101
	SUBI R30,LOW(1)
	CP   R17,R30
	BRLO _0x2020026
	IN   R30,0x36
	ANDI R30,LOW(0xF)
	ORI  R30,0x80
	RJMP _0x2020068
_0x2020026:
	IN   R30,0x36
	ANDI R30,LOW(0xF)
	ORI  R30,LOW(0xC0)
_0x2020068:
	OUT  0x36,R30
	RJMP _0x2020016
_0x2020025:
	CPI  R30,LOW(0x58)
	BRNE _0x2020028
	IN   R30,0x3
	MOVW R26,R20
	ST   X,R30
	SUBI R17,-LOW(1)
	RJMP _0x2020029
_0x2020028:
	CPI  R30,LOW(0x20)
	BRNE _0x202002A
_0x2020029:
	RJMP _0x202002B
_0x202002A:
	CPI  R30,LOW(0x30)
	BRNE _0x202002C
_0x202002B:
	RJMP _0x202002D
_0x202002C:
	CPI  R30,LOW(0x48)
	BRNE _0x202002E
_0x202002D:
	CPI  R18,0
	BRNE _0x202002F
	SBRS R3,0
	RJMP _0x2020030
	CP   R16,R19
	BRLO _0x2020032
	RJMP _0x2020033
_0x2020030:
	LDS  R30,_bytes_to_rx_G101
	CP   R17,R30
	BRSH _0x2020034
_0x2020032:
	LDI  R18,LOW(4)
_0x2020034:
_0x2020033:
_0x202002F:
_0x2020022:
	RJMP _0x2020069
_0x202002E:
	CPI  R30,LOW(0x38)
	BRNE _0x2020037
	LDI  R18,LOW(2)
	IN   R30,0x36
	ANDI R30,LOW(0xF)
	ORI  R30,0x80
	RJMP _0x202006A
_0x2020037:
	CPI  R30,LOW(0x68)
	BREQ _0x202003A
	CPI  R30,LOW(0x78)
	BRNE _0x202003B
_0x202003A:
	LDI  R18,LOW(2)
	RJMP _0x202003C
_0x202003B:
	CPI  R30,LOW(0x60)
	BREQ _0x202003F
	CPI  R30,LOW(0x70)
	BRNE _0x2020040
_0x202003F:
	LDI  R18,LOW(0)
_0x202003C:
	LDI  R17,LOW(0)
	CLT
	BLD  R3,0
	LDS  R30,_twi_rx_buffer_size_G101
	CPI  R30,0
	BRNE _0x2020041
	LDI  R18,LOW(1)
	IN   R30,0x36
	ANDI R30,LOW(0xF)
	ORI  R30,0x80
	RJMP _0x202006B
_0x2020041:
	IN   R30,0x36
	ANDI R30,LOW(0xF)
	ORI  R30,LOW(0xC0)
_0x202006B:
	OUT  0x36,R30
	RJMP _0x2020016
_0x2020040:
	CPI  R30,LOW(0x80)
	BREQ _0x2020044
	CPI  R30,LOW(0x90)
	BRNE _0x2020045
_0x2020044:
	SBRS R3,0
	RJMP _0x2020046
	LDI  R18,LOW(1)
	RJMP _0x2020047
_0x2020046:
	IN   R30,0x3
	MOVW R26,R20
	ST   X,R30
	SUBI R17,-LOW(1)
	LDS  R30,_twi_rx_buffer_size_G101
	CP   R17,R30
	BRSH _0x2020048
	LDS  R30,_twi_slave_rx_handler_G101
	LDS  R31,_twi_slave_rx_handler_G101+1
	SBIW R30,0
	BRNE _0x2020049
	LDI  R18,LOW(6)
	RJMP _0x2020047
_0x2020049:
	LDI  R26,LOW(0)
	__CALL1MN _twi_slave_rx_handler_G101,0
	CPI  R30,0
	BREQ _0x202004A
	IN   R30,0x36
	ANDI R30,LOW(0xF)
	ORI  R30,LOW(0xC0)
	OUT  0x36,R30
	RJMP _0x2020016
_0x202004A:
	RJMP _0x202004B
_0x2020048:
	SET
	BLD  R3,0
_0x202004B:
	RJMP _0x202004C
_0x2020045:
	CPI  R30,LOW(0x88)
	BRNE _0x202004D
_0x202004C:
	RJMP _0x202004E
_0x202004D:
	CPI  R30,LOW(0x98)
	BRNE _0x202004F
_0x202004E:
	IN   R30,0x36
	ANDI R30,LOW(0xF)
	ORI  R30,0x80
	OUT  0x36,R30
	RJMP _0x2020016
_0x202004F:
	CPI  R30,LOW(0xA0)
	BRNE _0x2020050
	IN   R30,0x36
	ANDI R30,LOW(0xF)
	ORI  R30,LOW(0xC0)
	OUT  0x36,R30
	SET
	BLD  R3,1
	LDS  R30,_twi_slave_rx_handler_G101
	LDS  R31,_twi_slave_rx_handler_G101+1
	SBIW R30,0
	BREQ _0x2020051
	LDI  R26,LOW(1)
	__CALL1MN _twi_slave_rx_handler_G101,0
	RJMP _0x2020052
_0x2020051:
	LDI  R18,LOW(6)
_0x2020052:
	RJMP _0x2020016
_0x2020050:
	CPI  R30,LOW(0xB0)
	BRNE _0x2020053
	LDI  R18,LOW(2)
	RJMP _0x2020054
_0x2020053:
	CPI  R30,LOW(0xA8)
	BRNE _0x2020055
_0x2020054:
	LDS  R30,_twi_slave_tx_handler_G101
	LDS  R31,_twi_slave_tx_handler_G101+1
	SBIW R30,0
	BREQ _0x2020056
	LDI  R26,LOW(0)
	__CALL1MN _twi_slave_tx_handler_G101,0
	MOV  R19,R30
	CPI  R30,0
	BREQ _0x2020058
	LDI  R18,LOW(0)
	RJMP _0x2020059
_0x2020056:
_0x2020058:
	LDI  R18,LOW(6)
	RJMP _0x2020047
_0x2020059:
	LDI  R16,LOW(0)
	CLT
	BLD  R3,0
	RJMP _0x202005A
_0x2020055:
	CPI  R30,LOW(0xB8)
	BRNE _0x202005B
_0x202005A:
	SBRS R3,0
	RJMP _0x202005C
	LDI  R18,LOW(1)
	RJMP _0x2020047
_0x202005C:
	MOV  R30,R16
	SUBI R16,-1
	LDS  R26,_twi_tx_buffer_G101
	LDS  R27,_twi_tx_buffer_G101+1
	LDI  R31,0
	ADD  R26,R30
	ADC  R27,R31
	LD   R30,X
	OUT  0x3,R30
	CP   R16,R19
	BRSH _0x202005D
	IN   R30,0x36
	ANDI R30,LOW(0xF)
	ORI  R30,LOW(0xC0)
	RJMP _0x202006C
_0x202005D:
	SET
	BLD  R3,0
	IN   R30,0x36
	ANDI R30,LOW(0xF)
	ORI  R30,0x80
_0x202006C:
	OUT  0x36,R30
	RJMP _0x2020016
_0x202005B:
	CPI  R30,LOW(0xC0)
	BREQ _0x2020060
	CPI  R30,LOW(0xC8)
	BRNE _0x2020061
_0x2020060:
	IN   R30,0x36
	ANDI R30,LOW(0xF)
	ORI  R30,LOW(0xC0)
	OUT  0x36,R30
	LDS  R30,_twi_slave_tx_handler_G101
	LDS  R31,_twi_slave_tx_handler_G101+1
	SBIW R30,0
	BREQ _0x2020062
	LDI  R26,LOW(1)
	__CALL1MN _twi_slave_tx_handler_G101,0
_0x2020062:
	RJMP _0x2020035
_0x2020061:
	CPI  R30,0
	BRNE _0x2020016
	LDI  R18,LOW(3)
_0x2020047:
_0x2020069:
	IN   R30,0x36
	ANDI R30,LOW(0xF)
	ORI  R30,LOW(0xD0)
_0x202006A:
	OUT  0x36,R30
_0x2020035:
	SET
	BLD  R3,1
_0x2020016:
	STS  _twi_rx_index,R17
	STS  _twi_tx_index,R16
	STS  _twi_result,R18
	STS  _bytes_to_tx_G101,R19
	CALL __LOADLOCR6
	ADIW R28,6
	LD   R30,Y+
	OUT  SREG,R30
	LD   R31,Y+
	LD   R30,Y+
	LD   R27,Y+
	LD   R26,Y+
	LD   R25,Y+
	LD   R24,Y+
	LD   R23,Y+
	LD   R22,Y+
	LD   R15,Y+
	LD   R1,Y+
	LD   R0,Y+
	RETI
; .FEND

	.CSEG

	.CSEG
_abs:
; .FSTART _abs
	ST   -Y,R27
	ST   -Y,R26
    ld   r30,y+
    ld   r31,y+
    sbiw r30,0
    brpl __abs0
    com  r30
    com  r31
    adiw r30,1
__abs0:
    ret
; .FEND

	.DSEG

	.CSEG

	.CSEG
_strcat:
; .FSTART _strcat
	ST   -Y,R27
	ST   -Y,R26
    ld   r30,y+
    ld   r31,y+
    ld   r26,y+
    ld   r27,y+
    movw r24,r26
strcat0:
    ld   r22,x+
    tst  r22
    brne strcat0
    sbiw r26,1
strcat1:
    ld   r22,z+
    st   x+,r22
    tst  r22
    brne strcat1
    movw r30,r24
    ret
; .FEND
_strlen:
; .FSTART _strlen
	ST   -Y,R27
	ST   -Y,R26
    ld   r26,y+
    ld   r27,y+
    clr  r30
    clr  r31
strlen0:
    ld   r22,x+
    tst  r22
    breq strlen1
    adiw r30,1
    rjmp strlen0
strlen1:
    ret
; .FEND
_strlenf:
; .FSTART _strlenf
	ST   -Y,R27
	ST   -Y,R26
    clr  r26
    clr  r27
    ld   r30,y+
    ld   r31,y+
strlenf0:
	lpm  r0,z+
    tst  r0
    breq strlenf1
    adiw r26,1
    rjmp strlenf0
strlenf1:
    movw r30,r26
    ret
; .FEND

	.CSEG

	.DSEG
_twi_tx_index:
	.BYTE 0x1
_twi_rx_index:
	.BYTE 0x1
_twi_result:
	.BYTE 0x1
_Font_11x18:
	.BYTE 0x4
_numMenu:
	.BYTE 0x1
_numSet:
	.BYTE 0x1
_relOut:
	.BYTE 0x4
_analogOut:
	.BYTE 0x4
_dacU:
	.BYTE 0x4
_buff:
	.BYTE 0x28
_familycode:
	.BYTE 0x1B
_clock_buffer:
	.BYTE 0x7
_alarm:
	.BYTE 0x4
_max_X:
	.BYTE 0x2
_max_Y:
	.BYTE 0x2
_fillScreen:
	.BYTE 0x2
_pvT:
	.BYTE 0x2
_offsetT:
	.BYTE 0x2
_pvRH:
	.BYTE 0x2
_offsetRH:
	.BYTE 0x2
_pvCO2:
	.BYTE 0x2
_pvPH:
	.BYTE 0x2
_newval:
	.BYTE 0xA
_ptr_char:
	.BYTE 0x2
_t:
	.BYTE 0x6
_ds:
	.BYTE 0x8
_in:
	.BYTE 0x4
_out:
	.BYTE 0x4
_analog:
	.BYTE 0x4
_relay:
	.BYTE 0x4

	.ESEG
_set:
	.DB  0xE,0x1,0xA,0x0
	.DB  0x5,0x0,0x0,0x0
	.DB  0x37,0x0,0x5,0x0
	.DB  0x5,0x0,0x0,0x0
	.DB  0xFA,0x0,0x8,0x0
	.DB  0x4,0x0,0x0,0x0
	.DB  0x5,0x0,0xA,0x0
	.DB  0x1,0x0,0x0,0x0
	.DB  0x0,0x0,0x0,0x0
	.DB  0x0,0x0,0x0,0x0

	.DSEG
_err_S0000013000:
	.BYTE 0x1
_buttonCount:
	.BYTE 0x1
_plusCount:
	.BYTE 0x1
_point_X:
	.BYTE 0x2
_point_Y:
	.BYTE 0x2
_point_Z:
	.BYTE 0x2
_bottom_Y:
	.BYTE 0x2
_left_X:
	.BYTE 0x2
_buttons:
	.BYTE 0x18
_plus:
	.BYTE 0x30
_txt:
	.BYTE 0xA
_count1_S000002B000:
	.BYTE 0x2
_slave_address_G101:
	.BYTE 0x1
_twi_tx_buffer_G101:
	.BYTE 0x2
_bytes_to_tx_G101:
	.BYTE 0x1
_twi_rx_buffer_G101:
	.BYTE 0x2
_bytes_to_rx_G101:
	.BYTE 0x1
_twi_rx_buffer_size_G101:
	.BYTE 0x1
_twi_slave_rx_handler_G101:
	.BYTE 0x2
_twi_slave_tx_handler_G101:
	.BYTE 0x2
__seed_G103:
	.BYTE 0x4

	.CSEG
;OPTIMIZER ADDED SUBROUTINE, CALLED 2 TIMES, CODE SIZE REDUCTION:10 WORDS
SUBOPT_0x0:
	ST   -Y,R26
	IN   R30,0x1B
	ANDI R30,LOW(0xFC)
	MOV  R26,R30
	LD   R30,Y
	ANDI R30,LOW(0x3)
	OR   R30,R26
	OUT  0x1B,R30
	IN   R30,0x15
	ANDI R30,LOW(0x3)
	MOV  R26,R30
	LD   R30,Y
	ANDI R30,LOW(0xFC)
	OR   R30,R26
	OUT  0x15,R30
	RET

;OPTIMIZER ADDED SUBROUTINE, CALLED 3 TIMES, CODE SIZE REDUCTION:7 WORDS
SUBOPT_0x1:
	LDD  R26,Y+3
	CALL _ILI9341_WriteByte
	LDD  R30,Y+2
	MOV  R26,R30
	JMP  _ILI9341_WriteByte

;OPTIMIZER ADDED SUBROUTINE, CALLED 2 TIMES, CODE SIZE REDUCTION:2 WORDS
SUBOPT_0x2:
	LDD  R26,Y+1
	CALL _ILI9341_WriteByte
	LD   R30,Y
	MOV  R26,R30
	JMP  _ILI9341_WriteByte

;OPTIMIZER ADDED SUBROUTINE, CALLED 5 TIMES, CODE SIZE REDUCTION:5 WORDS
SUBOPT_0x3:
	LDD  R30,Y+6
	LDD  R31,Y+6+1
	ST   -Y,R31
	ST   -Y,R30
	RET

;OPTIMIZER ADDED SUBROUTINE, CALLED 4 TIMES, CODE SIZE REDUCTION:6 WORDS
SUBOPT_0x4:
	CALL _ILI9341_SetRow
	LDI  R26,LOW(44)
	JMP  _ILI9341_WriteCommand

;OPTIMIZER ADDED SUBROUTINE, CALLED 3 TIMES, CODE SIZE REDUCTION:1 WORDS
SUBOPT_0x5:
	LDD  R30,Y+4
	LDD  R31,Y+4+1
	LDD  R26,Y+8
	LDD  R27,Y+8+1
	RET

;OPTIMIZER ADDED SUBROUTINE, CALLED 12 TIMES, CODE SIZE REDUCTION:19 WORDS
SUBOPT_0x6:
	LDD  R30,Y+8
	LDD  R31,Y+8+1
	ST   -Y,R31
	ST   -Y,R30
	RET

;OPTIMIZER ADDED SUBROUTINE, CALLED 2 TIMES, CODE SIZE REDUCTION:2 WORDS
SUBOPT_0x7:
	LDD  R30,Y+8
	LDD  R31,Y+8+1
	LDD  R26,Y+12
	LDD  R27,Y+12+1
	ADD  R26,R30
	ADC  R27,R31
	SBIW R26,1
	RET

;OPTIMIZER ADDED SUBROUTINE, CALLED 2 TIMES, CODE SIZE REDUCTION:1 WORDS
SUBOPT_0x8:
	ST   -Y,R27
	ST   -Y,R26
	ST   -Y,R17
	ST   -Y,R16
	RJMP SUBOPT_0x6

;OPTIMIZER ADDED SUBROUTINE, CALLED 2 TIMES, CODE SIZE REDUCTION:1 WORDS
SUBOPT_0x9:
	LDD  R26,Y+6
	LDD  R27,Y+6+1
	CALL _ILI9341_DrawHorizontalLine
	RJMP SUBOPT_0x6

;OPTIMIZER ADDED SUBROUTINE, CALLED 2 TIMES, CODE SIZE REDUCTION:1 WORDS
SUBOPT_0xA:
	ADD  R30,R26
	ADC  R31,R27
	ST   -Y,R31
	ST   -Y,R30
	RJMP SUBOPT_0x6

;OPTIMIZER ADDED SUBROUTINE, CALLED 4 TIMES, CODE SIZE REDUCTION:3 WORDS
SUBOPT_0xB:
	LSL  R30
	ROL  R31
	ADD  R30,R26
	ADC  R31,R27
	RET

;OPTIMIZER ADDED SUBROUTINE, CALLED 2 TIMES, CODE SIZE REDUCTION:1 WORDS
SUBOPT_0xC:
	CLR  R22
	CLR  R23
	__PUTD1S 4
	RET

;OPTIMIZER ADDED SUBROUTINE, CALLED 5 TIMES, CODE SIZE REDUCTION:5 WORDS
SUBOPT_0xD:
	CALL __GETD2S0
	RET

;OPTIMIZER ADDED SUBROUTINE, CALLED 2 TIMES, CODE SIZE REDUCTION:27 WORDS
SUBOPT_0xE:
	LDD  R30,Y+12
	LDI  R31,0
	LD   R26,Y
	LDD  R27,Y+1
	CALL __MULW12U
	LDD  R26,Y+24
	LDD  R27,Y+24+1
	ADD  R30,R26
	ADC  R31,R27
	ST   -Y,R31
	ST   -Y,R30
	LDD  R30,Y+14
	LDI  R31,0
	LDD  R26,Y+10
	LDD  R27,Y+10+1
	CALL __MULW12U
	LDD  R26,Y+24
	LDD  R27,Y+24+1
	ADD  R30,R26
	ADC  R31,R27
	ST   -Y,R31
	ST   -Y,R30
	LDD  R30,Y+16
	LDI  R31,0
	ST   -Y,R31
	ST   -Y,R30
	LDD  R30,Y+18
	LDI  R31,0
	ST   -Y,R31
	ST   -Y,R30
	RET

;OPTIMIZER ADDED SUBROUTINE, CALLED 2 TIMES, CODE SIZE REDUCTION:7 WORDS
SUBOPT_0xF:
	CALL __GETD1S0
	__SUBD1N -1
	CALL __PUTD1S0
	RET

;OPTIMIZER ADDED SUBROUTINE, CALLED 8 TIMES, CODE SIZE REDUCTION:11 WORDS
SUBOPT_0x10:
	LDD  R30,Y+12
	LDD  R31,Y+12+1
	ST   -Y,R31
	ST   -Y,R30
	RET

;OPTIMIZER ADDED SUBROUTINE, CALLED 4 TIMES, CODE SIZE REDUCTION:3 WORDS
SUBOPT_0x11:
	LDD  R30,Y+14
	LDD  R31,Y+14+1
	LDD  R26,Y+16
	LDD  R27,Y+16+1
	RET

;OPTIMIZER ADDED SUBROUTINE, CALLED 4 TIMES, CODE SIZE REDUCTION:3 WORDS
SUBOPT_0x12:
	LDD  R30,Y+10
	LDD  R31,Y+10+1
	LDD  R26,Y+12
	LDD  R27,Y+12+1
	RET

;OPTIMIZER ADDED SUBROUTINE, CALLED 2 TIMES, CODE SIZE REDUCTION:7 WORDS
SUBOPT_0x13:
	ST   -Y,R31
	ST   -Y,R30
	LDI  R30,LOW(0)
	LDI  R31,HIGH(0)
	ST   -Y,R31
	ST   -Y,R30
	LDS  R26,_max_X
	LDS  R27,_max_X+1
	JMP  _constrain

;OPTIMIZER ADDED SUBROUTINE, CALLED 2 TIMES, CODE SIZE REDUCTION:5 WORDS
SUBOPT_0x14:
	LDI  R30,LOW(0)
	LDI  R31,HIGH(0)
	ST   -Y,R31
	ST   -Y,R30
	LDS  R26,_max_Y
	LDS  R27,_max_Y+1
	JMP  _constrain

;OPTIMIZER ADDED SUBROUTINE, CALLED 5 TIMES, CODE SIZE REDUCTION:9 WORDS
SUBOPT_0x15:
	CALL _ILI9341_WriteCommand
	LDI  R26,LOW(0)
	JMP  _ILI9341_WriteByte

;OPTIMIZER ADDED SUBROUTINE, CALLED 39 TIMES, CODE SIZE REDUCTION:73 WORDS
SUBOPT_0x16:
	LDI  R30,LOW(0)
	LDI  R31,HIGH(0)
	ST   -Y,R31
	ST   -Y,R30
	RET

;OPTIMIZER ADDED SUBROUTINE, CALLED 3 TIMES, CODE SIZE REDUCTION:1 WORDS
SUBOPT_0x17:
	LDS  R26,_max_X
	LDS  R27,_max_X+1
	RET

;OPTIMIZER ADDED SUBROUTINE, CALLED 3 TIMES, CODE SIZE REDUCTION:1 WORDS
SUBOPT_0x18:
	LDS  R26,_max_Y
	LDS  R27,_max_Y+1
	RET

;OPTIMIZER ADDED SUBROUTINE, CALLED 8 TIMES, CODE SIZE REDUCTION:11 WORDS
SUBOPT_0x19:
	OUT  0x36,R30
	CALL _wait_int
	CPI  R30,0
	RET

;OPTIMIZER ADDED SUBROUTINE, CALLED 3 TIMES, CODE SIZE REDUCTION:1 WORDS
SUBOPT_0x1A:
	OUT  0x3,R30
	LDI  R30,LOW(132)
	RJMP SUBOPT_0x19

;OPTIMIZER ADDED SUBROUTINE, CALLED 3 TIMES, CODE SIZE REDUCTION:5 WORDS
SUBOPT_0x1B:
	MOV  R30,R17
	LDI  R31,0
	MOVW R26,R28
	ADIW R26,6
	ADD  R26,R30
	ADC  R27,R31
	RET

;OPTIMIZER ADDED SUBROUTINE, CALLED 2 TIMES, CODE SIZE REDUCTION:1 WORDS
SUBOPT_0x1C:
	LDI  R27,0
	LDI  R30,LOW(256)
	LDI  R31,HIGH(256)
	CALL __MULW12
	MOVW R26,R30
	RET

;OPTIMIZER ADDED SUBROUTINE, CALLED 3 TIMES, CODE SIZE REDUCTION:1 WORDS
SUBOPT_0x1D:
	STS  _pvRH,R30
	STS  _pvRH+1,R31
	RET

;OPTIMIZER ADDED SUBROUTINE, CALLED 4 TIMES, CODE SIZE REDUCTION:3 WORDS
SUBOPT_0x1E:
	LDS  R26,_pvRH
	LDS  R27,_pvRH+1
	RET

;OPTIMIZER ADDED SUBROUTINE, CALLED 2 TIMES, CODE SIZE REDUCTION:3 WORDS
SUBOPT_0x1F:
	MOVW R22,R30
	MOV  R26,R17
	CLR  R27
	MOV  R30,R18
	LDI  R31,0
	ADIW R30,5
	CALL __MULW12
	RET

;OPTIMIZER ADDED SUBROUTINE, CALLED 2 TIMES, CODE SIZE REDUCTION:1 WORDS
SUBOPT_0x20:
	MOVW R26,R22
	ST   X+,R30
	ST   X,R31
	LDI  R26,LOW(6)
	MUL  R19,R26
	MOVW R30,R0
	RET

;OPTIMIZER ADDED SUBROUTINE, CALLED 3 TIMES, CODE SIZE REDUCTION:1 WORDS
SUBOPT_0x21:
	SBIW R28,2
	CALL __SAVELOCR6
	LDD  R30,Y+10
	RET

;OPTIMIZER ADDED SUBROUTINE, CALLED 6 TIMES, CODE SIZE REDUCTION:7 WORDS
SUBOPT_0x22:
	LDS  R30,_max_X
	LDS  R31,_max_X+1
	RET

;OPTIMIZER ADDED SUBROUTINE, CALLED 2 TIMES, CODE SIZE REDUCTION:1 WORDS
SUBOPT_0x23:
	LD   R20,Z
	CLR  R21
	LDD  R30,Y+10
	LDI  R26,LOW(6)
	MUL  R30,R26
	MOVW R30,R0
	RET

;OPTIMIZER ADDED SUBROUTINE, CALLED 2 TIMES, CODE SIZE REDUCTION:3 WORDS
SUBOPT_0x24:
	LD   R30,Z
	LDI  R31,0
	STD  Y+6,R30
	STD  Y+6+1,R31
	LDD  R30,Y+10
	LDI  R26,LOW(6)
	MUL  R30,R26
	MOVW R30,R0
	RET

;OPTIMIZER ADDED SUBROUTINE, CALLED 2 TIMES, CODE SIZE REDUCTION:1 WORDS
SUBOPT_0x25:
	LD   R16,Z
	LDD  R17,Z+1
	LDD  R30,Y+10
	LDI  R26,LOW(6)
	MUL  R30,R26
	MOVW R30,R0
	RET

;OPTIMIZER ADDED SUBROUTINE, CALLED 4 TIMES, CODE SIZE REDUCTION:15 WORDS
SUBOPT_0x26:
	ST   -Y,R17
	ST   -Y,R16
	ST   -Y,R19
	ST   -Y,R18
	ST   -Y,R21
	ST   -Y,R20
	RJMP SUBOPT_0x10

;OPTIMIZER ADDED SUBROUTINE, CALLED 2 TIMES, CODE SIZE REDUCTION:2 WORDS
SUBOPT_0x27:
	MOVW R26,R20
	LDI  R30,LOW(2)
	LDI  R31,HIGH(2)
	CALL __DIVW21
	ADD  R30,R16
	ADC  R31,R17
	RET

;OPTIMIZER ADDED SUBROUTINE, CALLED 2 TIMES, CODE SIZE REDUCTION:5 WORDS
SUBOPT_0x28:
	LDD  R26,Y+6
	LDD  R27,Y+6+1
	LDI  R30,LOW(2)
	LDI  R31,HIGH(2)
	CALL __DIVW21
	ADD  R30,R18
	ADC  R31,R19
	SBIW R30,8
	MOVW R18,R30
	RET

;OPTIMIZER ADDED SUBROUTINE, CALLED 49 TIMES, CODE SIZE REDUCTION:93 WORDS
SUBOPT_0x29:
	LDI  R30,LOW(_buff)
	LDI  R31,HIGH(_buff)
	ST   -Y,R31
	ST   -Y,R30
	RET

;OPTIMIZER ADDED SUBROUTINE, CALLED 4 TIMES, CODE SIZE REDUCTION:9 WORDS
SUBOPT_0x2A:
	ST   -Y,R31
	ST   -Y,R30
	LDI  R24,0
	CALL _sprintf
	ADIW R28,4
	RET

;OPTIMIZER ADDED SUBROUTINE, CALLED 3 TIMES, CODE SIZE REDUCTION:1 WORDS
SUBOPT_0x2B:
	ST   -Y,R17
	ST   -Y,R16
	ST   -Y,R19
	ST   -Y,R18
	RET

;OPTIMIZER ADDED SUBROUTINE, CALLED 36 TIMES, CODE SIZE REDUCTION:277 WORDS
SUBOPT_0x2C:
	LDS  R30,_Font_11x18
	LDS  R31,_Font_11x18+1
	LDS  R22,_Font_11x18+2
	LDS  R23,_Font_11x18+3
	CALL __PUTPARD1
	RET

;OPTIMIZER ADDED SUBROUTINE, CALLED 9 TIMES, CODE SIZE REDUCTION:21 WORDS
SUBOPT_0x2D:
	ST   -Y,R31
	ST   -Y,R30
	LDI  R26,LOW(1)
	JMP  _ILI9341_WriteString

;OPTIMIZER ADDED SUBROUTINE, CALLED 2 TIMES, CODE SIZE REDUCTION:2 WORDS
SUBOPT_0x2E:
	LDD  R26,Y+10
	CLR  R27
	LDI  R30,LOW(2)
	LDI  R31,HIGH(2)
	CALL __MODW21
	SBIW R30,0
	RET

;OPTIMIZER ADDED SUBROUTINE, CALLED 15 TIMES, CODE SIZE REDUCTION:25 WORDS
SUBOPT_0x2F:
	ST   -Y,R31
	ST   -Y,R30
	RJMP SUBOPT_0x2C

;OPTIMIZER ADDED SUBROUTINE, CALLED 3 TIMES, CODE SIZE REDUCTION:1 WORDS
SUBOPT_0x30:
	CALL __SWAPW12
	SUB  R30,R26
	SBC  R31,R27
	RET

;OPTIMIZER ADDED SUBROUTINE, CALLED 4 TIMES, CODE SIZE REDUCTION:3 WORDS
SUBOPT_0x31:
	CALL __PUTD1S0
	RET

;OPTIMIZER ADDED SUBROUTINE, CALLED 2 TIMES, CODE SIZE REDUCTION:2 WORDS
SUBOPT_0x32:
	ST   -Y,R26
	CALL __SAVELOCR4
	LDD  R30,Y+4
	LDI  R26,LOW(6)
	MUL  R30,R26
	MOVW R30,R0
	RET

;OPTIMIZER ADDED SUBROUTINE, CALLED 2 TIMES, CODE SIZE REDUCTION:1 WORDS
SUBOPT_0x33:
	LD   R16,Z
	LDD  R17,Z+1
	LDD  R30,Y+4
	LDI  R26,LOW(6)
	MUL  R30,R26
	MOVW R30,R0
	RET

;OPTIMIZER ADDED SUBROUTINE, CALLED 2 TIMES, CODE SIZE REDUCTION:1 WORDS
SUBOPT_0x34:
	LD   R30,Z
	LDI  R31,0
	ADD  R30,R16
	ADC  R31,R17
	SBIW R30,3
	MOVW R18,R30
	RET

;OPTIMIZER ADDED SUBROUTINE, CALLED 6 TIMES, CODE SIZE REDUCTION:7 WORDS
SUBOPT_0x35:
	LDS  R26,_point_X
	LDS  R27,_point_X+1
	RET

;OPTIMIZER ADDED SUBROUTINE, CALLED 4 TIMES, CODE SIZE REDUCTION:3 WORDS
SUBOPT_0x36:
	LDD  R30,Y+4
	LDI  R26,LOW(6)
	MUL  R30,R26
	MOVW R30,R0
	RET

;OPTIMIZER ADDED SUBROUTINE, CALLED 8 TIMES, CODE SIZE REDUCTION:11 WORDS
SUBOPT_0x37:
	LDS  R26,_point_Y
	LDS  R27,_point_Y+1
	RET

;OPTIMIZER ADDED SUBROUTINE, CALLED 2 TIMES, CODE SIZE REDUCTION:2 WORDS
SUBOPT_0x38:
	MOVW R26,R30
	CALL __GETW1P
	SBIW R30,3
	MOVW R16,R30
	RJMP SUBOPT_0x36

;OPTIMIZER ADDED SUBROUTINE, CALLED 2 TIMES, CODE SIZE REDUCTION:1 WORDS
SUBOPT_0x39:
	LD   R30,Z
	LDI  R31,0
	ADD  R30,R16
	ADC  R31,R17
	ADIW R30,3
	MOVW R18,R30
	RET

;OPTIMIZER ADDED SUBROUTINE, CALLED 2 TIMES, CODE SIZE REDUCTION:1 WORDS
SUBOPT_0x3A:
	MOV  R30,R17
	LDI  R31,0
	MOVW R26,R28
	ADIW R26,4
	RJMP SUBOPT_0xB

;OPTIMIZER ADDED SUBROUTINE, CALLED 2 TIMES, CODE SIZE REDUCTION:5 WORDS
SUBOPT_0x3B:
	LDD  R26,Y+6
	LDD  R27,Y+6+1
	LDD  R30,Y+4
	LDD  R31,Y+4+1
	SUB  R30,R26
	SBC  R31,R27
	MOVW R26,R30
	CALL _abs
	MOVW R18,R30
	RET

;OPTIMIZER ADDED SUBROUTINE, CALLED 2 TIMES, CODE SIZE REDUCTION:5 WORDS
SUBOPT_0x3C:
	LDD  R30,Y+6
	LDD  R31,Y+6+1
	LDD  R26,Y+4
	LDD  R27,Y+4+1
	ADD  R26,R30
	ADC  R27,R31
	LDI  R30,LOW(2)
	LDI  R31,HIGH(2)
	CALL __DIVW21
	RET

;OPTIMIZER ADDED SUBROUTINE, CALLED 2 TIMES, CODE SIZE REDUCTION:1 WORDS
SUBOPT_0x3D:
	LDS  R30,_point_X
	LDS  R31,_point_X+1
	ST   -Y,R31
	ST   -Y,R30
	RET

;OPTIMIZER ADDED SUBROUTINE, CALLED 4 TIMES, CODE SIZE REDUCTION:3 WORDS
SUBOPT_0x3E:
	ST   -Y,R31
	ST   -Y,R30
	LDI  R30,LOW(0)
	ST   -Y,R30
	RET

;OPTIMIZER ADDED SUBROUTINE, CALLED 2 TIMES, CODE SIZE REDUCTION:1 WORDS
SUBOPT_0x3F:
	LDS  R30,_point_Y
	LDS  R31,_point_Y+1
	ST   -Y,R31
	ST   -Y,R30
	RET

;OPTIMIZER ADDED SUBROUTINE, CALLED 12 TIMES, CODE SIZE REDUCTION:19 WORDS
SUBOPT_0x40:
	LDI  R30,LOW(5)
	LDI  R31,HIGH(5)
	ST   -Y,R31
	ST   -Y,R30
	RET

;OPTIMIZER ADDED SUBROUTINE, CALLED 3 TIMES, CODE SIZE REDUCTION:1 WORDS
SUBOPT_0x41:
	STS  _ptr_char,R30
	STS  _ptr_char+1,R31
	RET

;OPTIMIZER ADDED SUBROUTINE, CALLED 2 TIMES, CODE SIZE REDUCTION:3 WORDS
SUBOPT_0x42:
	LDI  R26,LOW(_ptr_char)
	LDI  R27,HIGH(_ptr_char)
	LD   R30,X+
	LD   R31,X+
	ADIW R30,1
	ST   -X,R31
	ST   -X,R30
	SBIW R30,1
	RET

;OPTIMIZER ADDED SUBROUTINE, CALLED 2 TIMES, CODE SIZE REDUCTION:5 WORDS
SUBOPT_0x43:
	MOVW R30,R16
	LDI  R26,LOW(10)
	LDI  R27,HIGH(10)
	CALL __MULW12
	MOVW R26,R30
	LDI  R30,LOW(16)
	LDI  R31,HIGH(16)
	CALL __DIVW21
	RET

;OPTIMIZER ADDED SUBROUTINE, CALLED 2 TIMES, CODE SIZE REDUCTION:3 WORDS
SUBOPT_0x44:
	CALL _w1_init
	LDI  R26,LOW(204)
	CALL _w1_write
	LDI  R26,LOW(68)
	JMP  _w1_write

;OPTIMIZER ADDED SUBROUTINE, CALLED 4 TIMES, CODE SIZE REDUCTION:9 WORDS
SUBOPT_0x45:
	RCALL SUBOPT_0x22
	ST   -Y,R31
	ST   -Y,R30
	RJMP SUBOPT_0x16

;OPTIMIZER ADDED SUBROUTINE, CALLED 3 TIMES, CODE SIZE REDUCTION:25 WORDS
SUBOPT_0x46:
	LDS  R30,_max_Y
	LDS  R31,_max_Y+1
	ST   -Y,R31
	ST   -Y,R30
	MOVW R26,R18
	CALL _ILI9341_FillScreen
	LDI  R30,LOW(4)
	ST   -Y,R30
	LDI  R30,LOW(1)
	ST   -Y,R30
	LDI  R26,LOW(25)
	JMP  _initializeButtons

;OPTIMIZER ADDED SUBROUTINE, CALLED 3 TIMES, CODE SIZE REDUCTION:5 WORDS
SUBOPT_0x47:
	ST   -Y,R19
	ST   -Y,R18
	ST   -Y,R19
	ST   -Y,R18
	ST   -Y,R21
	ST   -Y,R20
	RET

;OPTIMIZER ADDED SUBROUTINE, CALLED 3 TIMES, CODE SIZE REDUCTION:1 WORDS
SUBOPT_0x48:
	__POINTW2FN _0x0,200
	JMP  _drawButton

;OPTIMIZER ADDED SUBROUTINE, CALLED 8 TIMES, CODE SIZE REDUCTION:11 WORDS
SUBOPT_0x49:
	LDI  R30,LOW(65535)
	LDI  R31,HIGH(65535)
	ST   -Y,R31
	ST   -Y,R30
	RET

;OPTIMIZER ADDED SUBROUTINE, CALLED 2 TIMES, CODE SIZE REDUCTION:3 WORDS
SUBOPT_0x4A:
	LDI  R30,LOW(1)
	ST   -Y,R30
	__POINTW2FN _0x0,208
	CALL _drawButton
	RJMP SUBOPT_0x16

;OPTIMIZER ADDED SUBROUTINE, CALLED 3 TIMES, CODE SIZE REDUCTION:9 WORDS
SUBOPT_0x4B:
	LDI  R30,LOW(2)
	ST   -Y,R30
	__POINTW2FN _0x0,214
	CALL _drawButton
	RJMP SUBOPT_0x16

;OPTIMIZER ADDED SUBROUTINE, CALLED 3 TIMES, CODE SIZE REDUCTION:5 WORDS
SUBOPT_0x4C:
	LDI  R30,LOW(3)
	ST   -Y,R30
	__POINTW2FN _0x0,221
	JMP  _drawButton

;OPTIMIZER ADDED SUBROUTINE, CALLED 16 TIMES, CODE SIZE REDUCTION:42 WORDS
SUBOPT_0x4D:
	CLR  R31
	CLR  R22
	CLR  R23
	CALL __PUTPARD1
	RET

;OPTIMIZER ADDED SUBROUTINE, CALLED 4 TIMES, CODE SIZE REDUCTION:21 WORDS
SUBOPT_0x4E:
	LDI  R30,LOW(70)
	LDI  R31,HIGH(70)
	ST   -Y,R31
	ST   -Y,R30
	MOV  R30,R9
	LDI  R31,0
	ST   -Y,R31
	ST   -Y,R30
	RJMP SUBOPT_0x29

;OPTIMIZER ADDED SUBROUTINE, CALLED 3 TIMES, CODE SIZE REDUCTION:5 WORDS
SUBOPT_0x4F:
	LDI  R30,LOW(31)
	LDI  R31,HIGH(31)
	ST   -Y,R31
	ST   -Y,R30
	LDI  R30,LOW(2047)
	LDI  R31,HIGH(2047)
	RET

;OPTIMIZER ADDED SUBROUTINE, CALLED 3 TIMES, CODE SIZE REDUCTION:9 WORDS
SUBOPT_0x50:
	STD  Y+6,R30
	STD  Y+6+1,R31
	LDD  R26,Y+6
	LDD  R27,Y+6+1
	CALL _fraction
	RJMP SUBOPT_0x29

;OPTIMIZER ADDED SUBROUTINE, CALLED 4 TIMES, CODE SIZE REDUCTION:6 WORDS
SUBOPT_0x51:
	ST   -Y,R31
	ST   -Y,R30
	MOV  R30,R10
	RJMP SUBOPT_0x4D

;OPTIMIZER ADDED SUBROUTINE, CALLED 6 TIMES, CODE SIZE REDUCTION:7 WORDS
SUBOPT_0x52:
	LDI  R24,8
	CALL _sprintf
	ADIW R28,12
	RET

;OPTIMIZER ADDED SUBROUTINE, CALLED 2 TIMES, CODE SIZE REDUCTION:2 WORDS
SUBOPT_0x53:
	MOV  R30,R9
	LDI  R31,0
	ADIW R30,5
	ST   -Y,R31
	ST   -Y,R30
	RJMP SUBOPT_0x29

;OPTIMIZER ADDED SUBROUTINE, CALLED 11 TIMES, CODE SIZE REDUCTION:47 WORDS
SUBOPT_0x54:
	ST   -Y,R21
	ST   -Y,R20
	ST   -Y,R19
	ST   -Y,R18
	LDI  R26,LOW(1)
	JMP  _ILI9341_WriteString

;OPTIMIZER ADDED SUBROUTINE, CALLED 22 TIMES, CODE SIZE REDUCTION:39 WORDS
SUBOPT_0x55:
	ST   -Y,R31
	ST   -Y,R30
	MOV  R30,R9
	LDI  R31,0
	RET

;OPTIMIZER ADDED SUBROUTINE, CALLED 14 TIMES, CODE SIZE REDUCTION:23 WORDS
SUBOPT_0x56:
	ST   -Y,R31
	ST   -Y,R30
	RJMP SUBOPT_0x29

;OPTIMIZER ADDED SUBROUTINE, CALLED 2 TIMES, CODE SIZE REDUCTION:2 WORDS
SUBOPT_0x57:
	ST   -Y,R21
	ST   -Y,R20
	ST   -Y,R19
	ST   -Y,R18
	LDI  R26,LOW(3)
	JMP  _ILI9341_WriteString

;OPTIMIZER ADDED SUBROUTINE, CALLED 2 TIMES, CODE SIZE REDUCTION:10 WORDS
SUBOPT_0x58:
	ADIW R30,2
	ST   -Y,R31
	ST   -Y,R30
	LDI  R30,LOW(30)
	LDI  R31,HIGH(30)
	ST   -Y,R31
	ST   -Y,R30
	LDI  R30,LOW(45)
	LDI  R31,HIGH(45)
	ST   -Y,R31
	ST   -Y,R30
	LDD  R26,Y+14
	LDD  R27,Y+14+1
	JMP  _ILI9341_FillRectangle

;OPTIMIZER ADDED SUBROUTINE, CALLED 7 TIMES, CODE SIZE REDUCTION:33 WORDS
SUBOPT_0x59:
	CALL __CWD1
	CALL __PUTPARD1
	LDI  R24,4
	CALL _sprintf
	ADIW R28,8
	RET

;OPTIMIZER ADDED SUBROUTINE, CALLED 6 TIMES, CODE SIZE REDUCTION:7 WORDS
SUBOPT_0x5A:
	LDI  R30,LOW(10)
	LDI  R31,HIGH(10)
	RJMP SUBOPT_0x55

;OPTIMIZER ADDED SUBROUTINE, CALLED 5 TIMES, CODE SIZE REDUCTION:5 WORDS
SUBOPT_0x5B:
	ST   -Y,R21
	ST   -Y,R20
	ST   -Y,R19
	ST   -Y,R18
	RET

;OPTIMIZER ADDED SUBROUTINE, CALLED 3 TIMES, CODE SIZE REDUCTION:5 WORDS
SUBOPT_0x5C:
	CALL __GETW1P
	STD  Y+6,R30
	STD  Y+6+1,R31
	LDD  R26,Y+6
	LDD  R27,Y+6+1
	RET

;OPTIMIZER ADDED SUBROUTINE, CALLED 5 TIMES, CODE SIZE REDUCTION:5 WORDS
SUBOPT_0x5D:
	MOV  R26,R17
	LDI  R27,0
	SBRC R26,7
	SER  R27
	RET

;OPTIMIZER ADDED SUBROUTINE, CALLED 7 TIMES, CODE SIZE REDUCTION:9 WORDS
SUBOPT_0x5E:
	MOV  R30,R17
	LDI  R31,0
	SUBI R30,LOW(-_relay)
	SBCI R31,HIGH(-_relay)
	RET

;OPTIMIZER ADDED SUBROUTINE, CALLED 2 TIMES, CODE SIZE REDUCTION:4 WORDS
SUBOPT_0x5F:
	ST   -Y,R31
	ST   -Y,R30
	MOV  R30,R17
	LDI  R31,0
	SBRC R30,7
	SER  R31
	ADIW R30,1
	RJMP SUBOPT_0x59

;OPTIMIZER ADDED SUBROUTINE, CALLED 2 TIMES, CODE SIZE REDUCTION:1 WORDS
SUBOPT_0x60:
	CALL _strcat
	MOV  R30,R17
	LDI  R31,0
	SUBI R30,LOW(-_relOut)
	SBCI R31,HIGH(-_relOut)
	RET

;OPTIMIZER ADDED SUBROUTINE, CALLED 3 TIMES, CODE SIZE REDUCTION:1 WORDS
SUBOPT_0x61:
	LDI  R30,LOW(65535)
	LDI  R31,HIGH(65535)
	RJMP SUBOPT_0x2D

;OPTIMIZER ADDED SUBROUTINE, CALLED 2 TIMES, CODE SIZE REDUCTION:3 WORDS
SUBOPT_0x62:
	ST   -Y,R31
	ST   -Y,R30
	MOV  R30,R17
	CALL __CBD1
	CALL __PUTPARD1
	RET

;OPTIMIZER ADDED SUBROUTINE, CALLED 4 TIMES, CODE SIZE REDUCTION:3 WORDS
SUBOPT_0x63:
	LDI  R24,4
	CALL _sprintf
	ADIW R28,8
	RET

;OPTIMIZER ADDED SUBROUTINE, CALLED 11 TIMES, CODE SIZE REDUCTION:17 WORDS
SUBOPT_0x64:
	MOV  R30,R17
	LDI  R31,0
	SUBI R30,LOW(-_analog)
	SBCI R31,HIGH(-_analog)
	RET

;OPTIMIZER ADDED SUBROUTINE, CALLED 2 TIMES, CODE SIZE REDUCTION:1 WORDS
SUBOPT_0x65:
	MOV  R26,R17
	LDI  R27,0
	SUBI R26,LOW(-_analogOut)
	SBCI R27,HIGH(-_analogOut)
	RJMP SUBOPT_0x64

;OPTIMIZER ADDED SUBROUTINE, CALLED 3 TIMES, CODE SIZE REDUCTION:1 WORDS
SUBOPT_0x66:
	MOV  R30,R17
	LDI  R31,0
	SUBI R30,LOW(-_analogOut)
	SBCI R31,HIGH(-_analogOut)
	RET

;OPTIMIZER ADDED SUBROUTINE, CALLED 3 TIMES, CODE SIZE REDUCTION:3 WORDS
SUBOPT_0x67:
	LD   R30,X+
	LD   R31,X+
	ADIW R30,1
	ST   -X,R31
	ST   -X,R30
	RET

;OPTIMIZER ADDED SUBROUTINE, CALLED 2 TIMES, CODE SIZE REDUCTION:1 WORDS
SUBOPT_0x68:
	MOV  R26,R6
	CLR  R27
	LDI  R30,0
	SBRC R2,2
	LDI  R30,1
	LDI  R31,0
	RET

;OPTIMIZER ADDED SUBROUTINE, CALLED 5 TIMES, CODE SIZE REDUCTION:5 WORDS
SUBOPT_0x69:
	LDS  R30,_fillScreen
	LDS  R31,_fillScreen+1
	RET

;OPTIMIZER ADDED SUBROUTINE, CALLED 2 TIMES, CODE SIZE REDUCTION:1 WORDS
SUBOPT_0x6A:
	LDI  R30,LOW(30)
	ADD  R9,R30
	LDI  R30,LOW(80)
	LDI  R31,HIGH(80)
	RJMP SUBOPT_0x55

;OPTIMIZER ADDED SUBROUTINE, CALLED 2 TIMES, CODE SIZE REDUCTION:2 WORDS
SUBOPT_0x6B:
	RCALL SUBOPT_0x69
	ST   -Y,R31
	ST   -Y,R30
	LDI  R26,LOW(2)
	JMP  _ILI9341_WriteString

;OPTIMIZER ADDED SUBROUTINE, CALLED 5 TIMES, CODE SIZE REDUCTION:13 WORDS
SUBOPT_0x6C:
	ST   -Y,R18
	LDD  R26,Y+13
	LDD  R27,Y+13+1
	LDD  R30,Y+15
	LDD  R31,Y+15+1
	ICALL
	RET

;OPTIMIZER ADDED SUBROUTINE, CALLED 5 TIMES, CODE SIZE REDUCTION:9 WORDS
SUBOPT_0x6D:
	LDD  R30,Y+16
	LDD  R31,Y+16+1
	SBIW R30,4
	STD  Y+16,R30
	STD  Y+16+1,R31
	RET

;OPTIMIZER ADDED SUBROUTINE, CALLED 3 TIMES, CODE SIZE REDUCTION:3 WORDS
SUBOPT_0x6E:
	LDD  R26,Y+13
	LDD  R27,Y+13+1
	LDD  R30,Y+15
	LDD  R31,Y+15+1
	ICALL
	RET

;OPTIMIZER ADDED SUBROUTINE, CALLED 2 TIMES, CODE SIZE REDUCTION:2 WORDS
SUBOPT_0x6F:
	LDD  R26,Y+16
	LDD  R27,Y+16+1
	ADIW R26,4
	CALL __GETW1P
	STD  Y+10,R30
	STD  Y+10+1,R31
	RET

;OPTIMIZER ADDED SUBROUTINE, CALLED 2 TIMES, CODE SIZE REDUCTION:1 WORDS
SUBOPT_0x70:
	MOVW R26,R28
	ADIW R26,12
	CALL __ADDW2R15
	CALL __GETW1P
	RET


	.CSEG
_delay_ms:
	adiw r26,0
	breq __delay_ms1
__delay_ms0:
	__DELAY_USW 0xFA0
	wdr
	sbiw r26,1
	brne __delay_ms0
__delay_ms1:
	ret

	.equ __w1_port=0x18
	.equ __w1_bit=0x04

_w1_init:
	clr  r30
	cbi  __w1_port,__w1_bit
	sbi  __w1_port-1,__w1_bit
	__DELAY_USW 0x780
	cbi  __w1_port-1,__w1_bit
	__DELAY_USB 0x4B
	sbis __w1_port-2,__w1_bit
	ret
	__DELAY_USW 0x130
	sbis __w1_port-2,__w1_bit
	ldi  r30,1
	__DELAY_USW 0x618
	ret

__w1_read_bit:
	sbi  __w1_port-1,__w1_bit
	__DELAY_USB 0xB
	cbi  __w1_port-1,__w1_bit
	__DELAY_USB 0x3B
	clc
	sbic __w1_port-2,__w1_bit
	sec
	ror  r30
	__DELAY_USW 0x140
	ret

__w1_write_bit:
	clt
	sbi  __w1_port-1,__w1_bit
	__DELAY_USB 0xB
	sbrc r23,0
	cbi  __w1_port-1,__w1_bit
	__DELAY_USB 0x45
	sbic __w1_port-2,__w1_bit
	rjmp __w1_write_bit0
	sbrs r23,0
	rjmp __w1_write_bit1
	ret
__w1_write_bit0:
	sbrs r23,0
	ret
__w1_write_bit1:
	__DELAY_USW 0x12C
	cbi  __w1_port-1,__w1_bit
	__DELAY_USB 0x1B
	set
	ret

_w1_read:
	ldi  r22,8
	__w1_read0:
	rcall __w1_read_bit
	dec  r22
	brne __w1_read0
	ret

_w1_write:
	mov  r23,r26
	ldi  r22,8
	clr  r30
__w1_write0:
	rcall __w1_write_bit
	brtc __w1_write1
	ror  r23
	dec  r22
	brne __w1_write0
	inc  r30
__w1_write1:
	ret

_w1_search:
	push r20
	push r21
	clr  r1
	clr  r20
__w1_search0:
	mov  r0,r1
	clr  r1
	rcall _w1_init
	tst  r30
	breq __w1_search7
	push r26
	ld   r26,y
	rcall _w1_write
	pop  r26
	ldi  r21,1
__w1_search1:
	cp   r21,r0
	brsh __w1_search6
	rcall __w1_read_bit
	sbrc r30,7
	rjmp __w1_search2
	rcall __w1_read_bit
	sbrc r30,7
	rjmp __w1_search3
	rcall __sel_bit
	and  r24,r25
	brne __w1_search3
	mov  r1,r21
	rjmp __w1_search3
__w1_search2:
	rcall __w1_read_bit
__w1_search3:
	rcall __sel_bit
	and  r24,r25
	ldi  r23,0
	breq __w1_search5
__w1_search4:
	ldi  r23,1
__w1_search5:
	rcall __w1_write_bit
	rjmp __w1_search13
__w1_search6:
	rcall __w1_read_bit
	sbrs r30,7
	rjmp __w1_search9
	rcall __w1_read_bit
	sbrs r30,7
	rjmp __w1_search8
__w1_search7:
	mov  r30,r20
	pop  r21
	pop  r20
	adiw r28,1
	ret
__w1_search8:
	set
	rcall __set_bit
	rjmp __w1_search4
__w1_search9:
	rcall __w1_read_bit
	sbrs r30,7
	rjmp __w1_search10
	rjmp __w1_search11
__w1_search10:
	cp   r21,r0
	breq __w1_search12
	mov  r1,r21
__w1_search11:
	clt
	rcall __set_bit
	clr  r23
	rcall __w1_write_bit
	rjmp __w1_search13
__w1_search12:
	set
	rcall __set_bit
	ldi  r23,1
	rcall __w1_write_bit
__w1_search13:
	inc  r21
	cpi  r21,65
	brlt __w1_search1
	rcall __w1_read_bit
	rol  r30
	rol  r30
	andi r30,1
	adiw r26,8
	st   x,r30
	sbiw r26,8
	inc  r20
	tst  r1
	breq __w1_search7
	ldi  r21,9
__w1_search14:
	ld   r30,x
	adiw r26,9
	st   x,r30
	sbiw r26,8
	dec  r21
	brne __w1_search14
	rjmp __w1_search0

__sel_bit:
	mov  r30,r21
	dec  r30
	mov  r22,r30
	lsr  r30
	lsr  r30
	lsr  r30
	clr  r31
	add  r30,r26
	adc  r31,r27
	ld   r24,z
	ldi  r25,1
	andi r22,7
__sel_bit0:
	breq __sel_bit1
	lsl  r25
	dec  r22
	rjmp __sel_bit0
__sel_bit1:
	ret

__set_bit:
	rcall __sel_bit
	brts __set_bit2
	com  r25
	and  r24,r25
	rjmp __set_bit3
__set_bit2:
	or   r24,r25
__set_bit3:
	st   z,r24
	ret

_w1_dow_crc8:
	clr  r30
	tst  r26
	breq __w1_dow_crc83
	mov  r24,r26
	ldi  r22,0x18
	ld   r26,y
	ldd  r27,y+1
__w1_dow_crc80:
	ldi  r25,8
	ld   r31,x+
__w1_dow_crc81:
	mov  r23,r31
	eor  r23,r30
	ror  r23
	brcc __w1_dow_crc82
	eor  r30,r22
__w1_dow_crc82:
	ror  r30
	lsr  r31
	dec  r25
	brne __w1_dow_crc81
	dec  r24
	brne __w1_dow_crc80
__w1_dow_crc83:
	adiw r28,2
	ret

__ADDW2R15:
	CLR  R0
	ADD  R26,R15
	ADC  R27,R0
	RET

__ADDD12:
	ADD  R30,R26
	ADC  R31,R27
	ADC  R22,R24
	ADC  R23,R25
	RET

__ANEGW1:
	NEG  R31
	NEG  R30
	SBCI R31,0
	RET

__ANEGD1:
	COM  R31
	COM  R22
	COM  R23
	NEG  R30
	SBCI R31,-1
	SBCI R22,-1
	SBCI R23,-1
	RET

__LSLD12:
	TST  R30
	MOV  R0,R30
	MOVW R30,R26
	MOVW R22,R24
	BREQ __LSLD12R
__LSLD12L:
	LSL  R30
	ROL  R31
	ROL  R22
	ROL  R23
	DEC  R0
	BRNE __LSLD12L
__LSLD12R:
	RET

__LSRW2:
	LSR  R31
	ROR  R30
	LSR  R31
	ROR  R30
	RET

__ASRW8:
	MOV  R30,R31
	CLR  R31
	SBRC R30,7
	SER  R31
	RET

__CBD1:
	MOV  R31,R30
	ADD  R31,R31
	SBC  R31,R31
	MOV  R22,R31
	MOV  R23,R31
	RET

__CWD1:
	MOV  R22,R31
	ADD  R22,R22
	SBC  R22,R22
	MOV  R23,R22
	RET

__MULW12U:
	MUL  R31,R26
	MOV  R31,R0
	MUL  R30,R27
	ADD  R31,R0
	MUL  R30,R26
	MOV  R30,R0
	ADD  R31,R1
	RET

__MULD12U:
	MUL  R23,R26
	MOV  R23,R0
	MUL  R22,R27
	ADD  R23,R0
	MUL  R31,R24
	ADD  R23,R0
	MUL  R30,R25
	ADD  R23,R0
	MUL  R22,R26
	MOV  R22,R0
	ADD  R23,R1
	MUL  R31,R27
	ADD  R22,R0
	ADC  R23,R1
	MUL  R30,R24
	ADD  R22,R0
	ADC  R23,R1
	CLR  R24
	MUL  R31,R26
	MOV  R31,R0
	ADD  R22,R1
	ADC  R23,R24
	MUL  R30,R27
	ADD  R31,R0
	ADC  R22,R1
	ADC  R23,R24
	MUL  R30,R26
	MOV  R30,R0
	ADD  R31,R1
	ADC  R22,R24
	ADC  R23,R24
	RET

__MULW12:
	RCALL __CHKSIGNW
	RCALL __MULW12U
	BRTC __MULW121
	RCALL __ANEGW1
__MULW121:
	RET

__MULD12:
	RCALL __CHKSIGND
	RCALL __MULD12U
	BRTC __MULD121
	RCALL __ANEGD1
__MULD121:
	RET

__DIVW21U:
	CLR  R0
	CLR  R1
	LDI  R25,16
__DIVW21U1:
	LSL  R26
	ROL  R27
	ROL  R0
	ROL  R1
	SUB  R0,R30
	SBC  R1,R31
	BRCC __DIVW21U2
	ADD  R0,R30
	ADC  R1,R31
	RJMP __DIVW21U3
__DIVW21U2:
	SBR  R26,1
__DIVW21U3:
	DEC  R25
	BRNE __DIVW21U1
	MOVW R30,R26
	MOVW R26,R0
	RET

__DIVW21:
	RCALL __CHKSIGNW
	RCALL __DIVW21U
	BRTC __DIVW211
	RCALL __ANEGW1
__DIVW211:
	RET

__DIVD21U:
	PUSH R19
	PUSH R20
	PUSH R21
	CLR  R0
	CLR  R1
	CLR  R20
	CLR  R21
	LDI  R19,32
__DIVD21U1:
	LSL  R26
	ROL  R27
	ROL  R24
	ROL  R25
	ROL  R0
	ROL  R1
	ROL  R20
	ROL  R21
	SUB  R0,R30
	SBC  R1,R31
	SBC  R20,R22
	SBC  R21,R23
	BRCC __DIVD21U2
	ADD  R0,R30
	ADC  R1,R31
	ADC  R20,R22
	ADC  R21,R23
	RJMP __DIVD21U3
__DIVD21U2:
	SBR  R26,1
__DIVD21U3:
	DEC  R19
	BRNE __DIVD21U1
	MOVW R30,R26
	MOVW R22,R24
	MOVW R26,R0
	MOVW R24,R20
	POP  R21
	POP  R20
	POP  R19
	RET

__DIVD21:
	RCALL __CHKSIGND
	RCALL __DIVD21U
	BRTC __DIVD211
	RCALL __ANEGD1
__DIVD211:
	RET

__MODW21:
	CLT
	SBRS R27,7
	RJMP __MODW211
	COM  R26
	COM  R27
	ADIW R26,1
	SET
__MODW211:
	SBRC R31,7
	RCALL __ANEGW1
	RCALL __DIVW21U
	MOVW R30,R26
	BRTC __MODW212
	RCALL __ANEGW1
__MODW212:
	RET

__CHKSIGNW:
	CLT
	SBRS R31,7
	RJMP __CHKSW1
	RCALL __ANEGW1
	SET
__CHKSW1:
	SBRS R27,7
	RJMP __CHKSW2
	COM  R26
	COM  R27
	ADIW R26,1
	BLD  R0,0
	INC  R0
	BST  R0,0
__CHKSW2:
	RET

__CHKSIGND:
	CLT
	SBRS R23,7
	RJMP __CHKSD1
	RCALL __ANEGD1
	SET
__CHKSD1:
	SBRS R25,7
	RJMP __CHKSD2
	CLR  R0
	COM  R26
	COM  R27
	COM  R24
	COM  R25
	ADIW R26,1
	ADC  R24,R0
	ADC  R25,R0
	BLD  R0,0
	INC  R0
	BST  R0,0
__CHKSD2:
	RET

__GETW1P:
	LD   R30,X+
	LD   R31,X
	SBIW R26,1
	RET

__GETW1PF:
	LPM  R0,Z+
	LPM  R31,Z
	MOV  R30,R0
	RET

__GETD1S0:
	LD   R30,Y
	LDD  R31,Y+1
	LDD  R22,Y+2
	LDD  R23,Y+3
	RET

__GETD2S0:
	LD   R26,Y
	LDD  R27,Y+1
	LDD  R24,Y+2
	LDD  R25,Y+3
	RET

__PUTD1S0:
	ST   Y,R30
	STD  Y+1,R31
	STD  Y+2,R22
	STD  Y+3,R23
	RET

__CLRD1S0:
	ST   Y,R30
	STD  Y+1,R30
	STD  Y+2,R30
	STD  Y+3,R30
	RET

__PUTPARD1:
	ST   -Y,R23
	ST   -Y,R22
	ST   -Y,R31
	ST   -Y,R30
	RET

__SWAPW12:
	MOV  R1,R27
	MOV  R27,R31
	MOV  R31,R1

__SWAPB12:
	MOV  R1,R26
	MOV  R26,R30
	MOV  R30,R1
	RET

__EEPROMRDW:
	ADIW R26,1
	RCALL __EEPROMRDB
	MOV  R31,R30
	SBIW R26,1

__EEPROMRDB:
	SBIC EECR,EEWE
	RJMP __EEPROMRDB
	PUSH R31
	IN   R31,SREG
	CLI
	OUT  EEARL,R26
	OUT  EEARH,R27
	SBI  EECR,EERE
	IN   R30,EEDR
	OUT  SREG,R31
	POP  R31
	RET

__CPW02:
	CLR  R0
	CP   R0,R26
	CPC  R0,R27
	RET

__CPD21:
	CP   R26,R30
	CPC  R27,R31
	CPC  R24,R22
	CPC  R25,R23
	RET

__BSTB1:
	CLT
	TST  R30
	BREQ PC+2
	SET
	RET

__SAVELOCR6:
	ST   -Y,R21
__SAVELOCR5:
	ST   -Y,R20
__SAVELOCR4:
	ST   -Y,R19
__SAVELOCR3:
	ST   -Y,R18
__SAVELOCR2:
	ST   -Y,R17
	ST   -Y,R16
	RET

__LOADLOCR6:
	LDD  R21,Y+5
__LOADLOCR5:
	LDD  R20,Y+4
__LOADLOCR4:
	LDD  R19,Y+3
__LOADLOCR3:
	LDD  R18,Y+2
__LOADLOCR2:
	LDD  R17,Y+1
	LD   R16,Y
	RET

;END OF CODE MARKER
__END_OF_CODE:
